
dwm1000-tx.elf:     file format elf32-littlearm

Sections:
Idx Name          Size      VMA       LMA       File off  Algn
  0 .isr_vector   0000013c  08000000  08000000  00010000  2**0
                  CONTENTS, ALLOC, LOAD, READONLY, DATA
  1 .text         0000621c  0800013c  0800013c  0001013c  2**2
                  CONTENTS, ALLOC, LOAD, READONLY, CODE
  2 .rodata       00001660  08006358  08006358  00016358  2**2
                  CONTENTS, ALLOC, LOAD, READONLY, DATA
  3 .ARM.extab    00000000  080079b8  080079b8  000200b0  2**0
                  CONTENTS
  4 .ARM          00000008  080079b8  080079b8  000179b8  2**2
                  CONTENTS, ALLOC, LOAD, READONLY, DATA
  5 .preinit_array 00000000  080079c0  080079c0  000200b0  2**0
                  CONTENTS, ALLOC, LOAD, DATA
  6 .init_array   00000004  080079c0  080079c0  000179c0  2**2
                  CONTENTS, ALLOC, LOAD, DATA
  7 .fini_array   00000004  080079c4  080079c4  000179c4  2**2
                  CONTENTS, ALLOC, LOAD, DATA
  8 .data         000000b0  20000000  080079c8  00020000  2**2
                  CONTENTS, ALLOC, LOAD, DATA
  9 .bss          00000570  200000b0  08007a78  000200b0  2**2
                  ALLOC
 10 ._user_heap_stack 00000600  20000620  08007a78  00020620  2**0
                  ALLOC
 11 .ARM.attributes 00000029  00000000  00000000  000200b0  2**0
                  CONTENTS, READONLY
 12 .debug_info   0001a784  00000000  00000000  000200d9  2**0
                  CONTENTS, READONLY, DEBUGGING, OCTETS
 13 .debug_abbrev 00003a91  00000000  00000000  0003a85d  2**0
                  CONTENTS, READONLY, DEBUGGING, OCTETS
 14 .debug_aranges 00001268  00000000  00000000  0003e2f0  2**3
                  CONTENTS, READONLY, DEBUGGING, OCTETS
 15 .debug_ranges 000010f0  00000000  00000000  0003f558  2**3
                  CONTENTS, READONLY, DEBUGGING, OCTETS
 16 .debug_macro  0001b257  00000000  00000000  00040648  2**0
                  CONTENTS, READONLY, DEBUGGING, OCTETS
 17 .debug_line   000169d9  00000000  00000000  0005b89f  2**0
                  CONTENTS, READONLY, DEBUGGING, OCTETS
 18 .debug_str    000926d3  00000000  00000000  00072278  2**0
                  CONTENTS, READONLY, DEBUGGING, OCTETS
 19 .comment      00000053  00000000  00000000  0010494b  2**0
                  CONTENTS, READONLY
 20 .debug_frame  0000515c  00000000  00000000  001049a0  2**2
                  CONTENTS, READONLY, DEBUGGING, OCTETS

Disassembly of section .text:

0800013c <__do_global_dtors_aux>:
 800013c:	b510      	push	{r4, lr}
 800013e:	4c05      	ldr	r4, [pc, #20]	; (8000154 <__do_global_dtors_aux+0x18>)
 8000140:	7823      	ldrb	r3, [r4, #0]
 8000142:	b933      	cbnz	r3, 8000152 <__do_global_dtors_aux+0x16>
 8000144:	4b04      	ldr	r3, [pc, #16]	; (8000158 <__do_global_dtors_aux+0x1c>)
 8000146:	b113      	cbz	r3, 800014e <__do_global_dtors_aux+0x12>
 8000148:	4804      	ldr	r0, [pc, #16]	; (800015c <__do_global_dtors_aux+0x20>)
 800014a:	f3af 8000 	nop.w
 800014e:	2301      	movs	r3, #1
 8000150:	7023      	strb	r3, [r4, #0]
 8000152:	bd10      	pop	{r4, pc}
 8000154:	200000b0 	.word	0x200000b0
 8000158:	00000000 	.word	0x00000000
 800015c:	08006340 	.word	0x08006340

08000160 <frame_dummy>:
 8000160:	b508      	push	{r3, lr}
 8000162:	4b03      	ldr	r3, [pc, #12]	; (8000170 <frame_dummy+0x10>)
 8000164:	b11b      	cbz	r3, 800016e <frame_dummy+0xe>
 8000166:	4903      	ldr	r1, [pc, #12]	; (8000174 <frame_dummy+0x14>)
 8000168:	4803      	ldr	r0, [pc, #12]	; (8000178 <frame_dummy+0x18>)
 800016a:	f3af 8000 	nop.w
 800016e:	bd08      	pop	{r3, pc}
 8000170:	00000000 	.word	0x00000000
 8000174:	200000b4 	.word	0x200000b4
 8000178:	08006340 	.word	0x08006340

0800017c <__aeabi_uldivmod>:
 800017c:	b953      	cbnz	r3, 8000194 <__aeabi_uldivmod+0x18>
 800017e:	b94a      	cbnz	r2, 8000194 <__aeabi_uldivmod+0x18>
 8000180:	2900      	cmp	r1, #0
 8000182:	bf08      	it	eq
 8000184:	2800      	cmpeq	r0, #0
 8000186:	bf1c      	itt	ne
 8000188:	f04f 31ff 	movne.w	r1, #4294967295
 800018c:	f04f 30ff 	movne.w	r0, #4294967295
 8000190:	f000 b96e 	b.w	8000470 <__aeabi_idiv0>
 8000194:	f1ad 0c08 	sub.w	ip, sp, #8
 8000198:	e96d ce04 	strd	ip, lr, [sp, #-16]!
 800019c:	f000 f806 	bl	80001ac <__udivmoddi4>
 80001a0:	f8dd e004 	ldr.w	lr, [sp, #4]
 80001a4:	e9dd 2302 	ldrd	r2, r3, [sp, #8]
 80001a8:	b004      	add	sp, #16
 80001aa:	4770      	bx	lr

080001ac <__udivmoddi4>:
 80001ac:	e92d 47f0 	stmdb	sp!, {r4, r5, r6, r7, r8, r9, sl, lr}
 80001b0:	9e08      	ldr	r6, [sp, #32]
 80001b2:	460d      	mov	r5, r1
 80001b4:	4604      	mov	r4, r0
 80001b6:	468e      	mov	lr, r1
 80001b8:	2b00      	cmp	r3, #0
 80001ba:	f040 8083 	bne.w	80002c4 <__udivmoddi4+0x118>
 80001be:	428a      	cmp	r2, r1
 80001c0:	4617      	mov	r7, r2
 80001c2:	d947      	bls.n	8000254 <__udivmoddi4+0xa8>
 80001c4:	fab2 f382 	clz	r3, r2
 80001c8:	b14b      	cbz	r3, 80001de <__udivmoddi4+0x32>
 80001ca:	f1c3 0120 	rsb	r1, r3, #32
 80001ce:	fa05 fe03 	lsl.w	lr, r5, r3
 80001d2:	fa20 f101 	lsr.w	r1, r0, r1
 80001d6:	409f      	lsls	r7, r3
 80001d8:	ea41 0e0e 	orr.w	lr, r1, lr
 80001dc:	409c      	lsls	r4, r3
 80001de:	ea4f 4817 	mov.w	r8, r7, lsr #16
 80001e2:	fbbe fcf8 	udiv	ip, lr, r8
 80001e6:	fa1f f987 	uxth.w	r9, r7
 80001ea:	fb08 e21c 	mls	r2, r8, ip, lr
 80001ee:	fb0c f009 	mul.w	r0, ip, r9
 80001f2:	0c21      	lsrs	r1, r4, #16
 80001f4:	ea41 4202 	orr.w	r2, r1, r2, lsl #16
 80001f8:	4290      	cmp	r0, r2
 80001fa:	d90a      	bls.n	8000212 <__udivmoddi4+0x66>
 80001fc:	18ba      	adds	r2, r7, r2
 80001fe:	f10c 31ff 	add.w	r1, ip, #4294967295
 8000202:	f080 8118 	bcs.w	8000436 <__udivmoddi4+0x28a>
 8000206:	4290      	cmp	r0, r2
 8000208:	f240 8115 	bls.w	8000436 <__udivmoddi4+0x28a>
 800020c:	f1ac 0c02 	sub.w	ip, ip, #2
 8000210:	443a      	add	r2, r7
 8000212:	1a12      	subs	r2, r2, r0
 8000214:	fbb2 f0f8 	udiv	r0, r2, r8
 8000218:	fb08 2210 	mls	r2, r8, r0, r2
 800021c:	fb00 f109 	mul.w	r1, r0, r9
 8000220:	b2a4      	uxth	r4, r4
 8000222:	ea44 4402 	orr.w	r4, r4, r2, lsl #16
 8000226:	42a1      	cmp	r1, r4
 8000228:	d909      	bls.n	800023e <__udivmoddi4+0x92>
 800022a:	193c      	adds	r4, r7, r4
 800022c:	f100 32ff 	add.w	r2, r0, #4294967295
 8000230:	f080 8103 	bcs.w	800043a <__udivmoddi4+0x28e>
 8000234:	42a1      	cmp	r1, r4
 8000236:	f240 8100 	bls.w	800043a <__udivmoddi4+0x28e>
 800023a:	3802      	subs	r0, #2
 800023c:	443c      	add	r4, r7
 800023e:	1a64      	subs	r4, r4, r1
 8000240:	2100      	movs	r1, #0
 8000242:	ea40 400c 	orr.w	r0, r0, ip, lsl #16
 8000246:	b11e      	cbz	r6, 8000250 <__udivmoddi4+0xa4>
 8000248:	2200      	movs	r2, #0
 800024a:	40dc      	lsrs	r4, r3
 800024c:	e9c6 4200 	strd	r4, r2, [r6]
 8000250:	e8bd 87f0 	ldmia.w	sp!, {r4, r5, r6, r7, r8, r9, sl, pc}
 8000254:	b902      	cbnz	r2, 8000258 <__udivmoddi4+0xac>
 8000256:	deff      	udf	#255	; 0xff
 8000258:	fab2 f382 	clz	r3, r2
 800025c:	2b00      	cmp	r3, #0
 800025e:	d14f      	bne.n	8000300 <__udivmoddi4+0x154>
 8000260:	1a8d      	subs	r5, r1, r2
 8000262:	2101      	movs	r1, #1
 8000264:	ea4f 4e12 	mov.w	lr, r2, lsr #16
 8000268:	fa1f f882 	uxth.w	r8, r2
 800026c:	fbb5 fcfe 	udiv	ip, r5, lr
 8000270:	fb0e 551c 	mls	r5, lr, ip, r5
 8000274:	fb08 f00c 	mul.w	r0, r8, ip
 8000278:	0c22      	lsrs	r2, r4, #16
 800027a:	ea42 4505 	orr.w	r5, r2, r5, lsl #16
 800027e:	42a8      	cmp	r0, r5
 8000280:	d907      	bls.n	8000292 <__udivmoddi4+0xe6>
 8000282:	197d      	adds	r5, r7, r5
 8000284:	f10c 32ff 	add.w	r2, ip, #4294967295
 8000288:	d202      	bcs.n	8000290 <__udivmoddi4+0xe4>
 800028a:	42a8      	cmp	r0, r5
 800028c:	f200 80e9 	bhi.w	8000462 <__udivmoddi4+0x2b6>
 8000290:	4694      	mov	ip, r2
 8000292:	1a2d      	subs	r5, r5, r0
 8000294:	fbb5 f0fe 	udiv	r0, r5, lr
 8000298:	fb0e 5510 	mls	r5, lr, r0, r5
 800029c:	fb08 f800 	mul.w	r8, r8, r0
 80002a0:	b2a4      	uxth	r4, r4
 80002a2:	ea44 4405 	orr.w	r4, r4, r5, lsl #16
 80002a6:	45a0      	cmp	r8, r4
 80002a8:	d907      	bls.n	80002ba <__udivmoddi4+0x10e>
 80002aa:	193c      	adds	r4, r7, r4
 80002ac:	f100 32ff 	add.w	r2, r0, #4294967295
 80002b0:	d202      	bcs.n	80002b8 <__udivmoddi4+0x10c>
 80002b2:	45a0      	cmp	r8, r4
 80002b4:	f200 80d9 	bhi.w	800046a <__udivmoddi4+0x2be>
 80002b8:	4610      	mov	r0, r2
 80002ba:	eba4 0408 	sub.w	r4, r4, r8
 80002be:	ea40 400c 	orr.w	r0, r0, ip, lsl #16
 80002c2:	e7c0      	b.n	8000246 <__udivmoddi4+0x9a>
 80002c4:	428b      	cmp	r3, r1
 80002c6:	d908      	bls.n	80002da <__udivmoddi4+0x12e>
 80002c8:	2e00      	cmp	r6, #0
 80002ca:	f000 80b1 	beq.w	8000430 <__udivmoddi4+0x284>
 80002ce:	2100      	movs	r1, #0
 80002d0:	e9c6 0500 	strd	r0, r5, [r6]
 80002d4:	4608      	mov	r0, r1
 80002d6:	e8bd 87f0 	ldmia.w	sp!, {r4, r5, r6, r7, r8, r9, sl, pc}
 80002da:	fab3 f183 	clz	r1, r3
 80002de:	2900      	cmp	r1, #0
 80002e0:	d14b      	bne.n	800037a <__udivmoddi4+0x1ce>
 80002e2:	42ab      	cmp	r3, r5
 80002e4:	d302      	bcc.n	80002ec <__udivmoddi4+0x140>
 80002e6:	4282      	cmp	r2, r0
 80002e8:	f200 80b9 	bhi.w	800045e <__udivmoddi4+0x2b2>
 80002ec:	1a84      	subs	r4, r0, r2
 80002ee:	eb65 0303 	sbc.w	r3, r5, r3
 80002f2:	2001      	movs	r0, #1
 80002f4:	469e      	mov	lr, r3
 80002f6:	2e00      	cmp	r6, #0
 80002f8:	d0aa      	beq.n	8000250 <__udivmoddi4+0xa4>
 80002fa:	e9c6 4e00 	strd	r4, lr, [r6]
 80002fe:	e7a7      	b.n	8000250 <__udivmoddi4+0xa4>
 8000300:	409f      	lsls	r7, r3
 8000302:	f1c3 0220 	rsb	r2, r3, #32
 8000306:	40d1      	lsrs	r1, r2
 8000308:	ea4f 4e17 	mov.w	lr, r7, lsr #16
 800030c:	fbb1 f0fe 	udiv	r0, r1, lr
 8000310:	fa1f f887 	uxth.w	r8, r7
 8000314:	fb0e 1110 	mls	r1, lr, r0, r1
 8000318:	fa24 f202 	lsr.w	r2, r4, r2
 800031c:	409d      	lsls	r5, r3
 800031e:	fb00 fc08 	mul.w	ip, r0, r8
 8000322:	432a      	orrs	r2, r5
 8000324:	0c15      	lsrs	r5, r2, #16
 8000326:	ea45 4501 	orr.w	r5, r5, r1, lsl #16
 800032a:	45ac      	cmp	ip, r5
 800032c:	fa04 f403 	lsl.w	r4, r4, r3
 8000330:	d909      	bls.n	8000346 <__udivmoddi4+0x19a>
 8000332:	197d      	adds	r5, r7, r5
 8000334:	f100 31ff 	add.w	r1, r0, #4294967295
 8000338:	f080 808f 	bcs.w	800045a <__udivmoddi4+0x2ae>
 800033c:	45ac      	cmp	ip, r5
 800033e:	f240 808c 	bls.w	800045a <__udivmoddi4+0x2ae>
 8000342:	3802      	subs	r0, #2
 8000344:	443d      	add	r5, r7
 8000346:	eba5 050c 	sub.w	r5, r5, ip
 800034a:	fbb5 f1fe 	udiv	r1, r5, lr
 800034e:	fb0e 5c11 	mls	ip, lr, r1, r5
 8000352:	fb01 f908 	mul.w	r9, r1, r8
 8000356:	b295      	uxth	r5, r2
 8000358:	ea45 450c 	orr.w	r5, r5, ip, lsl #16
 800035c:	45a9      	cmp	r9, r5
 800035e:	d907      	bls.n	8000370 <__udivmoddi4+0x1c4>
 8000360:	197d      	adds	r5, r7, r5
 8000362:	f101 32ff 	add.w	r2, r1, #4294967295
 8000366:	d274      	bcs.n	8000452 <__udivmoddi4+0x2a6>
 8000368:	45a9      	cmp	r9, r5
 800036a:	d972      	bls.n	8000452 <__udivmoddi4+0x2a6>
 800036c:	3902      	subs	r1, #2
 800036e:	443d      	add	r5, r7
 8000370:	eba5 0509 	sub.w	r5, r5, r9
 8000374:	ea41 4100 	orr.w	r1, r1, r0, lsl #16
 8000378:	e778      	b.n	800026c <__udivmoddi4+0xc0>
 800037a:	f1c1 0720 	rsb	r7, r1, #32
 800037e:	408b      	lsls	r3, r1
 8000380:	fa22 fc07 	lsr.w	ip, r2, r7
 8000384:	ea4c 0c03 	orr.w	ip, ip, r3
 8000388:	fa25 f407 	lsr.w	r4, r5, r7
 800038c:	ea4f 4e1c 	mov.w	lr, ip, lsr #16
 8000390:	fbb4 f9fe 	udiv	r9, r4, lr
 8000394:	fa1f f88c 	uxth.w	r8, ip
 8000398:	fb0e 4419 	mls	r4, lr, r9, r4
 800039c:	fa20 f307 	lsr.w	r3, r0, r7
 80003a0:	fb09 fa08 	mul.w	sl, r9, r8
 80003a4:	408d      	lsls	r5, r1
 80003a6:	431d      	orrs	r5, r3
 80003a8:	0c2b      	lsrs	r3, r5, #16
 80003aa:	ea43 4404 	orr.w	r4, r3, r4, lsl #16
 80003ae:	45a2      	cmp	sl, r4
 80003b0:	fa02 f201 	lsl.w	r2, r2, r1
 80003b4:	fa00 f301 	lsl.w	r3, r0, r1
 80003b8:	d909      	bls.n	80003ce <__udivmoddi4+0x222>
 80003ba:	eb1c 0404 	adds.w	r4, ip, r4
 80003be:	f109 30ff 	add.w	r0, r9, #4294967295
 80003c2:	d248      	bcs.n	8000456 <__udivmoddi4+0x2aa>
 80003c4:	45a2      	cmp	sl, r4
 80003c6:	d946      	bls.n	8000456 <__udivmoddi4+0x2aa>
 80003c8:	f1a9 0902 	sub.w	r9, r9, #2
 80003cc:	4464      	add	r4, ip
 80003ce:	eba4 040a 	sub.w	r4, r4, sl
 80003d2:	fbb4 f0fe 	udiv	r0, r4, lr
 80003d6:	fb0e 4410 	mls	r4, lr, r0, r4
 80003da:	fb00 fa08 	mul.w	sl, r0, r8
 80003de:	b2ad      	uxth	r5, r5
 80003e0:	ea45 4404 	orr.w	r4, r5, r4, lsl #16
 80003e4:	45a2      	cmp	sl, r4
 80003e6:	d908      	bls.n	80003fa <__udivmoddi4+0x24e>
 80003e8:	eb1c 0404 	adds.w	r4, ip, r4
 80003ec:	f100 35ff 	add.w	r5, r0, #4294967295
 80003f0:	d22d      	bcs.n	800044e <__udivmoddi4+0x2a2>
 80003f2:	45a2      	cmp	sl, r4
 80003f4:	d92b      	bls.n	800044e <__udivmoddi4+0x2a2>
 80003f6:	3802      	subs	r0, #2
 80003f8:	4464      	add	r4, ip
 80003fa:	ea40 4009 	orr.w	r0, r0, r9, lsl #16
 80003fe:	fba0 8902 	umull	r8, r9, r0, r2
 8000402:	eba4 040a 	sub.w	r4, r4, sl
 8000406:	454c      	cmp	r4, r9
 8000408:	46c6      	mov	lr, r8
 800040a:	464d      	mov	r5, r9
 800040c:	d319      	bcc.n	8000442 <__udivmoddi4+0x296>
 800040e:	d016      	beq.n	800043e <__udivmoddi4+0x292>
 8000410:	b15e      	cbz	r6, 800042a <__udivmoddi4+0x27e>
 8000412:	ebb3 020e 	subs.w	r2, r3, lr
 8000416:	eb64 0405 	sbc.w	r4, r4, r5
 800041a:	fa04 f707 	lsl.w	r7, r4, r7
 800041e:	fa22 f301 	lsr.w	r3, r2, r1
 8000422:	431f      	orrs	r7, r3
 8000424:	40cc      	lsrs	r4, r1
 8000426:	e9c6 7400 	strd	r7, r4, [r6]
 800042a:	2100      	movs	r1, #0
 800042c:	e8bd 87f0 	ldmia.w	sp!, {r4, r5, r6, r7, r8, r9, sl, pc}
 8000430:	4631      	mov	r1, r6
 8000432:	4630      	mov	r0, r6
 8000434:	e70c      	b.n	8000250 <__udivmoddi4+0xa4>
 8000436:	468c      	mov	ip, r1
 8000438:	e6eb      	b.n	8000212 <__udivmoddi4+0x66>
 800043a:	4610      	mov	r0, r2
 800043c:	e6ff      	b.n	800023e <__udivmoddi4+0x92>
 800043e:	4543      	cmp	r3, r8
 8000440:	d2e6      	bcs.n	8000410 <__udivmoddi4+0x264>
 8000442:	ebb8 0e02 	subs.w	lr, r8, r2
 8000446:	eb69 050c 	sbc.w	r5, r9, ip
 800044a:	3801      	subs	r0, #1
 800044c:	e7e0      	b.n	8000410 <__udivmoddi4+0x264>
 800044e:	4628      	mov	r0, r5
 8000450:	e7d3      	b.n	80003fa <__udivmoddi4+0x24e>
 8000452:	4611      	mov	r1, r2
 8000454:	e78c      	b.n	8000370 <__udivmoddi4+0x1c4>
 8000456:	4681      	mov	r9, r0
 8000458:	e7b9      	b.n	80003ce <__udivmoddi4+0x222>
 800045a:	4608      	mov	r0, r1
 800045c:	e773      	b.n	8000346 <__udivmoddi4+0x19a>
 800045e:	4608      	mov	r0, r1
 8000460:	e749      	b.n	80002f6 <__udivmoddi4+0x14a>
 8000462:	f1ac 0c02 	sub.w	ip, ip, #2
 8000466:	443d      	add	r5, r7
 8000468:	e713      	b.n	8000292 <__udivmoddi4+0xe6>
 800046a:	3802      	subs	r0, #2
 800046c:	443c      	add	r4, r7
 800046e:	e724      	b.n	80002ba <__udivmoddi4+0x10e>

08000470 <__aeabi_idiv0>:
 8000470:	4770      	bx	lr
 8000472:	bf00      	nop

08000474 <dwt_initialise>:
#define VBAT_ADDRESS   (0x08)
#define VTEMP_ADDRESS  (0x09)
#define XTRIM_ADDRESS  (0x1E)

int dwt_initialise(int config)
{
 8000474:	b590      	push	{r4, r7, lr}
 8000476:	b087      	sub	sp, #28
 8000478:	af00      	add	r7, sp, #0
 800047a:	6078      	str	r0, [r7, #4]
    uint16 otp_xtaltrim_and_rev = 0;
 800047c:	2300      	movs	r3, #0
 800047e:	82fb      	strh	r3, [r7, #22]
    uint32 ldo_tune = 0;
 8000480:	2300      	movs	r3, #0
 8000482:	613b      	str	r3, [r7, #16]

    pdw1000local->dblbuffon = 0; // - set to 0 - meaning double buffer mode is off by default
 8000484:	4b9f      	ldr	r3, [pc, #636]	; (8000704 <dwt_initialise+0x290>)
 8000486:	681b      	ldr	r3, [r3, #0]
 8000488:	2200      	movs	r2, #0
 800048a:	751a      	strb	r2, [r3, #20]
    pdw1000local->wait4resp = 0; // - set to 0 - meaning wait for response not active
 800048c:	4b9d      	ldr	r3, [pc, #628]	; (8000704 <dwt_initialise+0x290>)
 800048e:	681b      	ldr	r3, [r3, #0]
 8000490:	2200      	movs	r2, #0
 8000492:	755a      	strb	r2, [r3, #21]
    pdw1000local->sleep_mode = 0; // - set to 0 - meaning sleep mode has not been configured
 8000494:	4b9b      	ldr	r3, [pc, #620]	; (8000704 <dwt_initialise+0x290>)
 8000496:	681b      	ldr	r3, [r3, #0]
 8000498:	2200      	movs	r2, #0
 800049a:	82da      	strh	r2, [r3, #22]

    pdw1000local->cbTxDone = NULL;
 800049c:	4b99      	ldr	r3, [pc, #612]	; (8000704 <dwt_initialise+0x290>)
 800049e:	681b      	ldr	r3, [r3, #0]
 80004a0:	2200      	movs	r2, #0
 80004a2:	629a      	str	r2, [r3, #40]	; 0x28
    pdw1000local->cbRxOk = NULL;
 80004a4:	4b97      	ldr	r3, [pc, #604]	; (8000704 <dwt_initialise+0x290>)
 80004a6:	681b      	ldr	r3, [r3, #0]
 80004a8:	2200      	movs	r2, #0
 80004aa:	62da      	str	r2, [r3, #44]	; 0x2c
    pdw1000local->cbRxTo = NULL;
 80004ac:	4b95      	ldr	r3, [pc, #596]	; (8000704 <dwt_initialise+0x290>)
 80004ae:	681b      	ldr	r3, [r3, #0]
 80004b0:	2200      	movs	r2, #0
 80004b2:	631a      	str	r2, [r3, #48]	; 0x30
    pdw1000local->cbRxErr = NULL;
 80004b4:	4b93      	ldr	r3, [pc, #588]	; (8000704 <dwt_initialise+0x290>)
 80004b6:	681b      	ldr	r3, [r3, #0]
 80004b8:	2200      	movs	r2, #0
 80004ba:	635a      	str	r2, [r3, #52]	; 0x34
#if DWT_API_ERROR_CHECK
    pdw1000local->otp_mask = config ; // Save the READ_OTP config mask
#endif

    // Read and validate device ID, return -1 if not recognised
    if (DWT_DEVICE_ID != dwt_readdevid()) // MP IC ONLY (i.e. DW1000) FOR THIS CODE
 80004bc:	f000 f926 	bl	800070c <dwt_readdevid>
 80004c0:	4603      	mov	r3, r0
 80004c2:	4a91      	ldr	r2, [pc, #580]	; (8000708 <dwt_initialise+0x294>)
 80004c4:	4293      	cmp	r3, r2
 80004c6:	d002      	beq.n	80004ce <dwt_initialise+0x5a>
    {
        return DWT_ERROR ;
 80004c8:	f04f 33ff 	mov.w	r3, #4294967295
 80004cc:	e115      	b.n	80006fa <dwt_initialise+0x286>
    }

    if(!(DWT_DW_WAKE_UP & config)) // Don't reset the device if DWT_DW_WAKE_UP bit is set, e.g. when calling this API after wake up
 80004ce:	687b      	ldr	r3, [r7, #4]
 80004d0:	f003 0302 	and.w	r3, r3, #2
 80004d4:	2b00      	cmp	r3, #0
 80004d6:	d101      	bne.n	80004dc <dwt_initialise+0x68>
    {
        dwt_softreset(); // Make sure the device is completely reset before starting initialisation
 80004d8:	f000 fd6e 	bl	8000fb8 <dwt_softreset>
    }

    if(!((DWT_DW_WAKE_UP & config) && ((DWT_READ_OTP_TMP | DWT_READ_OTP_BAT | DWT_READ_OTP_LID | DWT_READ_OTP_PID | DWT_DW_WUP_RD_OTPREV)& config)))
 80004dc:	687b      	ldr	r3, [r7, #4]
 80004de:	f003 0302 	and.w	r3, r3, #2
 80004e2:	2b00      	cmp	r3, #0
 80004e4:	d004      	beq.n	80004f0 <dwt_initialise+0x7c>
 80004e6:	687b      	ldr	r3, [r7, #4]
 80004e8:	f003 03f8 	and.w	r3, r3, #248	; 0xf8
 80004ec:	2b00      	cmp	r3, #0
 80004ee:	d102      	bne.n	80004f6 <dwt_initialise+0x82>
    {
        _dwt_enableclocks(FORCE_SYS_XTI); // NOTE: set system clock to XTI - this is necessary to make sure the values read by _dwt_otpread are reliable
 80004f0:	2000      	movs	r0, #0
 80004f2:	f000 fc6d 	bl	8000dd0 <_dwt_enableclocks>
    }                                  // when not reading from OTP, clocks don't need to change.

    // Configure the CPLL lock detect
    dwt_write8bitoffsetreg(EXT_SYNC_ID, EC_CTRL_OFFSET, EC_CTRL_PLLLCK);
 80004f6:	2204      	movs	r2, #4
 80004f8:	2100      	movs	r1, #0
 80004fa:	2024      	movs	r0, #36	; 0x24
 80004fc:	f000 fbb1 	bl	8000c62 <dwt_write8bitoffsetreg>

    // When DW1000 IC is initialised from power up, then the LDO value should be kicked from OTP, otherwise if this API is called after
    // DW1000 IC has been woken up (DWT_DW_WAKE_UP bit is set) this can be skipped as LDO would have already been automatically
    // kicked/loaded on wake up
    if(!(DWT_DW_WAKE_UP & config))
 8000500:	687b      	ldr	r3, [r7, #4]
 8000502:	f003 0302 	and.w	r3, r3, #2
 8000506:	2b00      	cmp	r3, #0
 8000508:	d116      	bne.n	8000538 <dwt_initialise+0xc4>
    {
        // Load LDO tune from OTP and kick it if there is a value actually programmed.
        ldo_tune = _dwt_otpread(LDOTUNE_ADDRESS);
 800050a:	2004      	movs	r0, #4
 800050c:	f000 fbff 	bl	8000d0e <_dwt_otpread>
 8000510:	6138      	str	r0, [r7, #16]
        if((ldo_tune & 0xFF) != 0)
 8000512:	693b      	ldr	r3, [r7, #16]
 8000514:	b2db      	uxtb	r3, r3
 8000516:	2b00      	cmp	r3, #0
 8000518:	d01f      	beq.n	800055a <dwt_initialise+0xe6>
        {
            // Kick LDO tune
            dwt_write8bitoffsetreg(OTP_IF_ID, OTP_SF, OTP_SF_LDO_KICK); // Set load LDO kick bit
 800051a:	2202      	movs	r2, #2
 800051c:	2112      	movs	r1, #18
 800051e:	202d      	movs	r0, #45	; 0x2d
 8000520:	f000 fb9f 	bl	8000c62 <dwt_write8bitoffsetreg>
            pdw1000local->sleep_mode |= AON_WCFG_ONW_LLDO; // LDO tune must be kicked at wake-up
 8000524:	4b77      	ldr	r3, [pc, #476]	; (8000704 <dwt_initialise+0x290>)
 8000526:	681b      	ldr	r3, [r3, #0]
 8000528:	8ada      	ldrh	r2, [r3, #22]
 800052a:	4b76      	ldr	r3, [pc, #472]	; (8000704 <dwt_initialise+0x290>)
 800052c:	681b      	ldr	r3, [r3, #0]
 800052e:	f442 5280 	orr.w	r2, r2, #4096	; 0x1000
 8000532:	b292      	uxth	r2, r2
 8000534:	82da      	strh	r2, [r3, #22]
 8000536:	e010      	b.n	800055a <dwt_initialise+0xe6>
        }
    }
    else
    {   //if LDOTUNE reg contains value different from default it means it was kicked from OTP and thus set AON_WCFG_ONW_LLDO.
        if(dwt_read32bitoffsetreg(RF_CONF_ID, LDOTUNE) != LDOTUNE_DEFAULT)
 8000538:	2130      	movs	r1, #48	; 0x30
 800053a:	2028      	movs	r0, #40	; 0x28
 800053c:	f000 fb4d 	bl	8000bda <dwt_read32bitoffsetreg>
 8000540:	4603      	mov	r3, r0
 8000542:	f1b3 3f88 	cmp.w	r3, #2290649224	; 0x88888888
 8000546:	d008      	beq.n	800055a <dwt_initialise+0xe6>
            pdw1000local->sleep_mode |= AON_WCFG_ONW_LLDO;
 8000548:	4b6e      	ldr	r3, [pc, #440]	; (8000704 <dwt_initialise+0x290>)
 800054a:	681b      	ldr	r3, [r3, #0]
 800054c:	8ada      	ldrh	r2, [r3, #22]
 800054e:	4b6d      	ldr	r3, [pc, #436]	; (8000704 <dwt_initialise+0x290>)
 8000550:	681b      	ldr	r3, [r3, #0]
 8000552:	f442 5280 	orr.w	r2, r2, #4096	; 0x1000
 8000556:	b292      	uxth	r2, r2
 8000558:	82da      	strh	r2, [r3, #22]
    }

    if((!(DWT_DW_WAKE_UP & config)) || ((DWT_DW_WAKE_UP & config) && (DWT_DW_WUP_RD_OTPREV & config)))
 800055a:	687b      	ldr	r3, [r7, #4]
 800055c:	f003 0302 	and.w	r3, r3, #2
 8000560:	2b00      	cmp	r3, #0
 8000562:	d009      	beq.n	8000578 <dwt_initialise+0x104>
 8000564:	687b      	ldr	r3, [r7, #4]
 8000566:	f003 0302 	and.w	r3, r3, #2
 800056a:	2b00      	cmp	r3, #0
 800056c:	d011      	beq.n	8000592 <dwt_initialise+0x11e>
 800056e:	687b      	ldr	r3, [r7, #4]
 8000570:	f003 0308 	and.w	r3, r3, #8
 8000574:	2b00      	cmp	r3, #0
 8000576:	d00c      	beq.n	8000592 <dwt_initialise+0x11e>
    {
        // Read OTP revision number
        otp_xtaltrim_and_rev = _dwt_otpread(XTRIM_ADDRESS) & 0xffff;        // Read 32 bit value, XTAL trim val is in low octet-0 (5 bits)
 8000578:	201e      	movs	r0, #30
 800057a:	f000 fbc8 	bl	8000d0e <_dwt_otpread>
 800057e:	4603      	mov	r3, r0
 8000580:	82fb      	strh	r3, [r7, #22]
        pdw1000local->otprev = (otp_xtaltrim_and_rev >> 8) & 0xff;          // OTP revision is the next byte
 8000582:	8afb      	ldrh	r3, [r7, #22]
 8000584:	0a1b      	lsrs	r3, r3, #8
 8000586:	b29a      	uxth	r2, r3
 8000588:	4b5e      	ldr	r3, [pc, #376]	; (8000704 <dwt_initialise+0x290>)
 800058a:	681b      	ldr	r3, [r3, #0]
 800058c:	b2d2      	uxtb	r2, r2
 800058e:	72da      	strb	r2, [r3, #11]
 8000590:	e003      	b.n	800059a <dwt_initialise+0x126>
    }
    else
        pdw1000local->otprev = 0; // If OTP valuse are not used, if this API is called after DW1000 IC has been woken up
 8000592:	4b5c      	ldr	r3, [pc, #368]	; (8000704 <dwt_initialise+0x290>)
 8000594:	681b      	ldr	r3, [r3, #0]
 8000596:	2200      	movs	r2, #0
 8000598:	72da      	strb	r2, [r3, #11]
                                  // (DWT_DW_WAKE_UP bit is set), set otprev to 0

    if(!(DWT_DW_WAKE_UP & config))
 800059a:	687b      	ldr	r3, [r7, #4]
 800059c:	f003 0302 	and.w	r3, r3, #2
 80005a0:	2b00      	cmp	r3, #0
 80005a2:	d10b      	bne.n	80005bc <dwt_initialise+0x148>
    {
        // XTAL trim value is set in OTP for DW1000 module and EVK/TREK boards but that might not be the case in a custom design
        if ((otp_xtaltrim_and_rev & 0x1F) == 0) // A value of 0 means that the crystal has not been trimmed
 80005a4:	8afb      	ldrh	r3, [r7, #22]
 80005a6:	f003 031f 	and.w	r3, r3, #31
 80005aa:	2b00      	cmp	r3, #0
 80005ac:	d101      	bne.n	80005b2 <dwt_initialise+0x13e>
        {
            otp_xtaltrim_and_rev = FS_XTALT_MIDRANGE ; // Set to mid-range if no calibration value inside
 80005ae:	2310      	movs	r3, #16
 80005b0:	82fb      	strh	r3, [r7, #22]
        }
        // Configure XTAL trim
        dwt_setxtaltrim((uint8)otp_xtaltrim_and_rev);
 80005b2:	8afb      	ldrh	r3, [r7, #22]
 80005b4:	b2db      	uxtb	r3, r3
 80005b6:	4618      	mov	r0, r3
 80005b8:	f000 fd24 	bl	8001004 <dwt_setxtaltrim>
    }

    if(DWT_READ_OTP_PID & config)
 80005bc:	687b      	ldr	r3, [r7, #4]
 80005be:	f003 0310 	and.w	r3, r3, #16
 80005c2:	2b00      	cmp	r3, #0
 80005c4:	d007      	beq.n	80005d6 <dwt_initialise+0x162>
    {
        // Load Part from OTP
        pdw1000local->partID = _dwt_otpread(PARTID_ADDRESS);
 80005c6:	4b4f      	ldr	r3, [pc, #316]	; (8000704 <dwt_initialise+0x290>)
 80005c8:	681c      	ldr	r4, [r3, #0]
 80005ca:	2006      	movs	r0, #6
 80005cc:	f000 fb9f 	bl	8000d0e <_dwt_otpread>
 80005d0:	4603      	mov	r3, r0
 80005d2:	6023      	str	r3, [r4, #0]
 80005d4:	e003      	b.n	80005de <dwt_initialise+0x16a>
    }
    else
    {
        pdw1000local->partID = 0;
 80005d6:	4b4b      	ldr	r3, [pc, #300]	; (8000704 <dwt_initialise+0x290>)
 80005d8:	681b      	ldr	r3, [r3, #0]
 80005da:	2200      	movs	r2, #0
 80005dc:	601a      	str	r2, [r3, #0]
    }

    if(DWT_READ_OTP_LID & config)
 80005de:	687b      	ldr	r3, [r7, #4]
 80005e0:	f003 0320 	and.w	r3, r3, #32
 80005e4:	2b00      	cmp	r3, #0
 80005e6:	d007      	beq.n	80005f8 <dwt_initialise+0x184>
    {
        // Load Lot ID from OTP
        pdw1000local->lotID = _dwt_otpread(LOTID_ADDRESS);
 80005e8:	4b46      	ldr	r3, [pc, #280]	; (8000704 <dwt_initialise+0x290>)
 80005ea:	681c      	ldr	r4, [r3, #0]
 80005ec:	2007      	movs	r0, #7
 80005ee:	f000 fb8e 	bl	8000d0e <_dwt_otpread>
 80005f2:	4603      	mov	r3, r0
 80005f4:	6063      	str	r3, [r4, #4]
 80005f6:	e003      	b.n	8000600 <dwt_initialise+0x18c>
    }
    else
    {
        pdw1000local->lotID = 0;
 80005f8:	4b42      	ldr	r3, [pc, #264]	; (8000704 <dwt_initialise+0x290>)
 80005fa:	681b      	ldr	r3, [r3, #0]
 80005fc:	2200      	movs	r2, #0
 80005fe:	605a      	str	r2, [r3, #4]
    }

    if(DWT_READ_OTP_BAT & config)
 8000600:	687b      	ldr	r3, [r7, #4]
 8000602:	f003 0340 	and.w	r3, r3, #64	; 0x40
 8000606:	2b00      	cmp	r3, #0
 8000608:	d008      	beq.n	800061c <dwt_initialise+0x1a8>
    {
        // Load VBAT from OTP
        pdw1000local->vBatP = _dwt_otpread(VBAT_ADDRESS) & 0xff;
 800060a:	2008      	movs	r0, #8
 800060c:	f000 fb7f 	bl	8000d0e <_dwt_otpread>
 8000610:	4602      	mov	r2, r0
 8000612:	4b3c      	ldr	r3, [pc, #240]	; (8000704 <dwt_initialise+0x290>)
 8000614:	681b      	ldr	r3, [r3, #0]
 8000616:	b2d2      	uxtb	r2, r2
 8000618:	721a      	strb	r2, [r3, #8]
 800061a:	e003      	b.n	8000624 <dwt_initialise+0x1b0>
    }
    else
    {
        pdw1000local->vBatP = 0;
 800061c:	4b39      	ldr	r3, [pc, #228]	; (8000704 <dwt_initialise+0x290>)
 800061e:	681b      	ldr	r3, [r3, #0]
 8000620:	2200      	movs	r2, #0
 8000622:	721a      	strb	r2, [r3, #8]
    }

    if(DWT_READ_OTP_TMP & config)
 8000624:	687b      	ldr	r3, [r7, #4]
 8000626:	f003 0380 	and.w	r3, r3, #128	; 0x80
 800062a:	2b00      	cmp	r3, #0
 800062c:	d008      	beq.n	8000640 <dwt_initialise+0x1cc>
    {
        // Load TEMP from OTP
        pdw1000local->tempP = _dwt_otpread(VTEMP_ADDRESS) & 0xff;
 800062e:	2009      	movs	r0, #9
 8000630:	f000 fb6d 	bl	8000d0e <_dwt_otpread>
 8000634:	4602      	mov	r2, r0
 8000636:	4b33      	ldr	r3, [pc, #204]	; (8000704 <dwt_initialise+0x290>)
 8000638:	681b      	ldr	r3, [r3, #0]
 800063a:	b2d2      	uxtb	r2, r2
 800063c:	725a      	strb	r2, [r3, #9]
 800063e:	e003      	b.n	8000648 <dwt_initialise+0x1d4>
    }
    else
    {
        pdw1000local->tempP = 0;
 8000640:	4b30      	ldr	r3, [pc, #192]	; (8000704 <dwt_initialise+0x290>)
 8000642:	681b      	ldr	r3, [r3, #0]
 8000644:	2200      	movs	r2, #0
 8000646:	725a      	strb	r2, [r3, #9]
    }

    // Load leading edge detect code (LDE/microcode)
    if(!(DWT_DW_WAKE_UP & config))
 8000648:	687b      	ldr	r3, [r7, #4]
 800064a:	f003 0302 	and.w	r3, r3, #2
 800064e:	2b00      	cmp	r3, #0
 8000650:	d121      	bne.n	8000696 <dwt_initialise+0x222>
    {
        if(DWT_LOADUCODE & config)
 8000652:	687b      	ldr	r3, [r7, #4]
 8000654:	f003 0301 	and.w	r3, r3, #1
 8000658:	2b00      	cmp	r3, #0
 800065a:	d00b      	beq.n	8000674 <dwt_initialise+0x200>
        {
            _dwt_loaducodefromrom();
 800065c:	f000 fba4 	bl	8000da8 <_dwt_loaducodefromrom>
            pdw1000local->sleep_mode |= AON_WCFG_ONW_LLDE; // microcode must be loaded at wake-up if loaded on initialisation
 8000660:	4b28      	ldr	r3, [pc, #160]	; (8000704 <dwt_initialise+0x290>)
 8000662:	681b      	ldr	r3, [r3, #0]
 8000664:	8ada      	ldrh	r2, [r3, #22]
 8000666:	4b27      	ldr	r3, [pc, #156]	; (8000704 <dwt_initialise+0x290>)
 8000668:	681b      	ldr	r3, [r3, #0]
 800066a:	f442 6200 	orr.w	r2, r2, #2048	; 0x800
 800066e:	b292      	uxth	r2, r2
 8000670:	82da      	strh	r2, [r3, #22]
 8000672:	e01e      	b.n	80006b2 <dwt_initialise+0x23e>
        }
        else // Should disable the LDERUN bit enable if LDE has not been loaded
        {
            uint16 rega = dwt_read16bitoffsetreg(PMSC_ID, PMSC_CTRL1_OFFSET+1) ;
 8000674:	2105      	movs	r1, #5
 8000676:	2036      	movs	r0, #54	; 0x36
 8000678:	f000 fad6 	bl	8000c28 <dwt_read16bitoffsetreg>
 800067c:	4603      	mov	r3, r0
 800067e:	81fb      	strh	r3, [r7, #14]
            rega &= 0xFDFF ; // Clear LDERUN bit
 8000680:	89fb      	ldrh	r3, [r7, #14]
 8000682:	f423 7300 	bic.w	r3, r3, #512	; 0x200
 8000686:	81fb      	strh	r3, [r7, #14]
            dwt_write16bitoffsetreg(PMSC_ID, PMSC_CTRL1_OFFSET+1, rega) ;
 8000688:	89fb      	ldrh	r3, [r7, #14]
 800068a:	461a      	mov	r2, r3
 800068c:	2105      	movs	r1, #5
 800068e:	2036      	movs	r0, #54	; 0x36
 8000690:	f000 fafa 	bl	8000c88 <dwt_write16bitoffsetreg>
 8000694:	e00d      	b.n	80006b2 <dwt_initialise+0x23e>
        }
    }
    else //if DWT_DW_WUP_NO_UCODE is set then assume that the UCODE was loaded from ROM (i.e. DWT_LOADUCODE was set on power up),
    {     //thus set AON_WCFG_ONW_LLDE, otherwise don't set the AON_WCFG_ONW_LLDE bit in the sleep_mode configuration
        if((DWT_DW_WUP_NO_UCODE & config) == 0)
 8000696:	687b      	ldr	r3, [r7, #4]
 8000698:	f003 0304 	and.w	r3, r3, #4
 800069c:	2b00      	cmp	r3, #0
 800069e:	d108      	bne.n	80006b2 <dwt_initialise+0x23e>
        {
            pdw1000local->sleep_mode |= AON_WCFG_ONW_LLDE;
 80006a0:	4b18      	ldr	r3, [pc, #96]	; (8000704 <dwt_initialise+0x290>)
 80006a2:	681b      	ldr	r3, [r3, #0]
 80006a4:	8ada      	ldrh	r2, [r3, #22]
 80006a6:	4b17      	ldr	r3, [pc, #92]	; (8000704 <dwt_initialise+0x290>)
 80006a8:	681b      	ldr	r3, [r3, #0]
 80006aa:	f442 6200 	orr.w	r2, r2, #2048	; 0x800
 80006ae:	b292      	uxth	r2, r2
 80006b0:	82da      	strh	r2, [r3, #22]
        }
    }

    _dwt_enableclocks(ENABLE_ALL_SEQ); // Enable clocks for sequencing
 80006b2:	2001      	movs	r0, #1
 80006b4:	f000 fb8c 	bl	8000dd0 <_dwt_enableclocks>

    // The 3 bits in AON CFG1 register must be cleared to ensure proper operation of the DW1000 in DEEPSLEEP mode.
    dwt_write8bitoffsetreg(AON_ID, AON_CFG1_OFFSET, 0x00);
 80006b8:	2200      	movs	r2, #0
 80006ba:	210a      	movs	r1, #10
 80006bc:	202c      	movs	r0, #44	; 0x2c
 80006be:	f000 fad0 	bl	8000c62 <dwt_write8bitoffsetreg>

    // Read system register / store local copy
    pdw1000local->sysCFGreg = dwt_read32bitreg(SYS_CFG_ID) ; // Read sysconfig register
 80006c2:	4b10      	ldr	r3, [pc, #64]	; (8000704 <dwt_initialise+0x290>)
 80006c4:	681c      	ldr	r4, [r3, #0]
 80006c6:	2100      	movs	r1, #0
 80006c8:	2004      	movs	r0, #4
 80006ca:	f000 fa86 	bl	8000bda <dwt_read32bitoffsetreg>
 80006ce:	4603      	mov	r3, r0
 80006d0:	6123      	str	r3, [r4, #16]
    pdw1000local->longFrames = (pdw1000local->sysCFGreg & SYS_CFG_PHR_MODE_11) >> SYS_CFG_PHR_MODE_SHFT ; //configure longFrames
 80006d2:	4b0c      	ldr	r3, [pc, #48]	; (8000704 <dwt_initialise+0x290>)
 80006d4:	681b      	ldr	r3, [r3, #0]
 80006d6:	691b      	ldr	r3, [r3, #16]
 80006d8:	0c1b      	lsrs	r3, r3, #16
 80006da:	b2da      	uxtb	r2, r3
 80006dc:	4b09      	ldr	r3, [pc, #36]	; (8000704 <dwt_initialise+0x290>)
 80006de:	681b      	ldr	r3, [r3, #0]
 80006e0:	f002 0203 	and.w	r2, r2, #3
 80006e4:	b2d2      	uxtb	r2, r2
 80006e6:	729a      	strb	r2, [r3, #10]

    pdw1000local->txFCTRL = dwt_read32bitreg(TX_FCTRL_ID) ;
 80006e8:	4b06      	ldr	r3, [pc, #24]	; (8000704 <dwt_initialise+0x290>)
 80006ea:	681c      	ldr	r4, [r3, #0]
 80006ec:	2100      	movs	r1, #0
 80006ee:	2008      	movs	r0, #8
 80006f0:	f000 fa73 	bl	8000bda <dwt_read32bitoffsetreg>
 80006f4:	4603      	mov	r3, r0
 80006f6:	60e3      	str	r3, [r4, #12]

    return DWT_SUCCESS ;
 80006f8:	2300      	movs	r3, #0

} // end dwt_initialise()
 80006fa:	4618      	mov	r0, r3
 80006fc:	371c      	adds	r7, #28
 80006fe:	46bd      	mov	sp, r7
 8000700:	bd90      	pop	{r4, r7, pc}
 8000702:	bf00      	nop
 8000704:	20000000 	.word	0x20000000
 8000708:	deca0130 	.word	0xdeca0130

0800070c <dwt_readdevid>:
 * output parameters
 *
 * returns the read value which for DW1000 is 0xDECA0130
 */
uint32 dwt_readdevid(void)
{
 800070c:	b580      	push	{r7, lr}
 800070e:	af00      	add	r7, sp, #0
    return dwt_read32bitoffsetreg(DEV_ID_ID,0);
 8000710:	2100      	movs	r1, #0
 8000712:	2000      	movs	r0, #0
 8000714:	f000 fa61 	bl	8000bda <dwt_read32bitoffsetreg>
 8000718:	4603      	mov	r3, r0
}
 800071a:	4618      	mov	r0, r3
 800071c:	bd80      	pop	{r7, pc}
	...

08000720 <dwt_configure>:
 * output parameters
 *
 * no return value
 */
void dwt_configure(dwt_config_t *config)
{
 8000720:	b580      	push	{r7, lr}
 8000722:	b086      	sub	sp, #24
 8000724:	af00      	add	r7, sp, #0
 8000726:	6078      	str	r0, [r7, #4]
    uint8 nsSfd_result  = 0;
 8000728:	2300      	movs	r3, #0
 800072a:	75fb      	strb	r3, [r7, #23]
    uint8 useDWnsSFD = 0;
 800072c:	2300      	movs	r3, #0
 800072e:	75bb      	strb	r3, [r7, #22]
    uint8 chan = config->chan ;
 8000730:	687b      	ldr	r3, [r7, #4]
 8000732:	781b      	ldrb	r3, [r3, #0]
 8000734:	74fb      	strb	r3, [r7, #19]
    uint32 regval ;
    uint16 reg16 = lde_replicaCoeff[config->rxCode];
 8000736:	687b      	ldr	r3, [r7, #4]
 8000738:	795b      	ldrb	r3, [r3, #5]
 800073a:	461a      	mov	r2, r3
 800073c:	4ba1      	ldr	r3, [pc, #644]	; (80009c4 <dwt_configure+0x2a4>)
 800073e:	f833 3012 	ldrh.w	r3, [r3, r2, lsl #1]
 8000742:	82bb      	strh	r3, [r7, #20]
    uint8 prfIndex = config->prf - DWT_PRF_16M;
 8000744:	687b      	ldr	r3, [r7, #4]
 8000746:	785b      	ldrb	r3, [r3, #1]
 8000748:	3b01      	subs	r3, #1
 800074a:	74bb      	strb	r3, [r7, #18]
    uint8 bw = ((chan == 4) || (chan == 7)) ? 1 : 0 ; // Select wide or narrow band
 800074c:	7cfb      	ldrb	r3, [r7, #19]
 800074e:	2b04      	cmp	r3, #4
 8000750:	d002      	beq.n	8000758 <dwt_configure+0x38>
 8000752:	7cfb      	ldrb	r3, [r7, #19]
 8000754:	2b07      	cmp	r3, #7
 8000756:	d101      	bne.n	800075c <dwt_configure+0x3c>
 8000758:	2301      	movs	r3, #1
 800075a:	e000      	b.n	800075e <dwt_configure+0x3e>
 800075c:	2300      	movs	r3, #0
 800075e:	747b      	strb	r3, [r7, #17]
           || (config->txPreambLength == DWT_PLEN_2048) || (config->txPreambLength == DWT_PLEN_4096));
    assert((config->phrMode == DWT_PHRMODE_STD) || (config->phrMode == DWT_PHRMODE_EXT));
#endif

    // For 110 kbps we need a special setup
    if(DWT_BR_110K == config->dataRate)
 8000760:	687b      	ldr	r3, [r7, #4]
 8000762:	79db      	ldrb	r3, [r3, #7]
 8000764:	2b00      	cmp	r3, #0
 8000766:	d10b      	bne.n	8000780 <dwt_configure+0x60>
    {
        pdw1000local->sysCFGreg |= SYS_CFG_RXM110K ;
 8000768:	4b97      	ldr	r3, [pc, #604]	; (80009c8 <dwt_configure+0x2a8>)
 800076a:	681b      	ldr	r3, [r3, #0]
 800076c:	691a      	ldr	r2, [r3, #16]
 800076e:	4b96      	ldr	r3, [pc, #600]	; (80009c8 <dwt_configure+0x2a8>)
 8000770:	681b      	ldr	r3, [r3, #0]
 8000772:	f442 0280 	orr.w	r2, r2, #4194304	; 0x400000
 8000776:	611a      	str	r2, [r3, #16]
        reg16 >>= 3; // lde_replicaCoeff must be divided by 8
 8000778:	8abb      	ldrh	r3, [r7, #20]
 800077a:	08db      	lsrs	r3, r3, #3
 800077c:	82bb      	strh	r3, [r7, #20]
 800077e:	e007      	b.n	8000790 <dwt_configure+0x70>
    }
    else
    {
        pdw1000local->sysCFGreg &= (~SYS_CFG_RXM110K) ;
 8000780:	4b91      	ldr	r3, [pc, #580]	; (80009c8 <dwt_configure+0x2a8>)
 8000782:	681b      	ldr	r3, [r3, #0]
 8000784:	691a      	ldr	r2, [r3, #16]
 8000786:	4b90      	ldr	r3, [pc, #576]	; (80009c8 <dwt_configure+0x2a8>)
 8000788:	681b      	ldr	r3, [r3, #0]
 800078a:	f422 0280 	bic.w	r2, r2, #4194304	; 0x400000
 800078e:	611a      	str	r2, [r3, #16]
    }

    pdw1000local->longFrames = config->phrMode ;
 8000790:	4b8d      	ldr	r3, [pc, #564]	; (80009c8 <dwt_configure+0x2a8>)
 8000792:	681b      	ldr	r3, [r3, #0]
 8000794:	687a      	ldr	r2, [r7, #4]
 8000796:	7a12      	ldrb	r2, [r2, #8]
 8000798:	729a      	strb	r2, [r3, #10]

    pdw1000local->sysCFGreg &= ~SYS_CFG_PHR_MODE_11;
 800079a:	4b8b      	ldr	r3, [pc, #556]	; (80009c8 <dwt_configure+0x2a8>)
 800079c:	681b      	ldr	r3, [r3, #0]
 800079e:	691a      	ldr	r2, [r3, #16]
 80007a0:	4b89      	ldr	r3, [pc, #548]	; (80009c8 <dwt_configure+0x2a8>)
 80007a2:	681b      	ldr	r3, [r3, #0]
 80007a4:	f422 3240 	bic.w	r2, r2, #196608	; 0x30000
 80007a8:	611a      	str	r2, [r3, #16]
    pdw1000local->sysCFGreg |= (SYS_CFG_PHR_MODE_11 & ((uint32)config->phrMode << SYS_CFG_PHR_MODE_SHFT));
 80007aa:	4b87      	ldr	r3, [pc, #540]	; (80009c8 <dwt_configure+0x2a8>)
 80007ac:	681b      	ldr	r3, [r3, #0]
 80007ae:	6919      	ldr	r1, [r3, #16]
 80007b0:	687b      	ldr	r3, [r7, #4]
 80007b2:	7a1b      	ldrb	r3, [r3, #8]
 80007b4:	041b      	lsls	r3, r3, #16
 80007b6:	f403 3240 	and.w	r2, r3, #196608	; 0x30000
 80007ba:	4b83      	ldr	r3, [pc, #524]	; (80009c8 <dwt_configure+0x2a8>)
 80007bc:	681b      	ldr	r3, [r3, #0]
 80007be:	430a      	orrs	r2, r1
 80007c0:	611a      	str	r2, [r3, #16]

    dwt_write32bitreg(SYS_CFG_ID,pdw1000local->sysCFGreg) ;
 80007c2:	4b81      	ldr	r3, [pc, #516]	; (80009c8 <dwt_configure+0x2a8>)
 80007c4:	681b      	ldr	r3, [r3, #0]
 80007c6:	691b      	ldr	r3, [r3, #16]
 80007c8:	461a      	mov	r2, r3
 80007ca:	2100      	movs	r1, #0
 80007cc:	2004      	movs	r0, #4
 80007ce:	f000 fa77 	bl	8000cc0 <dwt_write32bitoffsetreg>
    // Set the lde_replicaCoeff
    dwt_write16bitoffsetreg(LDE_IF_ID, LDE_REPC_OFFSET, reg16) ;
 80007d2:	8abb      	ldrh	r3, [r7, #20]
 80007d4:	461a      	mov	r2, r3
 80007d6:	f642 0104 	movw	r1, #10244	; 0x2804
 80007da:	202e      	movs	r0, #46	; 0x2e
 80007dc:	f000 fa54 	bl	8000c88 <dwt_write16bitoffsetreg>

    _dwt_configlde(prfIndex);
 80007e0:	7cbb      	ldrb	r3, [r7, #18]
 80007e2:	4618      	mov	r0, r3
 80007e4:	f000 fac0 	bl	8000d68 <_dwt_configlde>

    // Configure PLL2/RF PLL block CFG/TUNE (for a given channel)
    dwt_write32bitoffsetreg(FS_CTRL_ID, FS_PLLCFG_OFFSET, fs_pll_cfg[chan_idx[chan]]);
 80007e8:	7cfb      	ldrb	r3, [r7, #19]
 80007ea:	4a78      	ldr	r2, [pc, #480]	; (80009cc <dwt_configure+0x2ac>)
 80007ec:	5cd3      	ldrb	r3, [r2, r3]
 80007ee:	461a      	mov	r2, r3
 80007f0:	4b77      	ldr	r3, [pc, #476]	; (80009d0 <dwt_configure+0x2b0>)
 80007f2:	f853 3022 	ldr.w	r3, [r3, r2, lsl #2]
 80007f6:	461a      	mov	r2, r3
 80007f8:	2107      	movs	r1, #7
 80007fa:	202b      	movs	r0, #43	; 0x2b
 80007fc:	f000 fa60 	bl	8000cc0 <dwt_write32bitoffsetreg>
    dwt_write8bitoffsetreg(FS_CTRL_ID, FS_PLLTUNE_OFFSET, fs_pll_tune[chan_idx[chan]]);
 8000800:	7cfb      	ldrb	r3, [r7, #19]
 8000802:	4a72      	ldr	r2, [pc, #456]	; (80009cc <dwt_configure+0x2ac>)
 8000804:	5cd3      	ldrb	r3, [r2, r3]
 8000806:	461a      	mov	r2, r3
 8000808:	4b72      	ldr	r3, [pc, #456]	; (80009d4 <dwt_configure+0x2b4>)
 800080a:	5c9b      	ldrb	r3, [r3, r2]
 800080c:	461a      	mov	r2, r3
 800080e:	210b      	movs	r1, #11
 8000810:	202b      	movs	r0, #43	; 0x2b
 8000812:	f000 fa26 	bl	8000c62 <dwt_write8bitoffsetreg>

    // Configure RF RX blocks (for specified channel/bandwidth)
    dwt_write8bitoffsetreg(RF_CONF_ID, RF_RXCTRLH_OFFSET, rx_config[bw]);
 8000816:	7c7b      	ldrb	r3, [r7, #17]
 8000818:	4a6f      	ldr	r2, [pc, #444]	; (80009d8 <dwt_configure+0x2b8>)
 800081a:	5cd3      	ldrb	r3, [r2, r3]
 800081c:	461a      	mov	r2, r3
 800081e:	210b      	movs	r1, #11
 8000820:	2028      	movs	r0, #40	; 0x28
 8000822:	f000 fa1e 	bl	8000c62 <dwt_write8bitoffsetreg>

    // Configure RF TX blocks (for specified channel and PRF)
    // Configure RF TX control
    dwt_write32bitoffsetreg(RF_CONF_ID, RF_TXCTRL_OFFSET, tx_config[chan_idx[chan]]);
 8000826:	7cfb      	ldrb	r3, [r7, #19]
 8000828:	4a68      	ldr	r2, [pc, #416]	; (80009cc <dwt_configure+0x2ac>)
 800082a:	5cd3      	ldrb	r3, [r2, r3]
 800082c:	461a      	mov	r2, r3
 800082e:	4b6b      	ldr	r3, [pc, #428]	; (80009dc <dwt_configure+0x2bc>)
 8000830:	f853 3022 	ldr.w	r3, [r3, r2, lsl #2]
 8000834:	461a      	mov	r2, r3
 8000836:	210c      	movs	r1, #12
 8000838:	2028      	movs	r0, #40	; 0x28
 800083a:	f000 fa41 	bl	8000cc0 <dwt_write32bitoffsetreg>

    // Configure the baseband parameters (for specified PRF, bit rate, PAC, and SFD settings)
    // DTUNE0
    dwt_write16bitoffsetreg(DRX_CONF_ID, DRX_TUNE0b_OFFSET, sftsh[config->dataRate][config->nsSFD]);
 800083e:	687b      	ldr	r3, [r7, #4]
 8000840:	79db      	ldrb	r3, [r3, #7]
 8000842:	4618      	mov	r0, r3
 8000844:	687b      	ldr	r3, [r7, #4]
 8000846:	799b      	ldrb	r3, [r3, #6]
 8000848:	4619      	mov	r1, r3
 800084a:	4a65      	ldr	r2, [pc, #404]	; (80009e0 <dwt_configure+0x2c0>)
 800084c:	0043      	lsls	r3, r0, #1
 800084e:	440b      	add	r3, r1
 8000850:	f832 3013 	ldrh.w	r3, [r2, r3, lsl #1]
 8000854:	461a      	mov	r2, r3
 8000856:	2102      	movs	r1, #2
 8000858:	2027      	movs	r0, #39	; 0x27
 800085a:	f000 fa15 	bl	8000c88 <dwt_write16bitoffsetreg>

    // DTUNE1
    dwt_write16bitoffsetreg(DRX_CONF_ID, DRX_TUNE1a_OFFSET, dtune1[prfIndex]);
 800085e:	7cbb      	ldrb	r3, [r7, #18]
 8000860:	4a60      	ldr	r2, [pc, #384]	; (80009e4 <dwt_configure+0x2c4>)
 8000862:	f832 3013 	ldrh.w	r3, [r2, r3, lsl #1]
 8000866:	461a      	mov	r2, r3
 8000868:	2104      	movs	r1, #4
 800086a:	2027      	movs	r0, #39	; 0x27
 800086c:	f000 fa0c 	bl	8000c88 <dwt_write16bitoffsetreg>

    if(config->dataRate == DWT_BR_110K)
 8000870:	687b      	ldr	r3, [r7, #4]
 8000872:	79db      	ldrb	r3, [r3, #7]
 8000874:	2b00      	cmp	r3, #0
 8000876:	d105      	bne.n	8000884 <dwt_configure+0x164>
    {
        dwt_write16bitoffsetreg(DRX_CONF_ID, DRX_TUNE1b_OFFSET, DRX_TUNE1b_110K);
 8000878:	2264      	movs	r2, #100	; 0x64
 800087a:	2106      	movs	r1, #6
 800087c:	2027      	movs	r0, #39	; 0x27
 800087e:	f000 fa03 	bl	8000c88 <dwt_write16bitoffsetreg>
 8000882:	e018      	b.n	80008b6 <dwt_configure+0x196>
    }
    else
    {
        if(config->txPreambLength == DWT_PLEN_64)
 8000884:	687b      	ldr	r3, [r7, #4]
 8000886:	789b      	ldrb	r3, [r3, #2]
 8000888:	2b04      	cmp	r3, #4
 800088a:	d10a      	bne.n	80008a2 <dwt_configure+0x182>
        {
            dwt_write16bitoffsetreg(DRX_CONF_ID, DRX_TUNE1b_OFFSET, DRX_TUNE1b_6M8_PRE64);
 800088c:	2210      	movs	r2, #16
 800088e:	2106      	movs	r1, #6
 8000890:	2027      	movs	r0, #39	; 0x27
 8000892:	f000 f9f9 	bl	8000c88 <dwt_write16bitoffsetreg>
            dwt_write8bitoffsetreg(DRX_CONF_ID, DRX_TUNE4H_OFFSET, DRX_TUNE4H_PRE64);
 8000896:	2210      	movs	r2, #16
 8000898:	2126      	movs	r1, #38	; 0x26
 800089a:	2027      	movs	r0, #39	; 0x27
 800089c:	f000 f9e1 	bl	8000c62 <dwt_write8bitoffsetreg>
 80008a0:	e009      	b.n	80008b6 <dwt_configure+0x196>
        }
        else
        {
            dwt_write16bitoffsetreg(DRX_CONF_ID, DRX_TUNE1b_OFFSET, DRX_TUNE1b_850K_6M8);
 80008a2:	2220      	movs	r2, #32
 80008a4:	2106      	movs	r1, #6
 80008a6:	2027      	movs	r0, #39	; 0x27
 80008a8:	f000 f9ee 	bl	8000c88 <dwt_write16bitoffsetreg>
            dwt_write8bitoffsetreg(DRX_CONF_ID, DRX_TUNE4H_OFFSET, DRX_TUNE4H_PRE128PLUS);
 80008ac:	2228      	movs	r2, #40	; 0x28
 80008ae:	2126      	movs	r1, #38	; 0x26
 80008b0:	2027      	movs	r0, #39	; 0x27
 80008b2:	f000 f9d6 	bl	8000c62 <dwt_write8bitoffsetreg>
        }
    }

    // DTUNE2
    dwt_write32bitoffsetreg(DRX_CONF_ID, DRX_TUNE2_OFFSET, digital_bb_config[prfIndex][config->rxPAC]);
 80008b6:	7cbb      	ldrb	r3, [r7, #18]
 80008b8:	687a      	ldr	r2, [r7, #4]
 80008ba:	78d2      	ldrb	r2, [r2, #3]
 80008bc:	4611      	mov	r1, r2
 80008be:	4a4a      	ldr	r2, [pc, #296]	; (80009e8 <dwt_configure+0x2c8>)
 80008c0:	009b      	lsls	r3, r3, #2
 80008c2:	440b      	add	r3, r1
 80008c4:	f852 3023 	ldr.w	r3, [r2, r3, lsl #2]
 80008c8:	461a      	mov	r2, r3
 80008ca:	2108      	movs	r1, #8
 80008cc:	2027      	movs	r0, #39	; 0x27
 80008ce:	f000 f9f7 	bl	8000cc0 <dwt_write32bitoffsetreg>

    // DTUNE3 (SFD timeout)
    // Don't allow 0 - SFD timeout will always be enabled
    if(config->sfdTO == 0)
 80008d2:	687b      	ldr	r3, [r7, #4]
 80008d4:	895b      	ldrh	r3, [r3, #10]
 80008d6:	2b00      	cmp	r3, #0
 80008d8:	d103      	bne.n	80008e2 <dwt_configure+0x1c2>
    {
        config->sfdTO = DWT_SFDTOC_DEF;
 80008da:	687b      	ldr	r3, [r7, #4]
 80008dc:	f241 0241 	movw	r2, #4161	; 0x1041
 80008e0:	815a      	strh	r2, [r3, #10]
    }
    dwt_write16bitoffsetreg(DRX_CONF_ID, DRX_SFDTOC_OFFSET, config->sfdTO);
 80008e2:	687b      	ldr	r3, [r7, #4]
 80008e4:	895b      	ldrh	r3, [r3, #10]
 80008e6:	461a      	mov	r2, r3
 80008e8:	2120      	movs	r1, #32
 80008ea:	2027      	movs	r0, #39	; 0x27
 80008ec:	f000 f9cc 	bl	8000c88 <dwt_write16bitoffsetreg>

    // Configure AGC parameters
    dwt_write32bitoffsetreg( AGC_CFG_STS_ID, 0xC, agc_config.lo32);
 80008f0:	4b3e      	ldr	r3, [pc, #248]	; (80009ec <dwt_configure+0x2cc>)
 80008f2:	681b      	ldr	r3, [r3, #0]
 80008f4:	461a      	mov	r2, r3
 80008f6:	210c      	movs	r1, #12
 80008f8:	2023      	movs	r0, #35	; 0x23
 80008fa:	f000 f9e1 	bl	8000cc0 <dwt_write32bitoffsetreg>
    dwt_write16bitoffsetreg( AGC_CFG_STS_ID, 0x4, agc_config.target[prfIndex]);
 80008fe:	7cbb      	ldrb	r3, [r7, #18]
 8000900:	4a3a      	ldr	r2, [pc, #232]	; (80009ec <dwt_configure+0x2cc>)
 8000902:	005b      	lsls	r3, r3, #1
 8000904:	4413      	add	r3, r2
 8000906:	889b      	ldrh	r3, [r3, #4]
 8000908:	461a      	mov	r2, r3
 800090a:	2104      	movs	r1, #4
 800090c:	2023      	movs	r0, #35	; 0x23
 800090e:	f000 f9bb 	bl	8000c88 <dwt_write16bitoffsetreg>

    // Set (non-standard) user SFD for improved performance,
    if(config->nsSFD)
 8000912:	687b      	ldr	r3, [r7, #4]
 8000914:	799b      	ldrb	r3, [r3, #6]
 8000916:	2b00      	cmp	r3, #0
 8000918:	d00d      	beq.n	8000936 <dwt_configure+0x216>
    {
        // Write non standard (DW) SFD length
        dwt_write8bitoffsetreg(USR_SFD_ID, 0x00, dwnsSFDlen[config->dataRate]);
 800091a:	687b      	ldr	r3, [r7, #4]
 800091c:	79db      	ldrb	r3, [r3, #7]
 800091e:	461a      	mov	r2, r3
 8000920:	4b33      	ldr	r3, [pc, #204]	; (80009f0 <dwt_configure+0x2d0>)
 8000922:	5c9b      	ldrb	r3, [r3, r2]
 8000924:	461a      	mov	r2, r3
 8000926:	2100      	movs	r1, #0
 8000928:	2021      	movs	r0, #33	; 0x21
 800092a:	f000 f99a 	bl	8000c62 <dwt_write8bitoffsetreg>
        nsSfd_result = 3 ;
 800092e:	2303      	movs	r3, #3
 8000930:	75fb      	strb	r3, [r7, #23]
        useDWnsSFD = 1 ;
 8000932:	2301      	movs	r3, #1
 8000934:	75bb      	strb	r3, [r7, #22]
    }
    regval =  (CHAN_CTRL_TX_CHAN_MASK & (chan << CHAN_CTRL_TX_CHAN_SHIFT)) | // Transmit Channel
 8000936:	7cfb      	ldrb	r3, [r7, #19]
 8000938:	f003 020f 	and.w	r2, r3, #15
              (CHAN_CTRL_RX_CHAN_MASK & (chan << CHAN_CTRL_RX_CHAN_SHIFT)) | // Receive Channel
 800093c:	7cfb      	ldrb	r3, [r7, #19]
 800093e:	011b      	lsls	r3, r3, #4
 8000940:	b2db      	uxtb	r3, r3
    regval =  (CHAN_CTRL_TX_CHAN_MASK & (chan << CHAN_CTRL_TX_CHAN_SHIFT)) | // Transmit Channel
 8000942:	431a      	orrs	r2, r3
              (CHAN_CTRL_RXFPRF_MASK & ((uint32)config->prf << CHAN_CTRL_RXFPRF_SHIFT)) | // RX PRF
 8000944:	687b      	ldr	r3, [r7, #4]
 8000946:	785b      	ldrb	r3, [r3, #1]
 8000948:	049b      	lsls	r3, r3, #18
 800094a:	f403 2340 	and.w	r3, r3, #786432	; 0xc0000
              (CHAN_CTRL_RX_CHAN_MASK & (chan << CHAN_CTRL_RX_CHAN_SHIFT)) | // Receive Channel
 800094e:	431a      	orrs	r2, r3
              ((CHAN_CTRL_TNSSFD|CHAN_CTRL_RNSSFD) & ((uint32)nsSfd_result << CHAN_CTRL_TNSSFD_SHIFT)) | // nsSFD enable RX&TX
 8000950:	7dfb      	ldrb	r3, [r7, #23]
 8000952:	051b      	lsls	r3, r3, #20
 8000954:	f403 1340 	and.w	r3, r3, #3145728	; 0x300000
              (CHAN_CTRL_RXFPRF_MASK & ((uint32)config->prf << CHAN_CTRL_RXFPRF_SHIFT)) | // RX PRF
 8000958:	431a      	orrs	r2, r3
              (CHAN_CTRL_DWSFD & ((uint32)useDWnsSFD << CHAN_CTRL_DWSFD_SHIFT)) | // Use DW nsSFD
 800095a:	7dbb      	ldrb	r3, [r7, #22]
 800095c:	045b      	lsls	r3, r3, #17
 800095e:	f403 3300 	and.w	r3, r3, #131072	; 0x20000
              ((CHAN_CTRL_TNSSFD|CHAN_CTRL_RNSSFD) & ((uint32)nsSfd_result << CHAN_CTRL_TNSSFD_SHIFT)) | // nsSFD enable RX&TX
 8000962:	431a      	orrs	r2, r3
              (CHAN_CTRL_TX_PCOD_MASK & ((uint32)config->txCode << CHAN_CTRL_TX_PCOD_SHIFT)) | // TX Preamble Code
 8000964:	687b      	ldr	r3, [r7, #4]
 8000966:	791b      	ldrb	r3, [r3, #4]
 8000968:	059b      	lsls	r3, r3, #22
 800096a:	f003 63f8 	and.w	r3, r3, #130023424	; 0x7c00000
              (CHAN_CTRL_DWSFD & ((uint32)useDWnsSFD << CHAN_CTRL_DWSFD_SHIFT)) | // Use DW nsSFD
 800096e:	431a      	orrs	r2, r3
              (CHAN_CTRL_RX_PCOD_MASK & ((uint32)config->rxCode << CHAN_CTRL_RX_PCOD_SHIFT)) ; // RX Preamble Code
 8000970:	687b      	ldr	r3, [r7, #4]
 8000972:	795b      	ldrb	r3, [r3, #5]
 8000974:	06db      	lsls	r3, r3, #27
    regval =  (CHAN_CTRL_TX_CHAN_MASK & (chan << CHAN_CTRL_TX_CHAN_SHIFT)) | // Transmit Channel
 8000976:	4313      	orrs	r3, r2
 8000978:	60fb      	str	r3, [r7, #12]

    dwt_write32bitreg(CHAN_CTRL_ID,regval) ;
 800097a:	68fa      	ldr	r2, [r7, #12]
 800097c:	2100      	movs	r1, #0
 800097e:	201f      	movs	r0, #31
 8000980:	f000 f99e 	bl	8000cc0 <dwt_write32bitoffsetreg>

    // Set up TX Preamble Size, PRF and Data Rate
    pdw1000local->txFCTRL = ((uint32)(config->txPreambLength | config->prf) << TX_FCTRL_TXPRF_SHFT) | ((uint32)config->dataRate << TX_FCTRL_TXBR_SHFT);
 8000984:	687b      	ldr	r3, [r7, #4]
 8000986:	789a      	ldrb	r2, [r3, #2]
 8000988:	687b      	ldr	r3, [r7, #4]
 800098a:	785b      	ldrb	r3, [r3, #1]
 800098c:	4313      	orrs	r3, r2
 800098e:	b2db      	uxtb	r3, r3
 8000990:	0419      	lsls	r1, r3, #16
 8000992:	687b      	ldr	r3, [r7, #4]
 8000994:	79db      	ldrb	r3, [r3, #7]
 8000996:	035a      	lsls	r2, r3, #13
 8000998:	4b0b      	ldr	r3, [pc, #44]	; (80009c8 <dwt_configure+0x2a8>)
 800099a:	681b      	ldr	r3, [r3, #0]
 800099c:	430a      	orrs	r2, r1
 800099e:	60da      	str	r2, [r3, #12]
    dwt_write32bitreg(TX_FCTRL_ID, pdw1000local->txFCTRL);
 80009a0:	4b09      	ldr	r3, [pc, #36]	; (80009c8 <dwt_configure+0x2a8>)
 80009a2:	681b      	ldr	r3, [r3, #0]
 80009a4:	68db      	ldr	r3, [r3, #12]
 80009a6:	461a      	mov	r2, r3
 80009a8:	2100      	movs	r1, #0
 80009aa:	2008      	movs	r0, #8
 80009ac:	f000 f988 	bl	8000cc0 <dwt_write32bitoffsetreg>

    // The SFD transmit pattern is initialised by the DW1000 upon a user TX request, but (due to an IC issue) it is not done for an auto-ACK TX. The
    // SYS_CTRL write below works around this issue, by simultaneously initiating and aborting a transmission, which correctly initialises the SFD
    // after its configuration or reconfiguration.
    // This issue is not documented at the time of writing this code. It should be in next release of DW1000 User Manual (v2.09, from July 2016).
    dwt_write8bitoffsetreg(SYS_CTRL_ID, SYS_CTRL_OFFSET, SYS_CTRL_TXSTRT | SYS_CTRL_TRXOFF); // Request TX start and TRX off at the same time
 80009b0:	2242      	movs	r2, #66	; 0x42
 80009b2:	2100      	movs	r1, #0
 80009b4:	200d      	movs	r0, #13
 80009b6:	f000 f954 	bl	8000c62 <dwt_write8bitoffsetreg>
} // end dwt_configure()
 80009ba:	bf00      	nop
 80009bc:	3718      	adds	r7, #24
 80009be:	46bd      	mov	sp, r7
 80009c0:	bd80      	pop	{r7, pc}
 80009c2:	bf00      	nop
 80009c4:	08006400 	.word	0x08006400
 80009c8:	20000000 	.word	0x20000000
 80009cc:	08006380 	.word	0x08006380
 80009d0:	080063a0 	.word	0x080063a0
 80009d4:	080063b8 	.word	0x080063b8
 80009d8:	080063c0 	.word	0x080063c0
 80009dc:	08006388 	.word	0x08006388
 80009e0:	080063d0 	.word	0x080063d0
 80009e4:	080063dc 	.word	0x080063dc
 80009e8:	080063e0 	.word	0x080063e0
 80009ec:	080063c4 	.word	0x080063c4
 80009f0:	080063cc 	.word	0x080063cc

080009f4 <dwt_writetxdata>:
 * output parameters
 *
 * returns DWT_SUCCESS for success, or DWT_ERROR for error
 */
int dwt_writetxdata(uint16 txFrameLength, uint8 *txFrameBytes, uint16 txBufferOffset)
{
 80009f4:	b580      	push	{r7, lr}
 80009f6:	b082      	sub	sp, #8
 80009f8:	af00      	add	r7, sp, #0
 80009fa:	4603      	mov	r3, r0
 80009fc:	6039      	str	r1, [r7, #0]
 80009fe:	80fb      	strh	r3, [r7, #6]
 8000a00:	4613      	mov	r3, r2
 8000a02:	80bb      	strh	r3, [r7, #4]
    assert(txFrameLength >= 2);
    assert((pdw1000local->longFrames && (txFrameLength <= 1023)) || (txFrameLength <= 127));
    assert((txBufferOffset + txFrameLength) <= 1024);
#endif

    if ((txBufferOffset + txFrameLength) <= 1024)
 8000a04:	88ba      	ldrh	r2, [r7, #4]
 8000a06:	88fb      	ldrh	r3, [r7, #6]
 8000a08:	4413      	add	r3, r2
 8000a0a:	f5b3 6f80 	cmp.w	r3, #1024	; 0x400
 8000a0e:	dc09      	bgt.n	8000a24 <dwt_writetxdata+0x30>
    {
        // Write the data to the IC TX buffer, (-2 bytes for auto generated CRC)
        dwt_writetodevice( TX_BUFFER_ID, txBufferOffset, txFrameLength-2, txFrameBytes);
 8000a10:	88fb      	ldrh	r3, [r7, #6]
 8000a12:	3b02      	subs	r3, #2
 8000a14:	461a      	mov	r2, r3
 8000a16:	88b9      	ldrh	r1, [r7, #4]
 8000a18:	683b      	ldr	r3, [r7, #0]
 8000a1a:	2009      	movs	r0, #9
 8000a1c:	f000 f828 	bl	8000a70 <dwt_writetodevice>
        return DWT_SUCCESS;
 8000a20:	2300      	movs	r3, #0
 8000a22:	e001      	b.n	8000a28 <dwt_writetxdata+0x34>
    }
    else
    {
        return DWT_ERROR;
 8000a24:	f04f 33ff 	mov.w	r3, #4294967295
    }
} // end dwt_writetxdata()
 8000a28:	4618      	mov	r0, r3
 8000a2a:	3708      	adds	r7, #8
 8000a2c:	46bd      	mov	sp, r7
 8000a2e:	bd80      	pop	{r7, pc}

08000a30 <dwt_writetxfctrl>:
 * output parameters
 *
 * no return value
 */
void dwt_writetxfctrl(uint16 txFrameLength, uint16 txBufferOffset, int ranging)
{
 8000a30:	b580      	push	{r7, lr}
 8000a32:	b084      	sub	sp, #16
 8000a34:	af00      	add	r7, sp, #0
 8000a36:	4603      	mov	r3, r0
 8000a38:	603a      	str	r2, [r7, #0]
 8000a3a:	80fb      	strh	r3, [r7, #6]
 8000a3c:	460b      	mov	r3, r1
 8000a3e:	80bb      	strh	r3, [r7, #4]
    assert((ranging == 0) || (ranging == 1))
#endif

    // Write the frame length to the TX frame control register
    // pdw1000local->txFCTRL has kept configured bit rate information
    uint32 reg32 = pdw1000local->txFCTRL | txFrameLength | ((uint32)txBufferOffset << TX_FCTRL_TXBOFFS_SHFT) | ((uint32)ranging << TX_FCTRL_TR_SHFT);
 8000a40:	4b0a      	ldr	r3, [pc, #40]	; (8000a6c <dwt_writetxfctrl+0x3c>)
 8000a42:	681b      	ldr	r3, [r3, #0]
 8000a44:	68da      	ldr	r2, [r3, #12]
 8000a46:	88fb      	ldrh	r3, [r7, #6]
 8000a48:	431a      	orrs	r2, r3
 8000a4a:	88bb      	ldrh	r3, [r7, #4]
 8000a4c:	059b      	lsls	r3, r3, #22
 8000a4e:	431a      	orrs	r2, r3
 8000a50:	683b      	ldr	r3, [r7, #0]
 8000a52:	03db      	lsls	r3, r3, #15
 8000a54:	4313      	orrs	r3, r2
 8000a56:	60fb      	str	r3, [r7, #12]
    dwt_write32bitreg(TX_FCTRL_ID, reg32);
 8000a58:	68fa      	ldr	r2, [r7, #12]
 8000a5a:	2100      	movs	r1, #0
 8000a5c:	2008      	movs	r0, #8
 8000a5e:	f000 f92f 	bl	8000cc0 <dwt_write32bitoffsetreg>
} // end dwt_writetxfctrl()
 8000a62:	bf00      	nop
 8000a64:	3710      	adds	r7, #16
 8000a66:	46bd      	mov	sp, r7
 8000a68:	bd80      	pop	{r7, pc}
 8000a6a:	bf00      	nop
 8000a6c:	20000000 	.word	0x20000000

08000a70 <dwt_writetodevice>:
    uint16  recordNumber,
    uint16  index,
    uint32        length,
    const uint8   *buffer
)
{
 8000a70:	b580      	push	{r7, lr}
 8000a72:	b086      	sub	sp, #24
 8000a74:	af00      	add	r7, sp, #0
 8000a76:	60ba      	str	r2, [r7, #8]
 8000a78:	607b      	str	r3, [r7, #4]
 8000a7a:	4603      	mov	r3, r0
 8000a7c:	81fb      	strh	r3, [r7, #14]
 8000a7e:	460b      	mov	r3, r1
 8000a80:	81bb      	strh	r3, [r7, #12]
    uint8 header[3] ; // Buffer to compose header in
    int   cnt = 0; // Counter for length of header
 8000a82:	2300      	movs	r3, #0
 8000a84:	617b      	str	r3, [r7, #20]
#ifdef DWT_API_ERROR_CHECK
    assert(recordNumber <= 0x3F); // Record number is limited to 6-bits.
#endif

    // Write message header selecting WRITE operation and addresses as appropriate (this is one to three bytes long)
    if (index == 0) // For index of 0, no sub-index is required
 8000a86:	89bb      	ldrh	r3, [r7, #12]
 8000a88:	2b00      	cmp	r3, #0
 8000a8a:	d10d      	bne.n	8000aa8 <dwt_writetodevice+0x38>
    {
        header[cnt++] = 0x80 | recordNumber ; // Bit-7 is WRITE operation, bit-6 zero=NO sub-addressing, bits 5-0 is reg file id
 8000a8c:	89fb      	ldrh	r3, [r7, #14]
 8000a8e:	b2da      	uxtb	r2, r3
 8000a90:	697b      	ldr	r3, [r7, #20]
 8000a92:	1c59      	adds	r1, r3, #1
 8000a94:	6179      	str	r1, [r7, #20]
 8000a96:	f062 027f 	orn	r2, r2, #127	; 0x7f
 8000a9a:	b2d2      	uxtb	r2, r2
 8000a9c:	f107 0118 	add.w	r1, r7, #24
 8000aa0:	440b      	add	r3, r1
 8000aa2:	f803 2c08 	strb.w	r2, [r3, #-8]
 8000aa6:	e033      	b.n	8000b10 <dwt_writetodevice+0xa0>
    else
    {
#ifdef DWT_API_ERROR_CHECK
        assert((index <= 0x7FFF) && ((index + length) <= 0x7FFF)); // Index and sub-addressable area are limited to 15-bits.
#endif
        header[cnt++] = 0xC0 | recordNumber ; // Bit-7 is WRITE operation, bit-6 one=sub-address follows, bits 5-0 is reg file id
 8000aa8:	89fb      	ldrh	r3, [r7, #14]
 8000aaa:	b2da      	uxtb	r2, r3
 8000aac:	697b      	ldr	r3, [r7, #20]
 8000aae:	1c59      	adds	r1, r3, #1
 8000ab0:	6179      	str	r1, [r7, #20]
 8000ab2:	f062 023f 	orn	r2, r2, #63	; 0x3f
 8000ab6:	b2d2      	uxtb	r2, r2
 8000ab8:	f107 0118 	add.w	r1, r7, #24
 8000abc:	440b      	add	r3, r1
 8000abe:	f803 2c08 	strb.w	r2, [r3, #-8]

        if (index <= 127) // For non-zero index < 127, just a single sub-index byte is required
 8000ac2:	89bb      	ldrh	r3, [r7, #12]
 8000ac4:	2b7f      	cmp	r3, #127	; 0x7f
 8000ac6:	d80a      	bhi.n	8000ade <dwt_writetodevice+0x6e>
        {
            header[cnt++] = (uint8)index ; // Bit-7 zero means no extension, bits 6-0 is index.
 8000ac8:	697b      	ldr	r3, [r7, #20]
 8000aca:	1c5a      	adds	r2, r3, #1
 8000acc:	617a      	str	r2, [r7, #20]
 8000ace:	89ba      	ldrh	r2, [r7, #12]
 8000ad0:	b2d2      	uxtb	r2, r2
 8000ad2:	f107 0118 	add.w	r1, r7, #24
 8000ad6:	440b      	add	r3, r1
 8000ad8:	f803 2c08 	strb.w	r2, [r3, #-8]
 8000adc:	e018      	b.n	8000b10 <dwt_writetodevice+0xa0>
        }
        else
        {
            header[cnt++] = 0x80 | (uint8)(index) ; // Bit-7 one means extended index, bits 6-0 is low seven bits of index.
 8000ade:	89bb      	ldrh	r3, [r7, #12]
 8000ae0:	b2da      	uxtb	r2, r3
 8000ae2:	697b      	ldr	r3, [r7, #20]
 8000ae4:	1c59      	adds	r1, r3, #1
 8000ae6:	6179      	str	r1, [r7, #20]
 8000ae8:	f062 027f 	orn	r2, r2, #127	; 0x7f
 8000aec:	b2d2      	uxtb	r2, r2
 8000aee:	f107 0118 	add.w	r1, r7, #24
 8000af2:	440b      	add	r3, r1
 8000af4:	f803 2c08 	strb.w	r2, [r3, #-8]
            header[cnt++] =  (uint8) (index >> 7) ; // 8-bit value = high eight bits of index.
 8000af8:	89bb      	ldrh	r3, [r7, #12]
 8000afa:	09db      	lsrs	r3, r3, #7
 8000afc:	b299      	uxth	r1, r3
 8000afe:	697b      	ldr	r3, [r7, #20]
 8000b00:	1c5a      	adds	r2, r3, #1
 8000b02:	617a      	str	r2, [r7, #20]
 8000b04:	b2ca      	uxtb	r2, r1
 8000b06:	f107 0118 	add.w	r1, r7, #24
 8000b0a:	440b      	add	r3, r1
 8000b0c:	f803 2c08 	strb.w	r2, [r3, #-8]
        }
    }

    // Write it to the SPI
    writetospi(cnt,header,length,buffer);
 8000b10:	697b      	ldr	r3, [r7, #20]
 8000b12:	b298      	uxth	r0, r3
 8000b14:	f107 0110 	add.w	r1, r7, #16
 8000b18:	687b      	ldr	r3, [r7, #4]
 8000b1a:	68ba      	ldr	r2, [r7, #8]
 8000b1c:	f000 fab4 	bl	8001088 <writetospi>
} // end dwt_writetodevice()
 8000b20:	bf00      	nop
 8000b22:	3718      	adds	r7, #24
 8000b24:	46bd      	mov	sp, r7
 8000b26:	bd80      	pop	{r7, pc}

08000b28 <dwt_readfromdevice>:
    uint16  recordNumber,
    uint16  index,
    uint32        length,
    uint8         *buffer
)
{
 8000b28:	b580      	push	{r7, lr}
 8000b2a:	b086      	sub	sp, #24
 8000b2c:	af00      	add	r7, sp, #0
 8000b2e:	60ba      	str	r2, [r7, #8]
 8000b30:	607b      	str	r3, [r7, #4]
 8000b32:	4603      	mov	r3, r0
 8000b34:	81fb      	strh	r3, [r7, #14]
 8000b36:	460b      	mov	r3, r1
 8000b38:	81bb      	strh	r3, [r7, #12]
    uint8 header[3] ; // Buffer to compose header in
    int   cnt = 0; // Counter for length of header
 8000b3a:	2300      	movs	r3, #0
 8000b3c:	617b      	str	r3, [r7, #20]
#ifdef DWT_API_ERROR_CHECK
    assert(recordNumber <= 0x3F); // Record number is limited to 6-bits.
#endif

    // Write message header selecting READ operation and addresses as appropriate (this is one to three bytes long)
    if (index == 0) // For index of 0, no sub-index is required
 8000b3e:	89bb      	ldrh	r3, [r7, #12]
 8000b40:	2b00      	cmp	r3, #0
 8000b42:	d10a      	bne.n	8000b5a <dwt_readfromdevice+0x32>
    {
        header[cnt++] = (uint8) recordNumber ; // Bit-7 zero is READ operation, bit-6 zero=NO sub-addressing, bits 5-0 is reg file id
 8000b44:	697b      	ldr	r3, [r7, #20]
 8000b46:	1c5a      	adds	r2, r3, #1
 8000b48:	617a      	str	r2, [r7, #20]
 8000b4a:	89fa      	ldrh	r2, [r7, #14]
 8000b4c:	b2d2      	uxtb	r2, r2
 8000b4e:	f107 0118 	add.w	r1, r7, #24
 8000b52:	440b      	add	r3, r1
 8000b54:	f803 2c08 	strb.w	r2, [r3, #-8]
 8000b58:	e033      	b.n	8000bc2 <dwt_readfromdevice+0x9a>
    else
    {
#ifdef DWT_API_ERROR_CHECK
        assert((index <= 0x7FFF) && ((index + length) <= 0x7FFF)); // Index and sub-addressable area are limited to 15-bits.
#endif
        header[cnt++] = (uint8)(0x40 | recordNumber) ; // Bit-7 zero is READ operation, bit-6 one=sub-address follows, bits 5-0 is reg file id
 8000b5a:	89fb      	ldrh	r3, [r7, #14]
 8000b5c:	b2da      	uxtb	r2, r3
 8000b5e:	697b      	ldr	r3, [r7, #20]
 8000b60:	1c59      	adds	r1, r3, #1
 8000b62:	6179      	str	r1, [r7, #20]
 8000b64:	f042 0240 	orr.w	r2, r2, #64	; 0x40
 8000b68:	b2d2      	uxtb	r2, r2
 8000b6a:	f107 0118 	add.w	r1, r7, #24
 8000b6e:	440b      	add	r3, r1
 8000b70:	f803 2c08 	strb.w	r2, [r3, #-8]

        if (index <= 127) // For non-zero index < 127, just a single sub-index byte is required
 8000b74:	89bb      	ldrh	r3, [r7, #12]
 8000b76:	2b7f      	cmp	r3, #127	; 0x7f
 8000b78:	d80a      	bhi.n	8000b90 <dwt_readfromdevice+0x68>
        {
            header[cnt++] = (uint8) index ; // Bit-7 zero means no extension, bits 6-0 is index.
 8000b7a:	697b      	ldr	r3, [r7, #20]
 8000b7c:	1c5a      	adds	r2, r3, #1
 8000b7e:	617a      	str	r2, [r7, #20]
 8000b80:	89ba      	ldrh	r2, [r7, #12]
 8000b82:	b2d2      	uxtb	r2, r2
 8000b84:	f107 0118 	add.w	r1, r7, #24
 8000b88:	440b      	add	r3, r1
 8000b8a:	f803 2c08 	strb.w	r2, [r3, #-8]
 8000b8e:	e018      	b.n	8000bc2 <dwt_readfromdevice+0x9a>
        }
        else
        {
            header[cnt++] = 0x80 | (uint8)(index) ; // Bit-7 one means extended index, bits 6-0 is low seven bits of index.
 8000b90:	89bb      	ldrh	r3, [r7, #12]
 8000b92:	b2da      	uxtb	r2, r3
 8000b94:	697b      	ldr	r3, [r7, #20]
 8000b96:	1c59      	adds	r1, r3, #1
 8000b98:	6179      	str	r1, [r7, #20]
 8000b9a:	f062 027f 	orn	r2, r2, #127	; 0x7f
 8000b9e:	b2d2      	uxtb	r2, r2
 8000ba0:	f107 0118 	add.w	r1, r7, #24
 8000ba4:	440b      	add	r3, r1
 8000ba6:	f803 2c08 	strb.w	r2, [r3, #-8]
            header[cnt++] =  (uint8) (index >> 7) ; // 8-bit value = high eight bits of index.
 8000baa:	89bb      	ldrh	r3, [r7, #12]
 8000bac:	09db      	lsrs	r3, r3, #7
 8000bae:	b299      	uxth	r1, r3
 8000bb0:	697b      	ldr	r3, [r7, #20]
 8000bb2:	1c5a      	adds	r2, r3, #1
 8000bb4:	617a      	str	r2, [r7, #20]
 8000bb6:	b2ca      	uxtb	r2, r1
 8000bb8:	f107 0118 	add.w	r1, r7, #24
 8000bbc:	440b      	add	r3, r1
 8000bbe:	f803 2c08 	strb.w	r2, [r3, #-8]
        }
    }

    // Do the read from the SPI
    readfromspi(cnt, header, length, buffer);  // result is stored in the buffer
 8000bc2:	697b      	ldr	r3, [r7, #20]
 8000bc4:	b298      	uxth	r0, r3
 8000bc6:	f107 0110 	add.w	r1, r7, #16
 8000bca:	687b      	ldr	r3, [r7, #4]
 8000bcc:	68ba      	ldr	r2, [r7, #8]
 8000bce:	f000 fa8f 	bl	80010f0 <readfromspi>
} // end dwt_readfromdevice()
 8000bd2:	bf00      	nop
 8000bd4:	3718      	adds	r7, #24
 8000bd6:	46bd      	mov	sp, r7
 8000bd8:	bd80      	pop	{r7, pc}

08000bda <dwt_read32bitoffsetreg>:
 * output parameters
 *
 * returns 32 bit register value
 */
uint32 dwt_read32bitoffsetreg(int regFileID, int regOffset)
{
 8000bda:	b580      	push	{r7, lr}
 8000bdc:	b086      	sub	sp, #24
 8000bde:	af00      	add	r7, sp, #0
 8000be0:	6078      	str	r0, [r7, #4]
 8000be2:	6039      	str	r1, [r7, #0]
    uint32  regval = 0 ;
 8000be4:	2300      	movs	r3, #0
 8000be6:	617b      	str	r3, [r7, #20]
    int     j ;
    uint8   buffer[4] ;

    dwt_readfromdevice(regFileID,regOffset,4,buffer); // Read 4 bytes (32-bits) register into buffer
 8000be8:	687b      	ldr	r3, [r7, #4]
 8000bea:	b298      	uxth	r0, r3
 8000bec:	683b      	ldr	r3, [r7, #0]
 8000bee:	b299      	uxth	r1, r3
 8000bf0:	f107 030c 	add.w	r3, r7, #12
 8000bf4:	2204      	movs	r2, #4
 8000bf6:	f7ff ff97 	bl	8000b28 <dwt_readfromdevice>

    for (j = 3 ; j >= 0 ; j --)
 8000bfa:	2303      	movs	r3, #3
 8000bfc:	613b      	str	r3, [r7, #16]
 8000bfe:	e00b      	b.n	8000c18 <dwt_read32bitoffsetreg+0x3e>
    {
        regval = (regval << 8) + buffer[j] ;
 8000c00:	697b      	ldr	r3, [r7, #20]
 8000c02:	021b      	lsls	r3, r3, #8
 8000c04:	f107 010c 	add.w	r1, r7, #12
 8000c08:	693a      	ldr	r2, [r7, #16]
 8000c0a:	440a      	add	r2, r1
 8000c0c:	7812      	ldrb	r2, [r2, #0]
 8000c0e:	4413      	add	r3, r2
 8000c10:	617b      	str	r3, [r7, #20]
    for (j = 3 ; j >= 0 ; j --)
 8000c12:	693b      	ldr	r3, [r7, #16]
 8000c14:	3b01      	subs	r3, #1
 8000c16:	613b      	str	r3, [r7, #16]
 8000c18:	693b      	ldr	r3, [r7, #16]
 8000c1a:	2b00      	cmp	r3, #0
 8000c1c:	daf0      	bge.n	8000c00 <dwt_read32bitoffsetreg+0x26>
    }
    return regval ;
 8000c1e:	697b      	ldr	r3, [r7, #20]

} // end dwt_read32bitoffsetreg()
 8000c20:	4618      	mov	r0, r3
 8000c22:	3718      	adds	r7, #24
 8000c24:	46bd      	mov	sp, r7
 8000c26:	bd80      	pop	{r7, pc}

08000c28 <dwt_read16bitoffsetreg>:
 * output parameters
 *
 * returns 16 bit register value
 */
uint16 dwt_read16bitoffsetreg(int regFileID, int regOffset)
{
 8000c28:	b580      	push	{r7, lr}
 8000c2a:	b084      	sub	sp, #16
 8000c2c:	af00      	add	r7, sp, #0
 8000c2e:	6078      	str	r0, [r7, #4]
 8000c30:	6039      	str	r1, [r7, #0]
    uint16  regval = 0 ;
 8000c32:	2300      	movs	r3, #0
 8000c34:	81fb      	strh	r3, [r7, #14]
    uint8   buffer[2] ;

    dwt_readfromdevice(regFileID,regOffset,2,buffer); // Read 2 bytes (16-bits) register into buffer
 8000c36:	687b      	ldr	r3, [r7, #4]
 8000c38:	b298      	uxth	r0, r3
 8000c3a:	683b      	ldr	r3, [r7, #0]
 8000c3c:	b299      	uxth	r1, r3
 8000c3e:	f107 030c 	add.w	r3, r7, #12
 8000c42:	2202      	movs	r2, #2
 8000c44:	f7ff ff70 	bl	8000b28 <dwt_readfromdevice>

    regval = ((uint16)buffer[1] << 8) + buffer[0] ;
 8000c48:	7b7b      	ldrb	r3, [r7, #13]
 8000c4a:	b29b      	uxth	r3, r3
 8000c4c:	021b      	lsls	r3, r3, #8
 8000c4e:	b29a      	uxth	r2, r3
 8000c50:	7b3b      	ldrb	r3, [r7, #12]
 8000c52:	b29b      	uxth	r3, r3
 8000c54:	4413      	add	r3, r2
 8000c56:	81fb      	strh	r3, [r7, #14]
    return regval ;
 8000c58:	89fb      	ldrh	r3, [r7, #14]

} // end dwt_read16bitoffsetreg()
 8000c5a:	4618      	mov	r0, r3
 8000c5c:	3710      	adds	r7, #16
 8000c5e:	46bd      	mov	sp, r7
 8000c60:	bd80      	pop	{r7, pc}

08000c62 <dwt_write8bitoffsetreg>:
 * output parameters
 *
 * no return value
 */
void dwt_write8bitoffsetreg(int regFileID, int regOffset, uint8 regval)
{
 8000c62:	b580      	push	{r7, lr}
 8000c64:	b084      	sub	sp, #16
 8000c66:	af00      	add	r7, sp, #0
 8000c68:	60f8      	str	r0, [r7, #12]
 8000c6a:	60b9      	str	r1, [r7, #8]
 8000c6c:	4613      	mov	r3, r2
 8000c6e:	71fb      	strb	r3, [r7, #7]
    dwt_writetodevice(regFileID, regOffset, 1, &regval);
 8000c70:	68fb      	ldr	r3, [r7, #12]
 8000c72:	b298      	uxth	r0, r3
 8000c74:	68bb      	ldr	r3, [r7, #8]
 8000c76:	b299      	uxth	r1, r3
 8000c78:	1dfb      	adds	r3, r7, #7
 8000c7a:	2201      	movs	r2, #1
 8000c7c:	f7ff fef8 	bl	8000a70 <dwt_writetodevice>
}
 8000c80:	bf00      	nop
 8000c82:	3710      	adds	r7, #16
 8000c84:	46bd      	mov	sp, r7
 8000c86:	bd80      	pop	{r7, pc}

08000c88 <dwt_write16bitoffsetreg>:
 * output parameters
 *
 * no return value
 */
void dwt_write16bitoffsetreg(int regFileID, int regOffset, uint16 regval)
{
 8000c88:	b580      	push	{r7, lr}
 8000c8a:	b086      	sub	sp, #24
 8000c8c:	af00      	add	r7, sp, #0
 8000c8e:	60f8      	str	r0, [r7, #12]
 8000c90:	60b9      	str	r1, [r7, #8]
 8000c92:	4613      	mov	r3, r2
 8000c94:	80fb      	strh	r3, [r7, #6]
    uint8   buffer[2] ;

    buffer[0] = regval & 0xFF;
 8000c96:	88fb      	ldrh	r3, [r7, #6]
 8000c98:	b2db      	uxtb	r3, r3
 8000c9a:	753b      	strb	r3, [r7, #20]
    buffer[1] = regval >> 8 ;
 8000c9c:	88fb      	ldrh	r3, [r7, #6]
 8000c9e:	0a1b      	lsrs	r3, r3, #8
 8000ca0:	b29b      	uxth	r3, r3
 8000ca2:	b2db      	uxtb	r3, r3
 8000ca4:	757b      	strb	r3, [r7, #21]

    dwt_writetodevice(regFileID,regOffset,2,buffer);
 8000ca6:	68fb      	ldr	r3, [r7, #12]
 8000ca8:	b298      	uxth	r0, r3
 8000caa:	68bb      	ldr	r3, [r7, #8]
 8000cac:	b299      	uxth	r1, r3
 8000cae:	f107 0314 	add.w	r3, r7, #20
 8000cb2:	2202      	movs	r2, #2
 8000cb4:	f7ff fedc 	bl	8000a70 <dwt_writetodevice>
} // end dwt_write16bitoffsetreg()
 8000cb8:	bf00      	nop
 8000cba:	3718      	adds	r7, #24
 8000cbc:	46bd      	mov	sp, r7
 8000cbe:	bd80      	pop	{r7, pc}

08000cc0 <dwt_write32bitoffsetreg>:
 * output parameters
 *
 * no return value
 */
void dwt_write32bitoffsetreg(int regFileID, int regOffset, uint32 regval)
{
 8000cc0:	b580      	push	{r7, lr}
 8000cc2:	b086      	sub	sp, #24
 8000cc4:	af00      	add	r7, sp, #0
 8000cc6:	60f8      	str	r0, [r7, #12]
 8000cc8:	60b9      	str	r1, [r7, #8]
 8000cca:	607a      	str	r2, [r7, #4]
    int     j ;
    uint8   buffer[4] ;

    for ( j = 0 ; j < 4 ; j++ )
 8000ccc:	2300      	movs	r3, #0
 8000cce:	617b      	str	r3, [r7, #20]
 8000cd0:	e00d      	b.n	8000cee <dwt_write32bitoffsetreg+0x2e>
    {
        buffer[j] = regval & 0xff ;
 8000cd2:	687b      	ldr	r3, [r7, #4]
 8000cd4:	b2d9      	uxtb	r1, r3
 8000cd6:	f107 0210 	add.w	r2, r7, #16
 8000cda:	697b      	ldr	r3, [r7, #20]
 8000cdc:	4413      	add	r3, r2
 8000cde:	460a      	mov	r2, r1
 8000ce0:	701a      	strb	r2, [r3, #0]
        regval >>= 8 ;
 8000ce2:	687b      	ldr	r3, [r7, #4]
 8000ce4:	0a1b      	lsrs	r3, r3, #8
 8000ce6:	607b      	str	r3, [r7, #4]
    for ( j = 0 ; j < 4 ; j++ )
 8000ce8:	697b      	ldr	r3, [r7, #20]
 8000cea:	3301      	adds	r3, #1
 8000cec:	617b      	str	r3, [r7, #20]
 8000cee:	697b      	ldr	r3, [r7, #20]
 8000cf0:	2b03      	cmp	r3, #3
 8000cf2:	ddee      	ble.n	8000cd2 <dwt_write32bitoffsetreg+0x12>
    }

    dwt_writetodevice(regFileID,regOffset,4,buffer);
 8000cf4:	68fb      	ldr	r3, [r7, #12]
 8000cf6:	b298      	uxth	r0, r3
 8000cf8:	68bb      	ldr	r3, [r7, #8]
 8000cfa:	b299      	uxth	r1, r3
 8000cfc:	f107 0310 	add.w	r3, r7, #16
 8000d00:	2204      	movs	r2, #4
 8000d02:	f7ff feb5 	bl	8000a70 <dwt_writetodevice>
} // end dwt_write32bitoffsetreg()
 8000d06:	bf00      	nop
 8000d08:	3718      	adds	r7, #24
 8000d0a:	46bd      	mov	sp, r7
 8000d0c:	bd80      	pop	{r7, pc}

08000d0e <_dwt_otpread>:
 * output parameters
 *
 * returns the 32bit of read data
 */
uint32 _dwt_otpread(uint16 address)
{
 8000d0e:	b580      	push	{r7, lr}
 8000d10:	b084      	sub	sp, #16
 8000d12:	af00      	add	r7, sp, #0
 8000d14:	4603      	mov	r3, r0
 8000d16:	80fb      	strh	r3, [r7, #6]
    uint32 ret_data;

    // Write the address
    dwt_write16bitoffsetreg(OTP_IF_ID, OTP_ADDR, address);
 8000d18:	88fb      	ldrh	r3, [r7, #6]
 8000d1a:	461a      	mov	r2, r3
 8000d1c:	2104      	movs	r1, #4
 8000d1e:	202d      	movs	r0, #45	; 0x2d
 8000d20:	f7ff ffb2 	bl	8000c88 <dwt_write16bitoffsetreg>

    // Perform OTP Read - Manual read mode has to be set
    dwt_write8bitoffsetreg(OTP_IF_ID, OTP_CTRL, OTP_CTRL_OTPREAD | OTP_CTRL_OTPRDEN);
 8000d24:	2203      	movs	r2, #3
 8000d26:	2106      	movs	r1, #6
 8000d28:	202d      	movs	r0, #45	; 0x2d
 8000d2a:	f7ff ff9a 	bl	8000c62 <dwt_write8bitoffsetreg>
    dwt_write8bitoffsetreg(OTP_IF_ID, OTP_CTRL, 0x00); // OTPREAD is self clearing but OTPRDEN is not
 8000d2e:	2200      	movs	r2, #0
 8000d30:	2106      	movs	r1, #6
 8000d32:	202d      	movs	r0, #45	; 0x2d
 8000d34:	f7ff ff95 	bl	8000c62 <dwt_write8bitoffsetreg>

    // Read read data, available 40ns after rising edge of OTP_READ
    ret_data = dwt_read32bitoffsetreg(OTP_IF_ID, OTP_RDAT);
 8000d38:	210a      	movs	r1, #10
 8000d3a:	202d      	movs	r0, #45	; 0x2d
 8000d3c:	f7ff ff4d 	bl	8000bda <dwt_read32bitoffsetreg>
 8000d40:	60f8      	str	r0, [r7, #12]

    // Return the 32bit of read data
    return ret_data;
 8000d42:	68fb      	ldr	r3, [r7, #12]
}
 8000d44:	4618      	mov	r0, r3
 8000d46:	3710      	adds	r7, #16
 8000d48:	46bd      	mov	sp, r7
 8000d4a:	bd80      	pop	{r7, pc}

08000d4c <_dwt_aonarrayupload>:
 * output parameters
 *
 * no return value
 */
void _dwt_aonarrayupload(void)
{
 8000d4c:	b580      	push	{r7, lr}
 8000d4e:	af00      	add	r7, sp, #0
    dwt_write8bitoffsetreg(AON_ID, AON_CTRL_OFFSET, 0x00); // Clear the register
 8000d50:	2200      	movs	r2, #0
 8000d52:	2102      	movs	r1, #2
 8000d54:	202c      	movs	r0, #44	; 0x2c
 8000d56:	f7ff ff84 	bl	8000c62 <dwt_write8bitoffsetreg>
    dwt_write8bitoffsetreg(AON_ID, AON_CTRL_OFFSET, AON_CTRL_SAVE);
 8000d5a:	2202      	movs	r2, #2
 8000d5c:	2102      	movs	r1, #2
 8000d5e:	202c      	movs	r0, #44	; 0x2c
 8000d60:	f7ff ff7f 	bl	8000c62 <dwt_write8bitoffsetreg>
}
 8000d64:	bf00      	nop
 8000d66:	bd80      	pop	{r7, pc}

08000d68 <_dwt_configlde>:
 * output parameters
 *
 * no return value
 */
void _dwt_configlde(int prfIndex)
{
 8000d68:	b580      	push	{r7, lr}
 8000d6a:	b082      	sub	sp, #8
 8000d6c:	af00      	add	r7, sp, #0
 8000d6e:	6078      	str	r0, [r7, #4]
    dwt_write8bitoffsetreg(LDE_IF_ID, LDE_CFG1_OFFSET, LDE_PARAM1); // 8-bit configuration register
 8000d70:	226d      	movs	r2, #109	; 0x6d
 8000d72:	f640 0106 	movw	r1, #2054	; 0x806
 8000d76:	202e      	movs	r0, #46	; 0x2e
 8000d78:	f7ff ff73 	bl	8000c62 <dwt_write8bitoffsetreg>

    if(prfIndex)
 8000d7c:	687b      	ldr	r3, [r7, #4]
 8000d7e:	2b00      	cmp	r3, #0
 8000d80:	d007      	beq.n	8000d92 <_dwt_configlde+0x2a>
    {
        dwt_write16bitoffsetreg( LDE_IF_ID, LDE_CFG2_OFFSET, (uint16) LDE_PARAM3_64); // 16-bit LDE configuration tuning register
 8000d82:	f240 6207 	movw	r2, #1543	; 0x607
 8000d86:	f641 0106 	movw	r1, #6150	; 0x1806
 8000d8a:	202e      	movs	r0, #46	; 0x2e
 8000d8c:	f7ff ff7c 	bl	8000c88 <dwt_write16bitoffsetreg>
    }
    else
    {
        dwt_write16bitoffsetreg( LDE_IF_ID, LDE_CFG2_OFFSET, (uint16) LDE_PARAM3_16);
    }
}
 8000d90:	e006      	b.n	8000da0 <_dwt_configlde+0x38>
        dwt_write16bitoffsetreg( LDE_IF_ID, LDE_CFG2_OFFSET, (uint16) LDE_PARAM3_16);
 8000d92:	f241 6207 	movw	r2, #5639	; 0x1607
 8000d96:	f641 0106 	movw	r1, #6150	; 0x1806
 8000d9a:	202e      	movs	r0, #46	; 0x2e
 8000d9c:	f7ff ff74 	bl	8000c88 <dwt_write16bitoffsetreg>
}
 8000da0:	bf00      	nop
 8000da2:	3708      	adds	r7, #8
 8000da4:	46bd      	mov	sp, r7
 8000da6:	bd80      	pop	{r7, pc}

08000da8 <_dwt_loaducodefromrom>:
 * output parameters
 *
 * no return value
 */
void _dwt_loaducodefromrom(void)
{
 8000da8:	b580      	push	{r7, lr}
 8000daa:	af00      	add	r7, sp, #0
    // Set up clocks
    _dwt_enableclocks(FORCE_LDE);
 8000dac:	200e      	movs	r0, #14
 8000dae:	f000 f80f 	bl	8000dd0 <_dwt_enableclocks>

    // Kick off the LDE load
    dwt_write16bitoffsetreg(OTP_IF_ID, OTP_CTRL, OTP_CTRL_LDELOAD); // Set load LDE kick bit
 8000db2:	f44f 4200 	mov.w	r2, #32768	; 0x8000
 8000db6:	2106      	movs	r1, #6
 8000db8:	202d      	movs	r0, #45	; 0x2d
 8000dba:	f7ff ff65 	bl	8000c88 <dwt_write16bitoffsetreg>

    deca_sleep(1); // Allow time for code to upload (should take up to 120 us)
 8000dbe:	2001      	movs	r0, #1
 8000dc0:	f000 f956 	bl	8001070 <deca_sleep>

    // Default clocks (ENABLE_ALL_SEQ)
    _dwt_enableclocks(ENABLE_ALL_SEQ); // Enable clocks for sequencing
 8000dc4:	2001      	movs	r0, #1
 8000dc6:	f000 f803 	bl	8000dd0 <_dwt_enableclocks>
}
 8000dca:	bf00      	nop
 8000dcc:	bd80      	pop	{r7, pc}
	...

08000dd0 <_dwt_enableclocks>:
 * output parameters none
 *
 * no return value
 */
void _dwt_enableclocks(int clocks)
{
 8000dd0:	b580      	push	{r7, lr}
 8000dd2:	b084      	sub	sp, #16
 8000dd4:	af00      	add	r7, sp, #0
 8000dd6:	6078      	str	r0, [r7, #4]
    uint8 reg[2];

    dwt_readfromdevice(PMSC_ID, PMSC_CTRL0_OFFSET, 2, reg);
 8000dd8:	f107 030c 	add.w	r3, r7, #12
 8000ddc:	2202      	movs	r2, #2
 8000dde:	2100      	movs	r1, #0
 8000de0:	2036      	movs	r0, #54	; 0x36
 8000de2:	f7ff fea1 	bl	8000b28 <dwt_readfromdevice>
 8000de6:	687b      	ldr	r3, [r7, #4]
 8000de8:	2b0e      	cmp	r3, #14
 8000dea:	d876      	bhi.n	8000eda <_dwt_enableclocks+0x10a>
 8000dec:	a201      	add	r2, pc, #4	; (adr r2, 8000df4 <_dwt_enableclocks+0x24>)
 8000dee:	f852 f023 	ldr.w	pc, [r2, r3, lsl #2]
 8000df2:	bf00      	nop
 8000df4:	08000e41 	.word	0x08000e41
 8000df8:	08000e31 	.word	0x08000e31
 8000dfc:	08000e57 	.word	0x08000e57
 8000e00:	08000edb 	.word	0x08000edb
 8000e04:	08000edb 	.word	0x08000edb
 8000e08:	08000edb 	.word	0x08000edb
 8000e0c:	08000edb 	.word	0x08000edb
 8000e10:	08000e6d 	.word	0x08000e6d
 8000e14:	08000e8d 	.word	0x08000e8d
 8000e18:	08000edb 	.word	0x08000edb
 8000e1c:	08000edb 	.word	0x08000edb
 8000e20:	08000ea3 	.word	0x08000ea3
 8000e24:	08000eaf 	.word	0x08000eaf
 8000e28:	08000ebb 	.word	0x08000ebb
 8000e2c:	08000ed1 	.word	0x08000ed1
    switch(clocks)
    {
        case ENABLE_ALL_SEQ:
        {
            reg[0] = 0x00 ;
 8000e30:	2300      	movs	r3, #0
 8000e32:	733b      	strb	r3, [r7, #12]
            reg[1] = reg[1] & 0xfe;
 8000e34:	7b7b      	ldrb	r3, [r7, #13]
 8000e36:	f023 0301 	bic.w	r3, r3, #1
 8000e3a:	b2db      	uxtb	r3, r3
 8000e3c:	737b      	strb	r3, [r7, #13]
        }
        break;
 8000e3e:	e04d      	b.n	8000edc <_dwt_enableclocks+0x10c>
        case FORCE_SYS_XTI:
        {
            // System and RX
            reg[0] = 0x01 | (reg[0] & 0xfc);
 8000e40:	7b3b      	ldrb	r3, [r7, #12]
 8000e42:	b25b      	sxtb	r3, r3
 8000e44:	f023 0303 	bic.w	r3, r3, #3
 8000e48:	b25b      	sxtb	r3, r3
 8000e4a:	f043 0301 	orr.w	r3, r3, #1
 8000e4e:	b25b      	sxtb	r3, r3
 8000e50:	b2db      	uxtb	r3, r3
 8000e52:	733b      	strb	r3, [r7, #12]
        }
        break;
 8000e54:	e042      	b.n	8000edc <_dwt_enableclocks+0x10c>
        case FORCE_SYS_PLL:
        {
            // System
            reg[0] = 0x02 | (reg[0] & 0xfc);
 8000e56:	7b3b      	ldrb	r3, [r7, #12]
 8000e58:	b25b      	sxtb	r3, r3
 8000e5a:	f023 0303 	bic.w	r3, r3, #3
 8000e5e:	b25b      	sxtb	r3, r3
 8000e60:	f043 0302 	orr.w	r3, r3, #2
 8000e64:	b25b      	sxtb	r3, r3
 8000e66:	b2db      	uxtb	r3, r3
 8000e68:	733b      	strb	r3, [r7, #12]
        }
        break;
 8000e6a:	e037      	b.n	8000edc <_dwt_enableclocks+0x10c>
        case READ_ACC_ON:
        {
            reg[0] = 0x48 | (reg[0] & 0xb3);
 8000e6c:	7b3b      	ldrb	r3, [r7, #12]
 8000e6e:	b25b      	sxtb	r3, r3
 8000e70:	f023 034c 	bic.w	r3, r3, #76	; 0x4c
 8000e74:	b25b      	sxtb	r3, r3
 8000e76:	f043 0348 	orr.w	r3, r3, #72	; 0x48
 8000e7a:	b25b      	sxtb	r3, r3
 8000e7c:	b2db      	uxtb	r3, r3
 8000e7e:	733b      	strb	r3, [r7, #12]
            reg[1] = 0x80 | reg[1];
 8000e80:	7b7b      	ldrb	r3, [r7, #13]
 8000e82:	f063 037f 	orn	r3, r3, #127	; 0x7f
 8000e86:	b2db      	uxtb	r3, r3
 8000e88:	737b      	strb	r3, [r7, #13]
        }
        break;
 8000e8a:	e027      	b.n	8000edc <_dwt_enableclocks+0x10c>
        case READ_ACC_OFF:
        {
            reg[0] = reg[0] & 0xb3;
 8000e8c:	7b3b      	ldrb	r3, [r7, #12]
 8000e8e:	f023 034c 	bic.w	r3, r3, #76	; 0x4c
 8000e92:	b2db      	uxtb	r3, r3
 8000e94:	733b      	strb	r3, [r7, #12]
            reg[1] = 0x7f & reg[1];
 8000e96:	7b7b      	ldrb	r3, [r7, #13]
 8000e98:	f003 037f 	and.w	r3, r3, #127	; 0x7f
 8000e9c:	b2db      	uxtb	r3, r3
 8000e9e:	737b      	strb	r3, [r7, #13]
        }
        break;
 8000ea0:	e01c      	b.n	8000edc <_dwt_enableclocks+0x10c>
        case FORCE_OTP_ON:
        {
            reg[1] = 0x02 | reg[1];
 8000ea2:	7b7b      	ldrb	r3, [r7, #13]
 8000ea4:	f043 0302 	orr.w	r3, r3, #2
 8000ea8:	b2db      	uxtb	r3, r3
 8000eaa:	737b      	strb	r3, [r7, #13]
        }
        break;
 8000eac:	e016      	b.n	8000edc <_dwt_enableclocks+0x10c>
        case FORCE_OTP_OFF:
        {
            reg[1] = reg[1] & 0xfd;
 8000eae:	7b7b      	ldrb	r3, [r7, #13]
 8000eb0:	f023 0302 	bic.w	r3, r3, #2
 8000eb4:	b2db      	uxtb	r3, r3
 8000eb6:	737b      	strb	r3, [r7, #13]
        }
        break;
 8000eb8:	e010      	b.n	8000edc <_dwt_enableclocks+0x10c>
        case FORCE_TX_PLL:
        {
            reg[0] = 0x20 | (reg[0] & 0xcf);
 8000eba:	7b3b      	ldrb	r3, [r7, #12]
 8000ebc:	b25b      	sxtb	r3, r3
 8000ebe:	f023 0330 	bic.w	r3, r3, #48	; 0x30
 8000ec2:	b25b      	sxtb	r3, r3
 8000ec4:	f043 0320 	orr.w	r3, r3, #32
 8000ec8:	b25b      	sxtb	r3, r3
 8000eca:	b2db      	uxtb	r3, r3
 8000ecc:	733b      	strb	r3, [r7, #12]
        }
        break;
 8000ece:	e005      	b.n	8000edc <_dwt_enableclocks+0x10c>
        case FORCE_LDE:
        {
            reg[0] = 0x01;
 8000ed0:	2301      	movs	r3, #1
 8000ed2:	733b      	strb	r3, [r7, #12]
            reg[1] = 0x03;
 8000ed4:	2303      	movs	r3, #3
 8000ed6:	737b      	strb	r3, [r7, #13]
        }
        break;
 8000ed8:	e000      	b.n	8000edc <_dwt_enableclocks+0x10c>
        default:
        break;
 8000eda:	bf00      	nop
    }


    // Need to write lower byte separately before setting the higher byte(s)
    dwt_writetodevice(PMSC_ID, PMSC_CTRL0_OFFSET, 1, &reg[0]);
 8000edc:	f107 030c 	add.w	r3, r7, #12
 8000ee0:	2201      	movs	r2, #1
 8000ee2:	2100      	movs	r1, #0
 8000ee4:	2036      	movs	r0, #54	; 0x36
 8000ee6:	f7ff fdc3 	bl	8000a70 <dwt_writetodevice>
    dwt_writetodevice(PMSC_ID, 0x1, 1, &reg[1]);
 8000eea:	f107 030c 	add.w	r3, r7, #12
 8000eee:	3301      	adds	r3, #1
 8000ef0:	2201      	movs	r2, #1
 8000ef2:	2101      	movs	r1, #1
 8000ef4:	2036      	movs	r0, #54	; 0x36
 8000ef6:	f7ff fdbb 	bl	8000a70 <dwt_writetodevice>

} // end _dwt_enableclocks()
 8000efa:	bf00      	nop
 8000efc:	3710      	adds	r7, #16
 8000efe:	46bd      	mov	sp, r7
 8000f00:	bd80      	pop	{r7, pc}
 8000f02:	bf00      	nop

08000f04 <_dwt_disablesequencing>:
 * output parameters none
 *
 * no return value
 */
void _dwt_disablesequencing(void) // Disable sequencing and go to state "INIT"
{
 8000f04:	b580      	push	{r7, lr}
 8000f06:	af00      	add	r7, sp, #0
    _dwt_enableclocks(FORCE_SYS_XTI); // Set system clock to XTI
 8000f08:	2000      	movs	r0, #0
 8000f0a:	f7ff ff61 	bl	8000dd0 <_dwt_enableclocks>

    dwt_write16bitoffsetreg(PMSC_ID, PMSC_CTRL1_OFFSET, PMSC_CTRL1_PKTSEQ_DISABLE); // Disable PMSC ctrl of RF and RX clk blocks
 8000f0e:	2200      	movs	r2, #0
 8000f10:	2104      	movs	r1, #4
 8000f12:	2036      	movs	r0, #54	; 0x36
 8000f14:	f7ff feb8 	bl	8000c88 <dwt_write16bitoffsetreg>
}
 8000f18:	bf00      	nop
 8000f1a:	bd80      	pop	{r7, pc}

08000f1c <dwt_starttx>:
 *
 * returns DWT_SUCCESS for success, or DWT_ERROR for error (e.g. a delayed transmission will be cancelled if the delayed time has passed)
 */

int dwt_starttx(uint8 mode)
{
 8000f1c:	b580      	push	{r7, lr}
 8000f1e:	b084      	sub	sp, #16
 8000f20:	af00      	add	r7, sp, #0
 8000f22:	4603      	mov	r3, r0
 8000f24:	71fb      	strb	r3, [r7, #7]
    int retval = DWT_SUCCESS ;
 8000f26:	2300      	movs	r3, #0
 8000f28:	60fb      	str	r3, [r7, #12]
    uint8 temp  = 0x00;
 8000f2a:	2300      	movs	r3, #0
 8000f2c:	72fb      	strb	r3, [r7, #11]
    uint16 checkTxOK = 0 ;
 8000f2e:	2300      	movs	r3, #0
 8000f30:	813b      	strh	r3, [r7, #8]

    if(mode & DWT_RESPONSE_EXPECTED)
 8000f32:	79fb      	ldrb	r3, [r7, #7]
 8000f34:	f003 0302 	and.w	r3, r3, #2
 8000f38:	2b00      	cmp	r3, #0
 8000f3a:	d005      	beq.n	8000f48 <dwt_starttx+0x2c>
    {
        temp = (uint8)SYS_CTRL_WAIT4RESP ; // Set wait4response bit
 8000f3c:	2380      	movs	r3, #128	; 0x80
 8000f3e:	72fb      	strb	r3, [r7, #11]
        pdw1000local->wait4resp = 1;
 8000f40:	4b1c      	ldr	r3, [pc, #112]	; (8000fb4 <dwt_starttx+0x98>)
 8000f42:	681b      	ldr	r3, [r3, #0]
 8000f44:	2201      	movs	r2, #1
 8000f46:	755a      	strb	r2, [r3, #21]
    }

    if (mode & DWT_START_TX_DELAYED)
 8000f48:	79fb      	ldrb	r3, [r7, #7]
 8000f4a:	f003 0301 	and.w	r3, r3, #1
 8000f4e:	2b00      	cmp	r3, #0
 8000f50:	d020      	beq.n	8000f94 <dwt_starttx+0x78>
    {
        // Both SYS_CTRL_TXSTRT and SYS_CTRL_TXDLYS to correctly enable TX
        temp |= (uint8)(SYS_CTRL_TXDLYS | SYS_CTRL_TXSTRT) ;
 8000f52:	7afb      	ldrb	r3, [r7, #11]
 8000f54:	f043 0306 	orr.w	r3, r3, #6
 8000f58:	72fb      	strb	r3, [r7, #11]
        dwt_write8bitoffsetreg(SYS_CTRL_ID, SYS_CTRL_OFFSET, temp);
 8000f5a:	7afb      	ldrb	r3, [r7, #11]
 8000f5c:	461a      	mov	r2, r3
 8000f5e:	2100      	movs	r1, #0
 8000f60:	200d      	movs	r0, #13
 8000f62:	f7ff fe7e 	bl	8000c62 <dwt_write8bitoffsetreg>
        checkTxOK = dwt_read16bitoffsetreg(SYS_STATUS_ID, 3); // Read at offset 3 to get the upper 2 bytes out of 5
 8000f66:	2103      	movs	r1, #3
 8000f68:	200f      	movs	r0, #15
 8000f6a:	f7ff fe5d 	bl	8000c28 <dwt_read16bitoffsetreg>
 8000f6e:	4603      	mov	r3, r0
 8000f70:	813b      	strh	r3, [r7, #8]
        if ((checkTxOK & SYS_STATUS_TXERR) == 0) // Transmit Delayed Send set over Half a Period away or Power Up error (there is enough time to send but not to power up individual blocks).
 8000f72:	893b      	ldrh	r3, [r7, #8]
 8000f74:	f403 6381 	and.w	r3, r3, #1032	; 0x408
 8000f78:	2b00      	cmp	r3, #0
 8000f7a:	d102      	bne.n	8000f82 <dwt_starttx+0x66>
        {
            retval = DWT_SUCCESS ; // All okay
 8000f7c:	2300      	movs	r3, #0
 8000f7e:	60fb      	str	r3, [r7, #12]
 8000f80:	e012      	b.n	8000fa8 <dwt_starttx+0x8c>
        }
        else
        {
            // If HPDWARN or TXPUTE are set this indicates that the TXDLYS was set too late for the specified DX_TIME.
            // remedial action is to cancel delayed send and report error
            dwt_write8bitoffsetreg(SYS_CTRL_ID, SYS_CTRL_OFFSET, (uint8)SYS_CTRL_TRXOFF);
 8000f82:	2240      	movs	r2, #64	; 0x40
 8000f84:	2100      	movs	r1, #0
 8000f86:	200d      	movs	r0, #13
 8000f88:	f7ff fe6b 	bl	8000c62 <dwt_write8bitoffsetreg>
            retval = DWT_ERROR ; // Failed !
 8000f8c:	f04f 33ff 	mov.w	r3, #4294967295
 8000f90:	60fb      	str	r3, [r7, #12]
 8000f92:	e009      	b.n	8000fa8 <dwt_starttx+0x8c>
        }
    }
    else
    {
        temp |= (uint8)SYS_CTRL_TXSTRT ;
 8000f94:	7afb      	ldrb	r3, [r7, #11]
 8000f96:	f043 0302 	orr.w	r3, r3, #2
 8000f9a:	72fb      	strb	r3, [r7, #11]
        dwt_write8bitoffsetreg(SYS_CTRL_ID, SYS_CTRL_OFFSET, temp);
 8000f9c:	7afb      	ldrb	r3, [r7, #11]
 8000f9e:	461a      	mov	r2, r3
 8000fa0:	2100      	movs	r1, #0
 8000fa2:	200d      	movs	r0, #13
 8000fa4:	f7ff fe5d 	bl	8000c62 <dwt_write8bitoffsetreg>
    }

    return retval;
 8000fa8:	68fb      	ldr	r3, [r7, #12]

} // end dwt_starttx()
 8000faa:	4618      	mov	r0, r3
 8000fac:	3710      	adds	r7, #16
 8000fae:	46bd      	mov	sp, r7
 8000fb0:	bd80      	pop	{r7, pc}
 8000fb2:	bf00      	nop
 8000fb4:	20000000 	.word	0x20000000

08000fb8 <dwt_softreset>:
 * output parameters
 *
 * no return value
 */
void dwt_softreset(void)
{
 8000fb8:	b580      	push	{r7, lr}
 8000fba:	af00      	add	r7, sp, #0
    _dwt_disablesequencing();
 8000fbc:	f7ff ffa2 	bl	8000f04 <_dwt_disablesequencing>

    // Clear any AON auto download bits (as reset will trigger AON download)
    dwt_write16bitoffsetreg(AON_ID, AON_WCFG_OFFSET, 0x00);
 8000fc0:	2200      	movs	r2, #0
 8000fc2:	2100      	movs	r1, #0
 8000fc4:	202c      	movs	r0, #44	; 0x2c
 8000fc6:	f7ff fe5f 	bl	8000c88 <dwt_write16bitoffsetreg>
    // Clear the wake-up configuration
    dwt_write8bitoffsetreg(AON_ID, AON_CFG0_OFFSET, 0x00);
 8000fca:	2200      	movs	r2, #0
 8000fcc:	2106      	movs	r1, #6
 8000fce:	202c      	movs	r0, #44	; 0x2c
 8000fd0:	f7ff fe47 	bl	8000c62 <dwt_write8bitoffsetreg>
    // Upload the new configuration
    _dwt_aonarrayupload();
 8000fd4:	f7ff feba 	bl	8000d4c <_dwt_aonarrayupload>

    // Reset HIF, TX, RX and PMSC (set the reset bits)
    dwt_write8bitoffsetreg(PMSC_ID, PMSC_CTRL0_SOFTRESET_OFFSET, PMSC_CTRL0_RESET_ALL);
 8000fd8:	2200      	movs	r2, #0
 8000fda:	2103      	movs	r1, #3
 8000fdc:	2036      	movs	r0, #54	; 0x36
 8000fde:	f7ff fe40 	bl	8000c62 <dwt_write8bitoffsetreg>

    // DW1000 needs a 10us sleep to let clk PLL lock after reset - the PLL will automatically lock after the reset
    // Could also have polled the PLL lock flag, but then the SPI needs to be < 3MHz !! So a simple delay is easier
    deca_sleep(1);
 8000fe2:	2001      	movs	r0, #1
 8000fe4:	f000 f844 	bl	8001070 <deca_sleep>

    // Clear the reset bits
    dwt_write8bitoffsetreg(PMSC_ID, PMSC_CTRL0_SOFTRESET_OFFSET, PMSC_CTRL0_RESET_CLEAR);
 8000fe8:	22f0      	movs	r2, #240	; 0xf0
 8000fea:	2103      	movs	r1, #3
 8000fec:	2036      	movs	r0, #54	; 0x36
 8000fee:	f7ff fe38 	bl	8000c62 <dwt_write8bitoffsetreg>

    pdw1000local->wait4resp = 0;
 8000ff2:	4b03      	ldr	r3, [pc, #12]	; (8001000 <dwt_softreset+0x48>)
 8000ff4:	681b      	ldr	r3, [r3, #0]
 8000ff6:	2200      	movs	r2, #0
 8000ff8:	755a      	strb	r2, [r3, #21]
}
 8000ffa:	bf00      	nop
 8000ffc:	bd80      	pop	{r7, pc}
 8000ffe:	bf00      	nop
 8001000:	20000000 	.word	0x20000000

08001004 <dwt_setxtaltrim>:
 * output parameters
 *
 * no return value
 */
void dwt_setxtaltrim(uint8 value)
{
 8001004:	b580      	push	{r7, lr}
 8001006:	b084      	sub	sp, #16
 8001008:	af00      	add	r7, sp, #0
 800100a:	4603      	mov	r3, r0
 800100c:	71fb      	strb	r3, [r7, #7]
    // The 3 MSb in this 8-bit register must be kept to 0b011 to avoid any malfunction.
    uint8 reg_val = (3 << 5) | (value & FS_XTALT_MASK);
 800100e:	f997 3007 	ldrsb.w	r3, [r7, #7]
 8001012:	f003 031f 	and.w	r3, r3, #31
 8001016:	b25b      	sxtb	r3, r3
 8001018:	f043 0360 	orr.w	r3, r3, #96	; 0x60
 800101c:	b25b      	sxtb	r3, r3
 800101e:	73fb      	strb	r3, [r7, #15]
    dwt_write8bitoffsetreg(FS_CTRL_ID, FS_XTALT_OFFSET, reg_val);
 8001020:	7bfb      	ldrb	r3, [r7, #15]
 8001022:	461a      	mov	r2, r3
 8001024:	210e      	movs	r1, #14
 8001026:	202b      	movs	r0, #43	; 0x2b
 8001028:	f7ff fe1b 	bl	8000c62 <dwt_write8bitoffsetreg>
}
 800102c:	bf00      	nop
 800102e:	3710      	adds	r7, #16
 8001030:	46bd      	mov	sp, r7
 8001032:	bd80      	pop	{r7, pc}

08001034 <decamutexon>:
 * output parameters
 *
 * returns the state of the DW1000 interrupt
 */
decaIrqStatus_t decamutexon(void)           
{
 8001034:	b580      	push	{r7, lr}
 8001036:	b082      	sub	sp, #8
 8001038:	af00      	add	r7, sp, #0
	decaIrqStatus_t s = port_GetEXT_IRQStatus();
 800103a:	f000 f98d 	bl	8001358 <port_GetEXT_IRQStatus>
 800103e:	4603      	mov	r3, r0
 8001040:	607b      	str	r3, [r7, #4]

	if(s) {
 8001042:	687b      	ldr	r3, [r7, #4]
 8001044:	2b00      	cmp	r3, #0
 8001046:	d001      	beq.n	800104c <decamutexon+0x18>
		port_DisableEXT_IRQ(); //disable the external interrupt line
 8001048:	f000 f978 	bl	800133c <port_DisableEXT_IRQ>
	}
	return s ;   // return state before disable, value is used to re-enable in decamutexoff call
 800104c:	687b      	ldr	r3, [r7, #4]
}
 800104e:	4618      	mov	r0, r3
 8001050:	3708      	adds	r7, #8
 8001052:	46bd      	mov	sp, r7
 8001054:	bd80      	pop	{r7, pc}

08001056 <decamutexoff>:
 * output parameters
 *
 * returns the state of the DW1000 interrupt
 */
void decamutexoff(decaIrqStatus_t s)        // put a function here that re-enables the interrupt at the end of the critical section
{
 8001056:	b580      	push	{r7, lr}
 8001058:	b082      	sub	sp, #8
 800105a:	af00      	add	r7, sp, #0
 800105c:	6078      	str	r0, [r7, #4]
	if(s) { //need to check the port state as we can't use level sensitive interrupt on the STM ARM
 800105e:	687b      	ldr	r3, [r7, #4]
 8001060:	2b00      	cmp	r3, #0
 8001062:	d001      	beq.n	8001068 <decamutexoff+0x12>
		port_EnableEXT_IRQ();
 8001064:	f000 f971 	bl	800134a <port_EnableEXT_IRQ>
	}
}
 8001068:	bf00      	nop
 800106a:	3708      	adds	r7, #8
 800106c:	46bd      	mov	sp, r7
 800106e:	bd80      	pop	{r7, pc}

08001070 <deca_sleep>:
#include "sleep.h"
#include "port.h"

/* Wrapper function to be used by decadriver. Declared in deca_device_api.h */
__INLINE void deca_sleep(unsigned int time_ms)
{
 8001070:	b580      	push	{r7, lr}
 8001072:	b082      	sub	sp, #8
 8001074:	af00      	add	r7, sp, #0
 8001076:	6078      	str	r0, [r7, #4]
	Sleep(time_ms);
 8001078:	6878      	ldr	r0, [r7, #4]
 800107a:	f000 f8c3 	bl	8001204 <Sleep>
}
 800107e:	bf00      	nop
 8001080:	3708      	adds	r7, #8
 8001082:	46bd      	mov	sp, r7
 8001084:	bd80      	pop	{r7, pc}
	...

08001088 <writetospi>:
#pragma GCC optimize ("O3")
int writetospi(uint16_t headerLength,
               const    uint8_t *headerBuffer,
               uint32_t bodyLength,
               const    uint8_t *bodyBuffer)
{
 8001088:	e92d 4f70 	stmdb	sp!, {r4, r5, r6, r8, r9, sl, fp, lr}
 800108c:	4683      	mov	fp, r0
 800108e:	468a      	mov	sl, r1
 8001090:	4691      	mov	r9, r2
 8001092:	4698      	mov	r8, r3
    decaIrqStatus_t  stat ;
    stat = decamutexon() ;
 8001094:	f7ff ffce 	bl	8001034 <decamutexon>
 8001098:	4606      	mov	r6, r0

    while (HAL_SPI_GetState(&hspi1) != HAL_SPI_STATE_READY);
 800109a:	4d13      	ldr	r5, [pc, #76]	; (80010e8 <writetospi+0x60>)
 800109c:	4628      	mov	r0, r5
 800109e:	f003 fa58 	bl	8004552 <HAL_SPI_GetState>
 80010a2:	2801      	cmp	r0, #1
 80010a4:	4604      	mov	r4, r0
 80010a6:	d1f9      	bne.n	800109c <writetospi+0x14>

    HAL_GPIO_WritePin(DW_CS_GPIO_Port, DW_CS_Pin, GPIO_PIN_RESET); /**< Put chip select line low */
 80010a8:	2200      	movs	r2, #0
 80010aa:	2140      	movs	r1, #64	; 0x40
 80010ac:	480f      	ldr	r0, [pc, #60]	; (80010ec <writetospi+0x64>)
 80010ae:	f001 fbd5 	bl	800285c <HAL_GPIO_WritePin>

    HAL_SPI_Transmit(&hspi1, (uint8_t *)&headerBuffer[0], headerLength, HAL_MAX_DELAY);    /* Send header in polling mode */
 80010b2:	465a      	mov	r2, fp
 80010b4:	4651      	mov	r1, sl
 80010b6:	f04f 33ff 	mov.w	r3, #4294967295
 80010ba:	480b      	ldr	r0, [pc, #44]	; (80010e8 <writetospi+0x60>)
 80010bc:	f002 fffd 	bl	80040ba <HAL_SPI_Transmit>
    HAL_SPI_Transmit(&hspi1, (uint8_t *)&bodyBuffer[0], bodyLength, HAL_MAX_DELAY);        /* Send data in polling mode */
 80010c0:	f04f 33ff 	mov.w	r3, #4294967295
 80010c4:	4641      	mov	r1, r8
 80010c6:	fa1f f289 	uxth.w	r2, r9
 80010ca:	4807      	ldr	r0, [pc, #28]	; (80010e8 <writetospi+0x60>)
 80010cc:	f002 fff5 	bl	80040ba <HAL_SPI_Transmit>

    HAL_GPIO_WritePin(DW_CS_GPIO_Port, DW_CS_Pin, GPIO_PIN_SET); /**< Put chip select line high */
 80010d0:	4622      	mov	r2, r4
 80010d2:	2140      	movs	r1, #64	; 0x40
 80010d4:	4805      	ldr	r0, [pc, #20]	; (80010ec <writetospi+0x64>)
 80010d6:	f001 fbc1 	bl	800285c <HAL_GPIO_WritePin>

    decamutexoff(stat);
 80010da:	4630      	mov	r0, r6
 80010dc:	f7ff ffbb 	bl	8001056 <decamutexoff>

    return 0;
} // end writetospi()
 80010e0:	2000      	movs	r0, #0
 80010e2:	e8bd 8f70 	ldmia.w	sp!, {r4, r5, r6, r8, r9, sl, fp, pc}
 80010e6:	bf00      	nop
 80010e8:	2000056c 	.word	0x2000056c
 80010ec:	40020400 	.word	0x40020400

080010f0 <readfromspi>:
#pragma GCC optimize ("O3")
int readfromspi(uint16_t headerLength,
                const uint8_t *headerBuffer,
                uint32_t readlength,
                uint8_t *readBuffer)
{
 80010f0:	e92d 4778 	stmdb	sp!, {r3, r4, r5, r6, r8, r9, sl, lr}
 80010f4:	4681      	mov	r9, r0
 80010f6:	460c      	mov	r4, r1
 80010f8:	4690      	mov	r8, r2
 80010fa:	461d      	mov	r5, r3
    int i;
    decaIrqStatus_t  stat ;
    stat = decamutexon() ;
 80010fc:	f7ff ff9a 	bl	8001034 <decamutexon>
 8001100:	4606      	mov	r6, r0

    /* Blocking: Check whether previous transfer has been finished */
    while (HAL_SPI_GetState(&hspi1) != HAL_SPI_STATE_READY);
 8001102:	f8df a07c 	ldr.w	sl, [pc, #124]	; 8001180 <readfromspi+0x90>
 8001106:	4650      	mov	r0, sl
 8001108:	f003 fa23 	bl	8004552 <HAL_SPI_GetState>
 800110c:	2801      	cmp	r0, #1
 800110e:	d1fa      	bne.n	8001106 <readfromspi+0x16>

    HAL_GPIO_WritePin(DW_CS_GPIO_Port, DW_CS_Pin, GPIO_PIN_RESET); /**< Put chip select line low */
 8001110:	2200      	movs	r2, #0
 8001112:	2140      	movs	r1, #64	; 0x40
 8001114:	4819      	ldr	r0, [pc, #100]	; (800117c <readfromspi+0x8c>)
 8001116:	f001 fba1 	bl	800285c <HAL_GPIO_WritePin>

    /* Send header */
    for(i=0; i<headerLength; i++)
 800111a:	f1b9 0f00 	cmp.w	r9, #0
 800111e:	d00c      	beq.n	800113a <readfromspi+0x4a>
    {
        HAL_SPI_Transmit(&hspi1, &headerBuffer[i], 1, HAL_MAX_DELAY); //No timeout
 8001120:	f8df a05c 	ldr.w	sl, [pc, #92]	; 8001180 <readfromspi+0x90>
 8001124:	44a1      	add	r9, r4
 8001126:	2201      	movs	r2, #1
 8001128:	4621      	mov	r1, r4
 800112a:	f04f 33ff 	mov.w	r3, #4294967295
 800112e:	4414      	add	r4, r2
 8001130:	4650      	mov	r0, sl
 8001132:	f002 ffc2 	bl	80040ba <HAL_SPI_Transmit>
    for(i=0; i<headerLength; i++)
 8001136:	454c      	cmp	r4, r9
 8001138:	d1f5      	bne.n	8001126 <readfromspi+0x36>
    }

    /* for the data buffer use LL functions directly as the HAL SPI read function
     * has issue reading single bytes */
    while(readlength-- > 0)
 800113a:	f1b8 0f00 	cmp.w	r8, #0
 800113e:	d012      	beq.n	8001166 <readfromspi+0x76>
        /* Wait until TXE flag is set to send data */
        while(__HAL_SPI_GET_FLAG(&hspi1, SPI_FLAG_TXE) == RESET)
        {
        }

        hspi1.Instance->DR = 0; /* set output to 0 (MOSI), this is necessary for
 8001140:	2400      	movs	r4, #0
 8001142:	f8df c03c 	ldr.w	ip, [pc, #60]	; 8001180 <readfromspi+0x90>
 8001146:	eb05 0008 	add.w	r0, r5, r8
        while(__HAL_SPI_GET_FLAG(&hspi1, SPI_FLAG_TXE) == RESET)
 800114a:	f8dc 2000 	ldr.w	r2, [ip]
 800114e:	6891      	ldr	r1, [r2, #8]
 8001150:	0789      	lsls	r1, r1, #30
 8001152:	d5fc      	bpl.n	800114e <readfromspi+0x5e>
        hspi1.Instance->DR = 0; /* set output to 0 (MOSI), this is necessary for
 8001154:	60d4      	str	r4, [r2, #12]
        e.g. when waking up DW1000 from DEEPSLEEP via dwt_spicswakeup() function.
        */

        /* Wait until RXNE flag is set to read data */
        while(__HAL_SPI_GET_FLAG(&hspi1, SPI_FLAG_RXNE) == RESET)
 8001156:	6891      	ldr	r1, [r2, #8]
 8001158:	07cb      	lsls	r3, r1, #31
 800115a:	d5fc      	bpl.n	8001156 <readfromspi+0x66>
        {
        }

        (*readBuffer++) = hspi1.Instance->DR;  //copy data read form (MISO)
 800115c:	68d3      	ldr	r3, [r2, #12]
 800115e:	f805 3b01 	strb.w	r3, [r5], #1
    while(readlength-- > 0)
 8001162:	4285      	cmp	r5, r0
 8001164:	d1f1      	bne.n	800114a <readfromspi+0x5a>
    }

    HAL_GPIO_WritePin(DW_CS_GPIO_Port, DW_CS_Pin, GPIO_PIN_SET); /**< Put chip select line high */
 8001166:	2201      	movs	r2, #1
 8001168:	2140      	movs	r1, #64	; 0x40
 800116a:	4804      	ldr	r0, [pc, #16]	; (800117c <readfromspi+0x8c>)
 800116c:	f001 fb76 	bl	800285c <HAL_GPIO_WritePin>

    decamutexoff(stat);
 8001170:	4630      	mov	r0, r6
 8001172:	f7ff ff70 	bl	8001056 <decamutexoff>

    return 0;
} // end readfromspi()
 8001176:	2000      	movs	r0, #0
 8001178:	e8bd 8778 	ldmia.w	sp!, {r3, r4, r5, r6, r8, r9, sl, pc}
 800117c:	40020400 	.word	0x40020400
 8001180:	2000056c 	.word	0x2000056c

08001184 <__NVIC_EnableIRQ>:
  \details Enables a device specific interrupt in the NVIC interrupt controller.
  \param [in]      IRQn  Device specific interrupt number.
  \note    IRQn must not be negative.
 */
__STATIC_INLINE void __NVIC_EnableIRQ(IRQn_Type IRQn)
{
 8001184:	b480      	push	{r7}
 8001186:	b083      	sub	sp, #12
 8001188:	af00      	add	r7, sp, #0
 800118a:	4603      	mov	r3, r0
 800118c:	71fb      	strb	r3, [r7, #7]
  if ((int32_t)(IRQn) >= 0)
 800118e:	f997 3007 	ldrsb.w	r3, [r7, #7]
 8001192:	2b00      	cmp	r3, #0
 8001194:	db0b      	blt.n	80011ae <__NVIC_EnableIRQ+0x2a>
  {
    NVIC->ISER[(((uint32_t)IRQn) >> 5UL)] = (uint32_t)(1UL << (((uint32_t)IRQn) & 0x1FUL));
 8001196:	79fb      	ldrb	r3, [r7, #7]
 8001198:	f003 021f 	and.w	r2, r3, #31
 800119c:	4906      	ldr	r1, [pc, #24]	; (80011b8 <__NVIC_EnableIRQ+0x34>)
 800119e:	f997 3007 	ldrsb.w	r3, [r7, #7]
 80011a2:	095b      	lsrs	r3, r3, #5
 80011a4:	2001      	movs	r0, #1
 80011a6:	fa00 f202 	lsl.w	r2, r0, r2
 80011aa:	f841 2023 	str.w	r2, [r1, r3, lsl #2]
  }
}
 80011ae:	bf00      	nop
 80011b0:	370c      	adds	r7, #12
 80011b2:	46bd      	mov	sp, r7
 80011b4:	bc80      	pop	{r7}
 80011b6:	4770      	bx	lr
 80011b8:	e000e100 	.word	0xe000e100

080011bc <__NVIC_DisableIRQ>:
  \details Disables a device specific interrupt in the NVIC interrupt controller.
  \param [in]      IRQn  Device specific interrupt number.
  \note    IRQn must not be negative.
 */
__STATIC_INLINE void __NVIC_DisableIRQ(IRQn_Type IRQn)
{
 80011bc:	b480      	push	{r7}
 80011be:	b083      	sub	sp, #12
 80011c0:	af00      	add	r7, sp, #0
 80011c2:	4603      	mov	r3, r0
 80011c4:	71fb      	strb	r3, [r7, #7]
  if ((int32_t)(IRQn) >= 0)
 80011c6:	f997 3007 	ldrsb.w	r3, [r7, #7]
 80011ca:	2b00      	cmp	r3, #0
 80011cc:	db12      	blt.n	80011f4 <__NVIC_DisableIRQ+0x38>
  {
    NVIC->ICER[(((uint32_t)IRQn) >> 5UL)] = (uint32_t)(1UL << (((uint32_t)IRQn) & 0x1FUL));
 80011ce:	79fb      	ldrb	r3, [r7, #7]
 80011d0:	f003 021f 	and.w	r2, r3, #31
 80011d4:	490a      	ldr	r1, [pc, #40]	; (8001200 <__NVIC_DisableIRQ+0x44>)
 80011d6:	f997 3007 	ldrsb.w	r3, [r7, #7]
 80011da:	095b      	lsrs	r3, r3, #5
 80011dc:	2001      	movs	r0, #1
 80011de:	fa00 f202 	lsl.w	r2, r0, r2
 80011e2:	3320      	adds	r3, #32
 80011e4:	f841 2023 	str.w	r2, [r1, r3, lsl #2]
  \details Acts as a special kind of Data Memory Barrier.
           It completes when all explicit memory accesses before this instruction complete.
 */
__STATIC_FORCEINLINE void __DSB(void)
{
  __ASM volatile ("dsb 0xF":::"memory");
 80011e8:	f3bf 8f4f 	dsb	sy
}
 80011ec:	bf00      	nop
  __ASM volatile ("isb 0xF":::"memory");
 80011ee:	f3bf 8f6f 	isb	sy
}
 80011f2:	bf00      	nop
    __DSB();
    __ISB();
  }
}
 80011f4:	bf00      	nop
 80011f6:	370c      	adds	r7, #12
 80011f8:	46bd      	mov	sp, r7
 80011fa:	bc80      	pop	{r7}
 80011fc:	4770      	bx	lr
 80011fe:	bf00      	nop
 8001200:	e000e100 	.word	0xe000e100

08001204 <Sleep>:
/* @fn    Sleep
 * @brief Sleep delay in ms using SysTick timer
 * */
__INLINE void
Sleep(uint32_t x)
{
 8001204:	b580      	push	{r7, lr}
 8001206:	b082      	sub	sp, #8
 8001208:	af00      	add	r7, sp, #0
 800120a:	6078      	str	r0, [r7, #4]
    HAL_Delay(x);
 800120c:	6878      	ldr	r0, [r7, #4]
 800120e:	f000 ffb5 	bl	800217c <HAL_Delay>
}
 8001212:	bf00      	nop
 8001214:	3708      	adds	r7, #8
 8001216:	46bd      	mov	sp, r7
 8001218:	bd80      	pop	{r7, pc}
	...

0800121c <EXTI_GetITEnStatus>:
  *   This parameter can be:
  *     @arg EXTI_Linex: External interrupt line x where x(0..19)
  * @retval The "enable" state of EXTI_Line (SET or RESET).
  */
ITStatus EXTI_GetITEnStatus(uint32_t x)
{
 800121c:	b480      	push	{r7}
 800121e:	b083      	sub	sp, #12
 8001220:	af00      	add	r7, sp, #0
 8001222:	6078      	str	r0, [r7, #4]
    return ((NVIC->ISER[(((uint32_t)x) >> 5UL)] &\
 8001224:	4a0a      	ldr	r2, [pc, #40]	; (8001250 <EXTI_GetITEnStatus+0x34>)
 8001226:	687b      	ldr	r3, [r7, #4]
 8001228:	095b      	lsrs	r3, r3, #5
 800122a:	f852 2023 	ldr.w	r2, [r2, r3, lsl #2]
            (uint32_t)(1UL << (((uint32_t)x) & 0x1FUL)) ) == (uint32_t)RESET)?(RESET):(SET);
 800122e:	687b      	ldr	r3, [r7, #4]
 8001230:	f003 031f 	and.w	r3, r3, #31
 8001234:	fa22 f303 	lsr.w	r3, r2, r3
 8001238:	f003 0301 	and.w	r3, r3, #1
 800123c:	2b00      	cmp	r3, #0
 800123e:	bf14      	ite	ne
 8001240:	2301      	movne	r3, #1
 8001242:	2300      	moveq	r3, #0
 8001244:	b2db      	uxtb	r3, r3
}
 8001246:	4618      	mov	r0, r3
 8001248:	370c      	adds	r7, #12
 800124a:	46bd      	mov	sp, r7
 800124c:	bc80      	pop	{r7}
 800124e:	4770      	bx	lr
 8001250:	e000e100 	.word	0xe000e100

08001254 <reset_DW1000>:
 *          In general it is output, but it also can be used to reset the digital
 *          part of DW1000 by driving this pin low.
 *          Note, the DW_RESET pin should not be driven high externally.
 * */
void reset_DW1000(void)
{
 8001254:	b580      	push	{r7, lr}
 8001256:	b086      	sub	sp, #24
 8001258:	af00      	add	r7, sp, #0
    GPIO_InitTypeDef    GPIO_InitStruct;

    // Enable GPIO used for DW1000 reset as open collector output
    GPIO_InitStruct.Pin = DW_RST_Pin;
 800125a:	2301      	movs	r3, #1
 800125c:	607b      	str	r3, [r7, #4]
    GPIO_InitStruct.Mode = GPIO_MODE_OUTPUT_OD;
 800125e:	2311      	movs	r3, #17
 8001260:	60bb      	str	r3, [r7, #8]
    GPIO_InitStruct.Speed = GPIO_SPEED_FREQ_LOW;
 8001262:	2300      	movs	r3, #0
 8001264:	613b      	str	r3, [r7, #16]
    HAL_GPIO_Init(DW_RST_GPIO_Port, &GPIO_InitStruct);
 8001266:	1d3b      	adds	r3, r7, #4
 8001268:	4619      	mov	r1, r3
 800126a:	480a      	ldr	r0, [pc, #40]	; (8001294 <reset_DW1000+0x40>)
 800126c:	f001 f966 	bl	800253c <HAL_GPIO_Init>

    //drive the RSTn pin low
    HAL_GPIO_WritePin(DW_RST_GPIO_Port, DW_RST_Pin, GPIO_PIN_RESET);
 8001270:	2200      	movs	r2, #0
 8001272:	2101      	movs	r1, #1
 8001274:	4807      	ldr	r0, [pc, #28]	; (8001294 <reset_DW1000+0x40>)
 8001276:	f001 faf1 	bl	800285c <HAL_GPIO_WritePin>

    Sleep(1);
 800127a:	2001      	movs	r0, #1
 800127c:	f7ff ffc2 	bl	8001204 <Sleep>

    //put the pin back to output open-drain (not active)
    setup_DW1000RSTnIRQ(0);
 8001280:	2000      	movs	r0, #0
 8001282:	f000 f809 	bl	8001298 <setup_DW1000RSTnIRQ>



    Sleep(2);
 8001286:	2002      	movs	r0, #2
 8001288:	f7ff ffbc 	bl	8001204 <Sleep>
}
 800128c:	bf00      	nop
 800128e:	3718      	adds	r7, #24
 8001290:	46bd      	mov	sp, r7
 8001292:	bd80      	pop	{r7, pc}
 8001294:	40020000 	.word	0x40020000

08001298 <setup_DW1000RSTnIRQ>:
 * @brief   setup the DW_RESET pin mode
 *          0 - output Open collector mode
 *          !0 - input mode with connected EXTI0 IRQ
 * */
void setup_DW1000RSTnIRQ(int enable)
{
 8001298:	b580      	push	{r7, lr}
 800129a:	b088      	sub	sp, #32
 800129c:	af00      	add	r7, sp, #0
 800129e:	6078      	str	r0, [r7, #4]
    GPIO_InitTypeDef GPIO_InitStruct;

    if(enable)
 80012a0:	687b      	ldr	r3, [r7, #4]
 80012a2:	2b00      	cmp	r3, #0
 80012a4:	d015      	beq.n	80012d2 <setup_DW1000RSTnIRQ+0x3a>
    {
        // Enable GPIO used as DECA RESET for interrupt
        GPIO_InitStruct.Pin = DW_RST_Pin;
 80012a6:	2301      	movs	r3, #1
 80012a8:	60fb      	str	r3, [r7, #12]
        GPIO_InitStruct.Mode = GPIO_MODE_IT_RISING;
 80012aa:	f44f 1388 	mov.w	r3, #1114112	; 0x110000
 80012ae:	613b      	str	r3, [r7, #16]
        GPIO_InitStruct.Pull = GPIO_NOPULL;
 80012b0:	2300      	movs	r3, #0
 80012b2:	617b      	str	r3, [r7, #20]
        HAL_GPIO_Init(DW_RST_GPIO_Port, &GPIO_InitStruct);
 80012b4:	f107 030c 	add.w	r3, r7, #12
 80012b8:	4619      	mov	r1, r3
 80012ba:	4813      	ldr	r0, [pc, #76]	; (8001308 <setup_DW1000RSTnIRQ+0x70>)
 80012bc:	f001 f93e 	bl	800253c <HAL_GPIO_Init>

        HAL_NVIC_EnableIRQ(EXTI0_IRQn);     //pin #0 -> EXTI #0
 80012c0:	2006      	movs	r0, #6
 80012c2:	f001 f894 	bl	80023ee <HAL_NVIC_EnableIRQ>
        HAL_NVIC_SetPriority(EXTI0_IRQn, 5, 0);
 80012c6:	2200      	movs	r2, #0
 80012c8:	2105      	movs	r1, #5
 80012ca:	2006      	movs	r0, #6
 80012cc:	f001 f873 	bl	80023b6 <HAL_NVIC_SetPriority>
        GPIO_InitStruct.Pull = GPIO_NOPULL;
        GPIO_InitStruct.Speed = GPIO_SPEED_FREQ_HIGH;
        HAL_GPIO_Init(DW_RST_GPIO_Port, &GPIO_InitStruct);
        HAL_GPIO_WritePin(DW_RST_GPIO_Port, DW_RST_Pin, GPIO_PIN_SET);
    }
}
 80012d0:	e015      	b.n	80012fe <setup_DW1000RSTnIRQ+0x66>
        HAL_NVIC_DisableIRQ(EXTI0_IRQn);    //pin #0 -> EXTI #0
 80012d2:	2006      	movs	r0, #6
 80012d4:	f001 f899 	bl	800240a <HAL_NVIC_DisableIRQ>
        GPIO_InitStruct.Pin = DW_RST_Pin;
 80012d8:	2301      	movs	r3, #1
 80012da:	60fb      	str	r3, [r7, #12]
        GPIO_InitStruct.Mode = GPIO_MODE_OUTPUT_OD;
 80012dc:	2311      	movs	r3, #17
 80012de:	613b      	str	r3, [r7, #16]
        GPIO_InitStruct.Pull = GPIO_NOPULL;
 80012e0:	2300      	movs	r3, #0
 80012e2:	617b      	str	r3, [r7, #20]
        GPIO_InitStruct.Speed = GPIO_SPEED_FREQ_HIGH;
 80012e4:	2302      	movs	r3, #2
 80012e6:	61bb      	str	r3, [r7, #24]
        HAL_GPIO_Init(DW_RST_GPIO_Port, &GPIO_InitStruct);
 80012e8:	f107 030c 	add.w	r3, r7, #12
 80012ec:	4619      	mov	r1, r3
 80012ee:	4806      	ldr	r0, [pc, #24]	; (8001308 <setup_DW1000RSTnIRQ+0x70>)
 80012f0:	f001 f924 	bl	800253c <HAL_GPIO_Init>
        HAL_GPIO_WritePin(DW_RST_GPIO_Port, DW_RST_Pin, GPIO_PIN_SET);
 80012f4:	2201      	movs	r2, #1
 80012f6:	2101      	movs	r1, #1
 80012f8:	4803      	ldr	r0, [pc, #12]	; (8001308 <setup_DW1000RSTnIRQ+0x70>)
 80012fa:	f001 faaf 	bl	800285c <HAL_GPIO_WritePin>
}
 80012fe:	bf00      	nop
 8001300:	3720      	adds	r7, #32
 8001302:	46bd      	mov	sp, r7
 8001304:	bd80      	pop	{r7, pc}
 8001306:	bf00      	nop
 8001308:	40020000 	.word	0x40020000

0800130c <port_set_dw1000_slowrate>:
/* @fn      port_set_dw1000_slowrate
 * @brief   set 2.25MHz
 *          note: hspi1 is clocked from 72MHz
 * */
void port_set_dw1000_slowrate(void)
{
 800130c:	b580      	push	{r7, lr}
 800130e:	af00      	add	r7, sp, #0
    hspi1.Init.BaudRatePrescaler = SPI_BAUDRATEPRESCALER_32;
 8001310:	4b03      	ldr	r3, [pc, #12]	; (8001320 <port_set_dw1000_slowrate+0x14>)
 8001312:	2220      	movs	r2, #32
 8001314:	61da      	str	r2, [r3, #28]
    HAL_SPI_Init(&hspi1);
 8001316:	4802      	ldr	r0, [pc, #8]	; (8001320 <port_set_dw1000_slowrate+0x14>)
 8001318:	f002 fe46 	bl	8003fa8 <HAL_SPI_Init>
}
 800131c:	bf00      	nop
 800131e:	bd80      	pop	{r7, pc}
 8001320:	2000056c 	.word	0x2000056c

08001324 <port_set_dw1000_fastrate>:
/* @fn      port_set_dw1000_fastrate
 * @brief   set 18MHz
 *          note: hspi1 is clocked from 72MHz
 * */
void port_set_dw1000_fastrate(void)
{
 8001324:	b580      	push	{r7, lr}
 8001326:	af00      	add	r7, sp, #0
    hspi1.Init.BaudRatePrescaler = SPI_BAUDRATEPRESCALER_4;
 8001328:	4b03      	ldr	r3, [pc, #12]	; (8001338 <port_set_dw1000_fastrate+0x14>)
 800132a:	2208      	movs	r2, #8
 800132c:	61da      	str	r2, [r3, #28]
    HAL_SPI_Init(&hspi1);
 800132e:	4802      	ldr	r0, [pc, #8]	; (8001338 <port_set_dw1000_fastrate+0x14>)
 8001330:	f002 fe3a 	bl	8003fa8 <HAL_SPI_Init>
}
 8001334:	bf00      	nop
 8001336:	bd80      	pop	{r7, pc}
 8001338:	2000056c 	.word	0x2000056c

0800133c <port_DisableEXT_IRQ>:
/* @fn      port_DisableEXT_IRQ
 * @brief   wrapper to disable DW_IRQ pin IRQ
 *          in current implementation it disables all IRQ from lines 5:9
 * */
__INLINE void port_DisableEXT_IRQ(void)
{
 800133c:	b580      	push	{r7, lr}
 800133e:	af00      	add	r7, sp, #0
    NVIC_DisableIRQ(DECAIRQ_EXTI_IRQn);
 8001340:	2017      	movs	r0, #23
 8001342:	f7ff ff3b 	bl	80011bc <__NVIC_DisableIRQ>
}
 8001346:	bf00      	nop
 8001348:	bd80      	pop	{r7, pc}

0800134a <port_EnableEXT_IRQ>:
/* @fn      port_EnableEXT_IRQ
 * @brief   wrapper to enable DW_IRQ pin IRQ
 *          in current implementation it enables all IRQ from lines 5:9
 * */
__INLINE void port_EnableEXT_IRQ(void)
{
 800134a:	b580      	push	{r7, lr}
 800134c:	af00      	add	r7, sp, #0
    NVIC_EnableIRQ(DECAIRQ_EXTI_IRQn);
 800134e:	2017      	movs	r0, #23
 8001350:	f7ff ff18 	bl	8001184 <__NVIC_EnableIRQ>
}
 8001354:	bf00      	nop
 8001356:	bd80      	pop	{r7, pc}

08001358 <port_GetEXT_IRQStatus>:

/* @fn      port_GetEXT_IRQStatus
 * @brief   wrapper to read a DW_IRQ pin IRQ status
 * */
__INLINE uint32_t port_GetEXT_IRQStatus(void)
{
 8001358:	b580      	push	{r7, lr}
 800135a:	af00      	add	r7, sp, #0
    return EXTI_GetITEnStatus(DECAIRQ_EXTI_IRQn);
 800135c:	2017      	movs	r0, #23
 800135e:	f7ff ff5d 	bl	800121c <EXTI_GetITEnStatus>
 8001362:	4603      	mov	r3, r0
}
 8001364:	4618      	mov	r0, r3
 8001366:	bd80      	pop	{r7, pc}

08001368 <SSD1306_Init>:





uint8_t SSD1306_Init(void) {
 8001368:	b580      	push	{r7, lr}
 800136a:	b082      	sub	sp, #8
 800136c:	af00      	add	r7, sp, #0

	/* Init I2C */
	ssd1306_I2C_Init();
 800136e:	f000 fa1f 	bl	80017b0 <ssd1306_I2C_Init>
	
	/* Check if LCD connected to I2C */
	if (HAL_I2C_IsDeviceReady(&hi2c1, SSD1306_I2C_ADDR, 1, 20000) != HAL_OK) {
 8001372:	f644 6320 	movw	r3, #20000	; 0x4e20
 8001376:	2201      	movs	r2, #1
 8001378:	2178      	movs	r1, #120	; 0x78
 800137a:	485b      	ldr	r0, [pc, #364]	; (80014e8 <SSD1306_Init+0x180>)
 800137c:	f001 fcc8 	bl	8002d10 <HAL_I2C_IsDeviceReady>
 8001380:	4603      	mov	r3, r0
 8001382:	2b00      	cmp	r3, #0
 8001384:	d001      	beq.n	800138a <SSD1306_Init+0x22>
		/* Return false */
		return 0;
 8001386:	2300      	movs	r3, #0
 8001388:	e0a9      	b.n	80014de <SSD1306_Init+0x176>
	}
	
	/* A little delay */
	uint32_t p = 2500;
 800138a:	f640 13c4 	movw	r3, #2500	; 0x9c4
 800138e:	607b      	str	r3, [r7, #4]
	while(p>0)
 8001390:	e002      	b.n	8001398 <SSD1306_Init+0x30>
		p--;
 8001392:	687b      	ldr	r3, [r7, #4]
 8001394:	3b01      	subs	r3, #1
 8001396:	607b      	str	r3, [r7, #4]
	while(p>0)
 8001398:	687b      	ldr	r3, [r7, #4]
 800139a:	2b00      	cmp	r3, #0
 800139c:	d1f9      	bne.n	8001392 <SSD1306_Init+0x2a>
	
	/* Init LCD */
	SSD1306_WRITECOMMAND(0xAE); //display off
 800139e:	22ae      	movs	r2, #174	; 0xae
 80013a0:	2100      	movs	r1, #0
 80013a2:	2078      	movs	r0, #120	; 0x78
 80013a4:	f000 fa60 	bl	8001868 <ssd1306_I2C_Write>
	SSD1306_WRITECOMMAND(0x20); //Set Memory Addressing Mode   
 80013a8:	2220      	movs	r2, #32
 80013aa:	2100      	movs	r1, #0
 80013ac:	2078      	movs	r0, #120	; 0x78
 80013ae:	f000 fa5b 	bl	8001868 <ssd1306_I2C_Write>
	SSD1306_WRITECOMMAND(0x10); //00,Horizontal Addressing Mode;01,Vertical Addressing Mode;10,Page Addressing Mode (RESET);11,Invalid
 80013b2:	2210      	movs	r2, #16
 80013b4:	2100      	movs	r1, #0
 80013b6:	2078      	movs	r0, #120	; 0x78
 80013b8:	f000 fa56 	bl	8001868 <ssd1306_I2C_Write>
	SSD1306_WRITECOMMAND(0xB0); //Set Page Start Address for Page Addressing Mode,0-7
 80013bc:	22b0      	movs	r2, #176	; 0xb0
 80013be:	2100      	movs	r1, #0
 80013c0:	2078      	movs	r0, #120	; 0x78
 80013c2:	f000 fa51 	bl	8001868 <ssd1306_I2C_Write>
	SSD1306_WRITECOMMAND(0xC8); //Set COM Output Scan Direction
 80013c6:	22c8      	movs	r2, #200	; 0xc8
 80013c8:	2100      	movs	r1, #0
 80013ca:	2078      	movs	r0, #120	; 0x78
 80013cc:	f000 fa4c 	bl	8001868 <ssd1306_I2C_Write>
	SSD1306_WRITECOMMAND(0x00); //---set low column address
 80013d0:	2200      	movs	r2, #0
 80013d2:	2100      	movs	r1, #0
 80013d4:	2078      	movs	r0, #120	; 0x78
 80013d6:	f000 fa47 	bl	8001868 <ssd1306_I2C_Write>
	SSD1306_WRITECOMMAND(0x10); //---set high column address
 80013da:	2210      	movs	r2, #16
 80013dc:	2100      	movs	r1, #0
 80013de:	2078      	movs	r0, #120	; 0x78
 80013e0:	f000 fa42 	bl	8001868 <ssd1306_I2C_Write>
	SSD1306_WRITECOMMAND(0x40); //--set start line address
 80013e4:	2240      	movs	r2, #64	; 0x40
 80013e6:	2100      	movs	r1, #0
 80013e8:	2078      	movs	r0, #120	; 0x78
 80013ea:	f000 fa3d 	bl	8001868 <ssd1306_I2C_Write>
	SSD1306_WRITECOMMAND(0x81); //--set contrast control register
 80013ee:	2281      	movs	r2, #129	; 0x81
 80013f0:	2100      	movs	r1, #0
 80013f2:	2078      	movs	r0, #120	; 0x78
 80013f4:	f000 fa38 	bl	8001868 <ssd1306_I2C_Write>
	SSD1306_WRITECOMMAND(0xFF);
 80013f8:	22ff      	movs	r2, #255	; 0xff
 80013fa:	2100      	movs	r1, #0
 80013fc:	2078      	movs	r0, #120	; 0x78
 80013fe:	f000 fa33 	bl	8001868 <ssd1306_I2C_Write>
	SSD1306_WRITECOMMAND(0xA1); //--set segment re-map 0 to 127
 8001402:	22a1      	movs	r2, #161	; 0xa1
 8001404:	2100      	movs	r1, #0
 8001406:	2078      	movs	r0, #120	; 0x78
 8001408:	f000 fa2e 	bl	8001868 <ssd1306_I2C_Write>
	SSD1306_WRITECOMMAND(0xA6); //--set normal display
 800140c:	22a6      	movs	r2, #166	; 0xa6
 800140e:	2100      	movs	r1, #0
 8001410:	2078      	movs	r0, #120	; 0x78
 8001412:	f000 fa29 	bl	8001868 <ssd1306_I2C_Write>
	SSD1306_WRITECOMMAND(0xA8); //--set multiplex ratio(1 to 64)
 8001416:	22a8      	movs	r2, #168	; 0xa8
 8001418:	2100      	movs	r1, #0
 800141a:	2078      	movs	r0, #120	; 0x78
 800141c:	f000 fa24 	bl	8001868 <ssd1306_I2C_Write>
	SSD1306_WRITECOMMAND(0x3F); //
 8001420:	223f      	movs	r2, #63	; 0x3f
 8001422:	2100      	movs	r1, #0
 8001424:	2078      	movs	r0, #120	; 0x78
 8001426:	f000 fa1f 	bl	8001868 <ssd1306_I2C_Write>
	SSD1306_WRITECOMMAND(0xA4); //0xa4,Output follows RAM content;0xa5,Output ignores RAM content
 800142a:	22a4      	movs	r2, #164	; 0xa4
 800142c:	2100      	movs	r1, #0
 800142e:	2078      	movs	r0, #120	; 0x78
 8001430:	f000 fa1a 	bl	8001868 <ssd1306_I2C_Write>
	SSD1306_WRITECOMMAND(0xD3); //-set display offset
 8001434:	22d3      	movs	r2, #211	; 0xd3
 8001436:	2100      	movs	r1, #0
 8001438:	2078      	movs	r0, #120	; 0x78
 800143a:	f000 fa15 	bl	8001868 <ssd1306_I2C_Write>
	SSD1306_WRITECOMMAND(0x00); //-not offset
 800143e:	2200      	movs	r2, #0
 8001440:	2100      	movs	r1, #0
 8001442:	2078      	movs	r0, #120	; 0x78
 8001444:	f000 fa10 	bl	8001868 <ssd1306_I2C_Write>
	SSD1306_WRITECOMMAND(0xD5); //--set display clock divide ratio/oscillator frequency
 8001448:	22d5      	movs	r2, #213	; 0xd5
 800144a:	2100      	movs	r1, #0
 800144c:	2078      	movs	r0, #120	; 0x78
 800144e:	f000 fa0b 	bl	8001868 <ssd1306_I2C_Write>
	SSD1306_WRITECOMMAND(0xF0); //--set divide ratio
 8001452:	22f0      	movs	r2, #240	; 0xf0
 8001454:	2100      	movs	r1, #0
 8001456:	2078      	movs	r0, #120	; 0x78
 8001458:	f000 fa06 	bl	8001868 <ssd1306_I2C_Write>
	SSD1306_WRITECOMMAND(0xD9); //--set pre-charge period
 800145c:	22d9      	movs	r2, #217	; 0xd9
 800145e:	2100      	movs	r1, #0
 8001460:	2078      	movs	r0, #120	; 0x78
 8001462:	f000 fa01 	bl	8001868 <ssd1306_I2C_Write>
	SSD1306_WRITECOMMAND(0x22); //
 8001466:	2222      	movs	r2, #34	; 0x22
 8001468:	2100      	movs	r1, #0
 800146a:	2078      	movs	r0, #120	; 0x78
 800146c:	f000 f9fc 	bl	8001868 <ssd1306_I2C_Write>
	SSD1306_WRITECOMMAND(0xDA); //--set com pins hardware configuration
 8001470:	22da      	movs	r2, #218	; 0xda
 8001472:	2100      	movs	r1, #0
 8001474:	2078      	movs	r0, #120	; 0x78
 8001476:	f000 f9f7 	bl	8001868 <ssd1306_I2C_Write>
	SSD1306_WRITECOMMAND(0x12);
 800147a:	2212      	movs	r2, #18
 800147c:	2100      	movs	r1, #0
 800147e:	2078      	movs	r0, #120	; 0x78
 8001480:	f000 f9f2 	bl	8001868 <ssd1306_I2C_Write>
	SSD1306_WRITECOMMAND(0xDB); //--set vcomh
 8001484:	22db      	movs	r2, #219	; 0xdb
 8001486:	2100      	movs	r1, #0
 8001488:	2078      	movs	r0, #120	; 0x78
 800148a:	f000 f9ed 	bl	8001868 <ssd1306_I2C_Write>
	SSD1306_WRITECOMMAND(0x20); //0x20,0.77xVcc
 800148e:	2220      	movs	r2, #32
 8001490:	2100      	movs	r1, #0
 8001492:	2078      	movs	r0, #120	; 0x78
 8001494:	f000 f9e8 	bl	8001868 <ssd1306_I2C_Write>
	SSD1306_WRITECOMMAND(0x8D); //--set DC-DC enable
 8001498:	228d      	movs	r2, #141	; 0x8d
 800149a:	2100      	movs	r1, #0
 800149c:	2078      	movs	r0, #120	; 0x78
 800149e:	f000 f9e3 	bl	8001868 <ssd1306_I2C_Write>
	SSD1306_WRITECOMMAND(0x14); //
 80014a2:	2214      	movs	r2, #20
 80014a4:	2100      	movs	r1, #0
 80014a6:	2078      	movs	r0, #120	; 0x78
 80014a8:	f000 f9de 	bl	8001868 <ssd1306_I2C_Write>
	SSD1306_WRITECOMMAND(0xAF); //--turn on SSD1306 panel
 80014ac:	22af      	movs	r2, #175	; 0xaf
 80014ae:	2100      	movs	r1, #0
 80014b0:	2078      	movs	r0, #120	; 0x78
 80014b2:	f000 f9d9 	bl	8001868 <ssd1306_I2C_Write>
	

	SSD1306_WRITECOMMAND(SSD1306_DEACTIVATE_SCROLL);
 80014b6:	222e      	movs	r2, #46	; 0x2e
 80014b8:	2100      	movs	r1, #0
 80014ba:	2078      	movs	r0, #120	; 0x78
 80014bc:	f000 f9d4 	bl	8001868 <ssd1306_I2C_Write>

	/* Clear screen */
	SSD1306_Fill(SSD1306_COLOR_BLACK);
 80014c0:	2000      	movs	r0, #0
 80014c2:	f000 f843 	bl	800154c <SSD1306_Fill>
	
	/* Update screen */
	SSD1306_UpdateScreen();
 80014c6:	f000 f813 	bl	80014f0 <SSD1306_UpdateScreen>
	
	/* Set default values */
	SSD1306.CurrentX = 0;
 80014ca:	4b08      	ldr	r3, [pc, #32]	; (80014ec <SSD1306_Init+0x184>)
 80014cc:	2200      	movs	r2, #0
 80014ce:	801a      	strh	r2, [r3, #0]
	SSD1306.CurrentY = 0;
 80014d0:	4b06      	ldr	r3, [pc, #24]	; (80014ec <SSD1306_Init+0x184>)
 80014d2:	2200      	movs	r2, #0
 80014d4:	805a      	strh	r2, [r3, #2]
	
	/* Initialized OK */
	SSD1306.Initialized = 1;
 80014d6:	4b05      	ldr	r3, [pc, #20]	; (80014ec <SSD1306_Init+0x184>)
 80014d8:	2201      	movs	r2, #1
 80014da:	715a      	strb	r2, [r3, #5]
	
	/* Return OK */
	return 1;
 80014dc:	2301      	movs	r3, #1
}
 80014de:	4618      	mov	r0, r3
 80014e0:	3708      	adds	r7, #8
 80014e2:	46bd      	mov	sp, r7
 80014e4:	bd80      	pop	{r7, pc}
 80014e6:	bf00      	nop
 80014e8:	20000518 	.word	0x20000518
 80014ec:	20000504 	.word	0x20000504

080014f0 <SSD1306_UpdateScreen>:

void SSD1306_UpdateScreen(void) {
 80014f0:	b580      	push	{r7, lr}
 80014f2:	b082      	sub	sp, #8
 80014f4:	af00      	add	r7, sp, #0
	uint8_t m;
	
	for (m = 0; m < 8; m++) {
 80014f6:	2300      	movs	r3, #0
 80014f8:	71fb      	strb	r3, [r7, #7]
 80014fa:	e01d      	b.n	8001538 <SSD1306_UpdateScreen+0x48>
		SSD1306_WRITECOMMAND(0xB0 + m);
 80014fc:	79fb      	ldrb	r3, [r7, #7]
 80014fe:	3b50      	subs	r3, #80	; 0x50
 8001500:	b2db      	uxtb	r3, r3
 8001502:	461a      	mov	r2, r3
 8001504:	2100      	movs	r1, #0
 8001506:	2078      	movs	r0, #120	; 0x78
 8001508:	f000 f9ae 	bl	8001868 <ssd1306_I2C_Write>
		SSD1306_WRITECOMMAND(0x00);
 800150c:	2200      	movs	r2, #0
 800150e:	2100      	movs	r1, #0
 8001510:	2078      	movs	r0, #120	; 0x78
 8001512:	f000 f9a9 	bl	8001868 <ssd1306_I2C_Write>
		SSD1306_WRITECOMMAND(0x10);
 8001516:	2210      	movs	r2, #16
 8001518:	2100      	movs	r1, #0
 800151a:	2078      	movs	r0, #120	; 0x78
 800151c:	f000 f9a4 	bl	8001868 <ssd1306_I2C_Write>
		
		/* Write multi data */
		ssd1306_I2C_WriteMulti(SSD1306_I2C_ADDR, 0x40, &SSD1306_Buffer[SSD1306_WIDTH * m], SSD1306_WIDTH);
 8001520:	79fb      	ldrb	r3, [r7, #7]
 8001522:	01db      	lsls	r3, r3, #7
 8001524:	4a08      	ldr	r2, [pc, #32]	; (8001548 <SSD1306_UpdateScreen+0x58>)
 8001526:	441a      	add	r2, r3
 8001528:	2380      	movs	r3, #128	; 0x80
 800152a:	2140      	movs	r1, #64	; 0x40
 800152c:	2078      	movs	r0, #120	; 0x78
 800152e:	f000 f953 	bl	80017d8 <ssd1306_I2C_WriteMulti>
	for (m = 0; m < 8; m++) {
 8001532:	79fb      	ldrb	r3, [r7, #7]
 8001534:	3301      	adds	r3, #1
 8001536:	71fb      	strb	r3, [r7, #7]
 8001538:	79fb      	ldrb	r3, [r7, #7]
 800153a:	2b07      	cmp	r3, #7
 800153c:	d9de      	bls.n	80014fc <SSD1306_UpdateScreen+0xc>
	}
}
 800153e:	bf00      	nop
 8001540:	bf00      	nop
 8001542:	3708      	adds	r7, #8
 8001544:	46bd      	mov	sp, r7
 8001546:	bd80      	pop	{r7, pc}
 8001548:	20000104 	.word	0x20000104

0800154c <SSD1306_Fill>:
	for (i = 0; i < sizeof(SSD1306_Buffer); i++) {
		SSD1306_Buffer[i] = ~SSD1306_Buffer[i];
	}
}

void SSD1306_Fill(SSD1306_COLOR_t color) {
 800154c:	b580      	push	{r7, lr}
 800154e:	b082      	sub	sp, #8
 8001550:	af00      	add	r7, sp, #0
 8001552:	4603      	mov	r3, r0
 8001554:	71fb      	strb	r3, [r7, #7]
	/* Set memory */
	memset(SSD1306_Buffer, (color == SSD1306_COLOR_BLACK) ? 0x00 : 0xFF, sizeof(SSD1306_Buffer));
 8001556:	79fb      	ldrb	r3, [r7, #7]
 8001558:	2b00      	cmp	r3, #0
 800155a:	d101      	bne.n	8001560 <SSD1306_Fill+0x14>
 800155c:	2300      	movs	r3, #0
 800155e:	e000      	b.n	8001562 <SSD1306_Fill+0x16>
 8001560:	23ff      	movs	r3, #255	; 0xff
 8001562:	f44f 6280 	mov.w	r2, #1024	; 0x400
 8001566:	4619      	mov	r1, r3
 8001568:	4803      	ldr	r0, [pc, #12]	; (8001578 <SSD1306_Fill+0x2c>)
 800156a:	f003 ff81 	bl	8005470 <memset>
}
 800156e:	bf00      	nop
 8001570:	3708      	adds	r7, #8
 8001572:	46bd      	mov	sp, r7
 8001574:	bd80      	pop	{r7, pc}
 8001576:	bf00      	nop
 8001578:	20000104 	.word	0x20000104

0800157c <SSD1306_DrawPixel>:

void SSD1306_DrawPixel(uint16_t x, uint16_t y, SSD1306_COLOR_t color) {
 800157c:	b480      	push	{r7}
 800157e:	b083      	sub	sp, #12
 8001580:	af00      	add	r7, sp, #0
 8001582:	4603      	mov	r3, r0
 8001584:	80fb      	strh	r3, [r7, #6]
 8001586:	460b      	mov	r3, r1
 8001588:	80bb      	strh	r3, [r7, #4]
 800158a:	4613      	mov	r3, r2
 800158c:	70fb      	strb	r3, [r7, #3]
	if (
 800158e:	88fb      	ldrh	r3, [r7, #6]
 8001590:	2b7f      	cmp	r3, #127	; 0x7f
 8001592:	d848      	bhi.n	8001626 <SSD1306_DrawPixel+0xaa>
		x >= SSD1306_WIDTH ||
 8001594:	88bb      	ldrh	r3, [r7, #4]
 8001596:	2b3f      	cmp	r3, #63	; 0x3f
 8001598:	d845      	bhi.n	8001626 <SSD1306_DrawPixel+0xaa>
		/* Error */
		return;
	}
	
	/* Check if pixels are inverted */
	if (SSD1306.Inverted) {
 800159a:	4b25      	ldr	r3, [pc, #148]	; (8001630 <SSD1306_DrawPixel+0xb4>)
 800159c:	791b      	ldrb	r3, [r3, #4]
 800159e:	2b00      	cmp	r3, #0
 80015a0:	d006      	beq.n	80015b0 <SSD1306_DrawPixel+0x34>
		color = (SSD1306_COLOR_t)!color;
 80015a2:	78fb      	ldrb	r3, [r7, #3]
 80015a4:	2b00      	cmp	r3, #0
 80015a6:	bf0c      	ite	eq
 80015a8:	2301      	moveq	r3, #1
 80015aa:	2300      	movne	r3, #0
 80015ac:	b2db      	uxtb	r3, r3
 80015ae:	70fb      	strb	r3, [r7, #3]
	}
	
	/* Set color */
	if (color == SSD1306_COLOR_WHITE) {
 80015b0:	78fb      	ldrb	r3, [r7, #3]
 80015b2:	2b01      	cmp	r3, #1
 80015b4:	d11a      	bne.n	80015ec <SSD1306_DrawPixel+0x70>
		SSD1306_Buffer[x + (y / 8) * SSD1306_WIDTH] |= 1 << (y % 8);
 80015b6:	88fa      	ldrh	r2, [r7, #6]
 80015b8:	88bb      	ldrh	r3, [r7, #4]
 80015ba:	08db      	lsrs	r3, r3, #3
 80015bc:	b298      	uxth	r0, r3
 80015be:	4603      	mov	r3, r0
 80015c0:	01db      	lsls	r3, r3, #7
 80015c2:	4413      	add	r3, r2
 80015c4:	4a1b      	ldr	r2, [pc, #108]	; (8001634 <SSD1306_DrawPixel+0xb8>)
 80015c6:	5cd3      	ldrb	r3, [r2, r3]
 80015c8:	b25a      	sxtb	r2, r3
 80015ca:	88bb      	ldrh	r3, [r7, #4]
 80015cc:	f003 0307 	and.w	r3, r3, #7
 80015d0:	2101      	movs	r1, #1
 80015d2:	fa01 f303 	lsl.w	r3, r1, r3
 80015d6:	b25b      	sxtb	r3, r3
 80015d8:	4313      	orrs	r3, r2
 80015da:	b259      	sxtb	r1, r3
 80015dc:	88fa      	ldrh	r2, [r7, #6]
 80015de:	4603      	mov	r3, r0
 80015e0:	01db      	lsls	r3, r3, #7
 80015e2:	4413      	add	r3, r2
 80015e4:	b2c9      	uxtb	r1, r1
 80015e6:	4a13      	ldr	r2, [pc, #76]	; (8001634 <SSD1306_DrawPixel+0xb8>)
 80015e8:	54d1      	strb	r1, [r2, r3]
 80015ea:	e01d      	b.n	8001628 <SSD1306_DrawPixel+0xac>
	} else {
		SSD1306_Buffer[x + (y / 8) * SSD1306_WIDTH] &= ~(1 << (y % 8));
 80015ec:	88fa      	ldrh	r2, [r7, #6]
 80015ee:	88bb      	ldrh	r3, [r7, #4]
 80015f0:	08db      	lsrs	r3, r3, #3
 80015f2:	b298      	uxth	r0, r3
 80015f4:	4603      	mov	r3, r0
 80015f6:	01db      	lsls	r3, r3, #7
 80015f8:	4413      	add	r3, r2
 80015fa:	4a0e      	ldr	r2, [pc, #56]	; (8001634 <SSD1306_DrawPixel+0xb8>)
 80015fc:	5cd3      	ldrb	r3, [r2, r3]
 80015fe:	b25a      	sxtb	r2, r3
 8001600:	88bb      	ldrh	r3, [r7, #4]
 8001602:	f003 0307 	and.w	r3, r3, #7
 8001606:	2101      	movs	r1, #1
 8001608:	fa01 f303 	lsl.w	r3, r1, r3
 800160c:	b25b      	sxtb	r3, r3
 800160e:	43db      	mvns	r3, r3
 8001610:	b25b      	sxtb	r3, r3
 8001612:	4013      	ands	r3, r2
 8001614:	b259      	sxtb	r1, r3
 8001616:	88fa      	ldrh	r2, [r7, #6]
 8001618:	4603      	mov	r3, r0
 800161a:	01db      	lsls	r3, r3, #7
 800161c:	4413      	add	r3, r2
 800161e:	b2c9      	uxtb	r1, r1
 8001620:	4a04      	ldr	r2, [pc, #16]	; (8001634 <SSD1306_DrawPixel+0xb8>)
 8001622:	54d1      	strb	r1, [r2, r3]
 8001624:	e000      	b.n	8001628 <SSD1306_DrawPixel+0xac>
		return;
 8001626:	bf00      	nop
	}
}
 8001628:	370c      	adds	r7, #12
 800162a:	46bd      	mov	sp, r7
 800162c:	bc80      	pop	{r7}
 800162e:	4770      	bx	lr
 8001630:	20000504 	.word	0x20000504
 8001634:	20000104 	.word	0x20000104

08001638 <SSD1306_GotoXY>:

void SSD1306_GotoXY(uint16_t x, uint16_t y) {
 8001638:	b480      	push	{r7}
 800163a:	b083      	sub	sp, #12
 800163c:	af00      	add	r7, sp, #0
 800163e:	4603      	mov	r3, r0
 8001640:	460a      	mov	r2, r1
 8001642:	80fb      	strh	r3, [r7, #6]
 8001644:	4613      	mov	r3, r2
 8001646:	80bb      	strh	r3, [r7, #4]
	/* Set write pointers */
	SSD1306.CurrentX = x;
 8001648:	4a05      	ldr	r2, [pc, #20]	; (8001660 <SSD1306_GotoXY+0x28>)
 800164a:	88fb      	ldrh	r3, [r7, #6]
 800164c:	8013      	strh	r3, [r2, #0]
	SSD1306.CurrentY = y;
 800164e:	4a04      	ldr	r2, [pc, #16]	; (8001660 <SSD1306_GotoXY+0x28>)
 8001650:	88bb      	ldrh	r3, [r7, #4]
 8001652:	8053      	strh	r3, [r2, #2]
}
 8001654:	bf00      	nop
 8001656:	370c      	adds	r7, #12
 8001658:	46bd      	mov	sp, r7
 800165a:	bc80      	pop	{r7}
 800165c:	4770      	bx	lr
 800165e:	bf00      	nop
 8001660:	20000504 	.word	0x20000504

08001664 <SSD1306_Putc>:

char SSD1306_Putc(char ch, FontDef_t* Font, SSD1306_COLOR_t color) {
 8001664:	b580      	push	{r7, lr}
 8001666:	b086      	sub	sp, #24
 8001668:	af00      	add	r7, sp, #0
 800166a:	4603      	mov	r3, r0
 800166c:	6039      	str	r1, [r7, #0]
 800166e:	71fb      	strb	r3, [r7, #7]
 8001670:	4613      	mov	r3, r2
 8001672:	71bb      	strb	r3, [r7, #6]
	uint32_t i, b, j;
	
	/* Check available space in LCD */
	if (
		SSD1306_WIDTH <= (SSD1306.CurrentX + Font->FontWidth) ||
 8001674:	4b3a      	ldr	r3, [pc, #232]	; (8001760 <SSD1306_Putc+0xfc>)
 8001676:	881b      	ldrh	r3, [r3, #0]
 8001678:	461a      	mov	r2, r3
 800167a:	683b      	ldr	r3, [r7, #0]
 800167c:	781b      	ldrb	r3, [r3, #0]
 800167e:	4413      	add	r3, r2
	if (
 8001680:	2b7f      	cmp	r3, #127	; 0x7f
 8001682:	dc07      	bgt.n	8001694 <SSD1306_Putc+0x30>
		SSD1306_HEIGHT <= (SSD1306.CurrentY + Font->FontHeight)
 8001684:	4b36      	ldr	r3, [pc, #216]	; (8001760 <SSD1306_Putc+0xfc>)
 8001686:	885b      	ldrh	r3, [r3, #2]
 8001688:	461a      	mov	r2, r3
 800168a:	683b      	ldr	r3, [r7, #0]
 800168c:	785b      	ldrb	r3, [r3, #1]
 800168e:	4413      	add	r3, r2
		SSD1306_WIDTH <= (SSD1306.CurrentX + Font->FontWidth) ||
 8001690:	2b3f      	cmp	r3, #63	; 0x3f
 8001692:	dd01      	ble.n	8001698 <SSD1306_Putc+0x34>
	) {
		/* Error */
		return 0;
 8001694:	2300      	movs	r3, #0
 8001696:	e05e      	b.n	8001756 <SSD1306_Putc+0xf2>
	}
	
	/* Go through font */
	for (i = 0; i < Font->FontHeight; i++) {
 8001698:	2300      	movs	r3, #0
 800169a:	617b      	str	r3, [r7, #20]
 800169c:	e04b      	b.n	8001736 <SSD1306_Putc+0xd2>
		b = Font->data[(ch - 32) * Font->FontHeight + i];
 800169e:	683b      	ldr	r3, [r7, #0]
 80016a0:	685a      	ldr	r2, [r3, #4]
 80016a2:	79fb      	ldrb	r3, [r7, #7]
 80016a4:	3b20      	subs	r3, #32
 80016a6:	6839      	ldr	r1, [r7, #0]
 80016a8:	7849      	ldrb	r1, [r1, #1]
 80016aa:	fb01 f303 	mul.w	r3, r1, r3
 80016ae:	4619      	mov	r1, r3
 80016b0:	697b      	ldr	r3, [r7, #20]
 80016b2:	440b      	add	r3, r1
 80016b4:	005b      	lsls	r3, r3, #1
 80016b6:	4413      	add	r3, r2
 80016b8:	881b      	ldrh	r3, [r3, #0]
 80016ba:	60fb      	str	r3, [r7, #12]
		for (j = 0; j < Font->FontWidth; j++) {
 80016bc:	2300      	movs	r3, #0
 80016be:	613b      	str	r3, [r7, #16]
 80016c0:	e030      	b.n	8001724 <SSD1306_Putc+0xc0>
			if ((b << j) & 0x8000) {
 80016c2:	68fa      	ldr	r2, [r7, #12]
 80016c4:	693b      	ldr	r3, [r7, #16]
 80016c6:	fa02 f303 	lsl.w	r3, r2, r3
 80016ca:	f403 4300 	and.w	r3, r3, #32768	; 0x8000
 80016ce:	2b00      	cmp	r3, #0
 80016d0:	d010      	beq.n	80016f4 <SSD1306_Putc+0x90>
				SSD1306_DrawPixel(SSD1306.CurrentX + j, (SSD1306.CurrentY + i), (SSD1306_COLOR_t) color);
 80016d2:	4b23      	ldr	r3, [pc, #140]	; (8001760 <SSD1306_Putc+0xfc>)
 80016d4:	881a      	ldrh	r2, [r3, #0]
 80016d6:	693b      	ldr	r3, [r7, #16]
 80016d8:	b29b      	uxth	r3, r3
 80016da:	4413      	add	r3, r2
 80016dc:	b298      	uxth	r0, r3
 80016de:	4b20      	ldr	r3, [pc, #128]	; (8001760 <SSD1306_Putc+0xfc>)
 80016e0:	885a      	ldrh	r2, [r3, #2]
 80016e2:	697b      	ldr	r3, [r7, #20]
 80016e4:	b29b      	uxth	r3, r3
 80016e6:	4413      	add	r3, r2
 80016e8:	b29b      	uxth	r3, r3
 80016ea:	79ba      	ldrb	r2, [r7, #6]
 80016ec:	4619      	mov	r1, r3
 80016ee:	f7ff ff45 	bl	800157c <SSD1306_DrawPixel>
 80016f2:	e014      	b.n	800171e <SSD1306_Putc+0xba>
			} else {
				SSD1306_DrawPixel(SSD1306.CurrentX + j, (SSD1306.CurrentY + i), (SSD1306_COLOR_t)!color);
 80016f4:	4b1a      	ldr	r3, [pc, #104]	; (8001760 <SSD1306_Putc+0xfc>)
 80016f6:	881a      	ldrh	r2, [r3, #0]
 80016f8:	693b      	ldr	r3, [r7, #16]
 80016fa:	b29b      	uxth	r3, r3
 80016fc:	4413      	add	r3, r2
 80016fe:	b298      	uxth	r0, r3
 8001700:	4b17      	ldr	r3, [pc, #92]	; (8001760 <SSD1306_Putc+0xfc>)
 8001702:	885a      	ldrh	r2, [r3, #2]
 8001704:	697b      	ldr	r3, [r7, #20]
 8001706:	b29b      	uxth	r3, r3
 8001708:	4413      	add	r3, r2
 800170a:	b299      	uxth	r1, r3
 800170c:	79bb      	ldrb	r3, [r7, #6]
 800170e:	2b00      	cmp	r3, #0
 8001710:	bf0c      	ite	eq
 8001712:	2301      	moveq	r3, #1
 8001714:	2300      	movne	r3, #0
 8001716:	b2db      	uxtb	r3, r3
 8001718:	461a      	mov	r2, r3
 800171a:	f7ff ff2f 	bl	800157c <SSD1306_DrawPixel>
		for (j = 0; j < Font->FontWidth; j++) {
 800171e:	693b      	ldr	r3, [r7, #16]
 8001720:	3301      	adds	r3, #1
 8001722:	613b      	str	r3, [r7, #16]
 8001724:	683b      	ldr	r3, [r7, #0]
 8001726:	781b      	ldrb	r3, [r3, #0]
 8001728:	461a      	mov	r2, r3
 800172a:	693b      	ldr	r3, [r7, #16]
 800172c:	4293      	cmp	r3, r2
 800172e:	d3c8      	bcc.n	80016c2 <SSD1306_Putc+0x5e>
	for (i = 0; i < Font->FontHeight; i++) {
 8001730:	697b      	ldr	r3, [r7, #20]
 8001732:	3301      	adds	r3, #1
 8001734:	617b      	str	r3, [r7, #20]
 8001736:	683b      	ldr	r3, [r7, #0]
 8001738:	785b      	ldrb	r3, [r3, #1]
 800173a:	461a      	mov	r2, r3
 800173c:	697b      	ldr	r3, [r7, #20]
 800173e:	4293      	cmp	r3, r2
 8001740:	d3ad      	bcc.n	800169e <SSD1306_Putc+0x3a>
			}
		}
	}
	
	/* Increase pointer */
	SSD1306.CurrentX += Font->FontWidth;
 8001742:	4b07      	ldr	r3, [pc, #28]	; (8001760 <SSD1306_Putc+0xfc>)
 8001744:	881a      	ldrh	r2, [r3, #0]
 8001746:	683b      	ldr	r3, [r7, #0]
 8001748:	781b      	ldrb	r3, [r3, #0]
 800174a:	b29b      	uxth	r3, r3
 800174c:	4413      	add	r3, r2
 800174e:	b29a      	uxth	r2, r3
 8001750:	4b03      	ldr	r3, [pc, #12]	; (8001760 <SSD1306_Putc+0xfc>)
 8001752:	801a      	strh	r2, [r3, #0]
	
	/* Return character written */
	return ch;
 8001754:	79fb      	ldrb	r3, [r7, #7]
}
 8001756:	4618      	mov	r0, r3
 8001758:	3718      	adds	r7, #24
 800175a:	46bd      	mov	sp, r7
 800175c:	bd80      	pop	{r7, pc}
 800175e:	bf00      	nop
 8001760:	20000504 	.word	0x20000504

08001764 <SSD1306_Puts>:

char SSD1306_Puts(char* str, FontDef_t* Font, SSD1306_COLOR_t color) {
 8001764:	b580      	push	{r7, lr}
 8001766:	b084      	sub	sp, #16
 8001768:	af00      	add	r7, sp, #0
 800176a:	60f8      	str	r0, [r7, #12]
 800176c:	60b9      	str	r1, [r7, #8]
 800176e:	4613      	mov	r3, r2
 8001770:	71fb      	strb	r3, [r7, #7]
	/* Write characters */
	while (*str) {
 8001772:	e012      	b.n	800179a <SSD1306_Puts+0x36>
		/* Write character by character */
		if (SSD1306_Putc(*str, Font, color) != *str) {
 8001774:	68fb      	ldr	r3, [r7, #12]
 8001776:	781b      	ldrb	r3, [r3, #0]
 8001778:	79fa      	ldrb	r2, [r7, #7]
 800177a:	68b9      	ldr	r1, [r7, #8]
 800177c:	4618      	mov	r0, r3
 800177e:	f7ff ff71 	bl	8001664 <SSD1306_Putc>
 8001782:	4603      	mov	r3, r0
 8001784:	461a      	mov	r2, r3
 8001786:	68fb      	ldr	r3, [r7, #12]
 8001788:	781b      	ldrb	r3, [r3, #0]
 800178a:	429a      	cmp	r2, r3
 800178c:	d002      	beq.n	8001794 <SSD1306_Puts+0x30>
			/* Return error */
			return *str;
 800178e:	68fb      	ldr	r3, [r7, #12]
 8001790:	781b      	ldrb	r3, [r3, #0]
 8001792:	e008      	b.n	80017a6 <SSD1306_Puts+0x42>
		}
		
		/* Increase string pointer */
		str++;
 8001794:	68fb      	ldr	r3, [r7, #12]
 8001796:	3301      	adds	r3, #1
 8001798:	60fb      	str	r3, [r7, #12]
	while (*str) {
 800179a:	68fb      	ldr	r3, [r7, #12]
 800179c:	781b      	ldrb	r3, [r3, #0]
 800179e:	2b00      	cmp	r3, #0
 80017a0:	d1e8      	bne.n	8001774 <SSD1306_Puts+0x10>
	}
	
	/* Everything OK, zero should be returned */
	return *str;
 80017a2:	68fb      	ldr	r3, [r7, #12]
 80017a4:	781b      	ldrb	r3, [r3, #0]
}
 80017a6:	4618      	mov	r0, r3
 80017a8:	3710      	adds	r7, #16
 80017aa:	46bd      	mov	sp, r7
 80017ac:	bd80      	pop	{r7, pc}
	...

080017b0 <ssd1306_I2C_Init>:
//  _| |_ / /_| |____ 
// |_____|____|\_____|
//
/////////////////////////////////////////////////////////////////////////////////////////////////////////

void ssd1306_I2C_Init() {
 80017b0:	b480      	push	{r7}
 80017b2:	b083      	sub	sp, #12
 80017b4:	af00      	add	r7, sp, #0
	//MX_I2C1_Init();
	uint32_t p = 250000;
 80017b6:	4b07      	ldr	r3, [pc, #28]	; (80017d4 <ssd1306_I2C_Init+0x24>)
 80017b8:	607b      	str	r3, [r7, #4]
	while(p>0)
 80017ba:	e002      	b.n	80017c2 <ssd1306_I2C_Init+0x12>
		p--;
 80017bc:	687b      	ldr	r3, [r7, #4]
 80017be:	3b01      	subs	r3, #1
 80017c0:	607b      	str	r3, [r7, #4]
	while(p>0)
 80017c2:	687b      	ldr	r3, [r7, #4]
 80017c4:	2b00      	cmp	r3, #0
 80017c6:	d1f9      	bne.n	80017bc <ssd1306_I2C_Init+0xc>
	//HAL_I2C_DeInit(&hi2c1);
	//p = 250000;
	//while(p>0)
	//	p--;
	//MX_I2C1_Init();
}
 80017c8:	bf00      	nop
 80017ca:	bf00      	nop
 80017cc:	370c      	adds	r7, #12
 80017ce:	46bd      	mov	sp, r7
 80017d0:	bc80      	pop	{r7}
 80017d2:	4770      	bx	lr
 80017d4:	0003d090 	.word	0x0003d090

080017d8 <ssd1306_I2C_WriteMulti>:

void ssd1306_I2C_WriteMulti(uint8_t address, uint8_t reg, uint8_t* data, uint16_t count) {
 80017d8:	b590      	push	{r4, r7, lr}
 80017da:	b0c7      	sub	sp, #284	; 0x11c
 80017dc:	af02      	add	r7, sp, #8
 80017de:	4604      	mov	r4, r0
 80017e0:	4608      	mov	r0, r1
 80017e2:	4639      	mov	r1, r7
 80017e4:	600a      	str	r2, [r1, #0]
 80017e6:	4619      	mov	r1, r3
 80017e8:	1dfb      	adds	r3, r7, #7
 80017ea:	4622      	mov	r2, r4
 80017ec:	701a      	strb	r2, [r3, #0]
 80017ee:	1dbb      	adds	r3, r7, #6
 80017f0:	4602      	mov	r2, r0
 80017f2:	701a      	strb	r2, [r3, #0]
 80017f4:	1d3b      	adds	r3, r7, #4
 80017f6:	460a      	mov	r2, r1
 80017f8:	801a      	strh	r2, [r3, #0]
uint8_t dt[256];
dt[0] = reg;
 80017fa:	f107 030c 	add.w	r3, r7, #12
 80017fe:	1dba      	adds	r2, r7, #6
 8001800:	7812      	ldrb	r2, [r2, #0]
 8001802:	701a      	strb	r2, [r3, #0]
uint8_t i;
for(i = 0; i < count; i++)
 8001804:	2300      	movs	r3, #0
 8001806:	f887 310f 	strb.w	r3, [r7, #271]	; 0x10f
 800180a:	e010      	b.n	800182e <ssd1306_I2C_WriteMulti+0x56>
dt[i+1] = data[i];
 800180c:	f897 310f 	ldrb.w	r3, [r7, #271]	; 0x10f
 8001810:	463a      	mov	r2, r7
 8001812:	6812      	ldr	r2, [r2, #0]
 8001814:	441a      	add	r2, r3
 8001816:	f897 310f 	ldrb.w	r3, [r7, #271]	; 0x10f
 800181a:	3301      	adds	r3, #1
 800181c:	7811      	ldrb	r1, [r2, #0]
 800181e:	f107 020c 	add.w	r2, r7, #12
 8001822:	54d1      	strb	r1, [r2, r3]
for(i = 0; i < count; i++)
 8001824:	f897 310f 	ldrb.w	r3, [r7, #271]	; 0x10f
 8001828:	3301      	adds	r3, #1
 800182a:	f887 310f 	strb.w	r3, [r7, #271]	; 0x10f
 800182e:	f897 310f 	ldrb.w	r3, [r7, #271]	; 0x10f
 8001832:	b29b      	uxth	r3, r3
 8001834:	1d3a      	adds	r2, r7, #4
 8001836:	8812      	ldrh	r2, [r2, #0]
 8001838:	429a      	cmp	r2, r3
 800183a:	d8e7      	bhi.n	800180c <ssd1306_I2C_WriteMulti+0x34>
HAL_I2C_Master_Transmit(&hi2c1, address, dt, count+1, 10);
 800183c:	1dfb      	adds	r3, r7, #7
 800183e:	781b      	ldrb	r3, [r3, #0]
 8001840:	b299      	uxth	r1, r3
 8001842:	1d3b      	adds	r3, r7, #4
 8001844:	881b      	ldrh	r3, [r3, #0]
 8001846:	3301      	adds	r3, #1
 8001848:	b29b      	uxth	r3, r3
 800184a:	f107 020c 	add.w	r2, r7, #12
 800184e:	200a      	movs	r0, #10
 8001850:	9000      	str	r0, [sp, #0]
 8001852:	4804      	ldr	r0, [pc, #16]	; (8001864 <ssd1306_I2C_WriteMulti+0x8c>)
 8001854:	f001 f95e 	bl	8002b14 <HAL_I2C_Master_Transmit>
}
 8001858:	bf00      	nop
 800185a:	f507 778a 	add.w	r7, r7, #276	; 0x114
 800185e:	46bd      	mov	sp, r7
 8001860:	bd90      	pop	{r4, r7, pc}
 8001862:	bf00      	nop
 8001864:	20000518 	.word	0x20000518

08001868 <ssd1306_I2C_Write>:


void ssd1306_I2C_Write(uint8_t address, uint8_t reg, uint8_t data) {
 8001868:	b580      	push	{r7, lr}
 800186a:	b086      	sub	sp, #24
 800186c:	af02      	add	r7, sp, #8
 800186e:	4603      	mov	r3, r0
 8001870:	71fb      	strb	r3, [r7, #7]
 8001872:	460b      	mov	r3, r1
 8001874:	71bb      	strb	r3, [r7, #6]
 8001876:	4613      	mov	r3, r2
 8001878:	717b      	strb	r3, [r7, #5]
	uint8_t dt[2];
	dt[0] = reg;
 800187a:	79bb      	ldrb	r3, [r7, #6]
 800187c:	733b      	strb	r3, [r7, #12]
	dt[1] = data;
 800187e:	797b      	ldrb	r3, [r7, #5]
 8001880:	737b      	strb	r3, [r7, #13]
	HAL_I2C_Master_Transmit(&hi2c1, address, dt, 2, 10);
 8001882:	79fb      	ldrb	r3, [r7, #7]
 8001884:	b299      	uxth	r1, r3
 8001886:	f107 020c 	add.w	r2, r7, #12
 800188a:	230a      	movs	r3, #10
 800188c:	9300      	str	r3, [sp, #0]
 800188e:	2302      	movs	r3, #2
 8001890:	4803      	ldr	r0, [pc, #12]	; (80018a0 <ssd1306_I2C_Write+0x38>)
 8001892:	f001 f93f 	bl	8002b14 <HAL_I2C_Master_Transmit>
}
 8001896:	bf00      	nop
 8001898:	3710      	adds	r7, #16
 800189a:	46bd      	mov	sp, r7
 800189c:	bd80      	pop	{r7, pc}
 800189e:	bf00      	nop
 80018a0:	20000518 	.word	0x20000518

080018a4 <ssd1306_write>:

void ssd1306_write(uint32_t buff, FontDef_t Font)
{
 80018a4:	b580      	push	{r7, lr}
 80018a6:	b084      	sub	sp, #16
 80018a8:	af00      	add	r7, sp, #0
 80018aa:	60f8      	str	r0, [r7, #12]
 80018ac:	1d3b      	adds	r3, r7, #4
 80018ae:	e883 0006 	stmia.w	r3, {r1, r2}
//	SSD1306_Clear ();
//	SSD1306_Fill(SSD1306_COLOR_BLACK);
	SSD1306_Puts(buff, &Font, 1);
 80018b2:	68fb      	ldr	r3, [r7, #12]
 80018b4:	1d39      	adds	r1, r7, #4
 80018b6:	2201      	movs	r2, #1
 80018b8:	4618      	mov	r0, r3
 80018ba:	f7ff ff53 	bl	8001764 <SSD1306_Puts>
	SSD1306_UpdateScreen();
 80018be:	f7ff fe17 	bl	80014f0 <SSD1306_UpdateScreen>
}
 80018c2:	bf00      	nop
 80018c4:	3710      	adds	r7, #16
 80018c6:	46bd      	mov	sp, r7
 80018c8:	bd80      	pop	{r7, pc}
	...

080018cc <MX_GPIO_Init>:
        * Output
        * EVENT_OUT
        * EXTI
*/
void MX_GPIO_Init(void)
{
 80018cc:	b580      	push	{r7, lr}
 80018ce:	b08a      	sub	sp, #40	; 0x28
 80018d0:	af00      	add	r7, sp, #0

  GPIO_InitTypeDef GPIO_InitStruct = {0};
 80018d2:	f107 0314 	add.w	r3, r7, #20
 80018d6:	2200      	movs	r2, #0
 80018d8:	601a      	str	r2, [r3, #0]
 80018da:	605a      	str	r2, [r3, #4]
 80018dc:	609a      	str	r2, [r3, #8]
 80018de:	60da      	str	r2, [r3, #12]
 80018e0:	611a      	str	r2, [r3, #16]

  /* GPIO Ports Clock Enable */
  __HAL_RCC_GPIOC_CLK_ENABLE();
 80018e2:	4b33      	ldr	r3, [pc, #204]	; (80019b0 <MX_GPIO_Init+0xe4>)
 80018e4:	69db      	ldr	r3, [r3, #28]
 80018e6:	4a32      	ldr	r2, [pc, #200]	; (80019b0 <MX_GPIO_Init+0xe4>)
 80018e8:	f043 0304 	orr.w	r3, r3, #4
 80018ec:	61d3      	str	r3, [r2, #28]
 80018ee:	4b30      	ldr	r3, [pc, #192]	; (80019b0 <MX_GPIO_Init+0xe4>)
 80018f0:	69db      	ldr	r3, [r3, #28]
 80018f2:	f003 0304 	and.w	r3, r3, #4
 80018f6:	613b      	str	r3, [r7, #16]
 80018f8:	693b      	ldr	r3, [r7, #16]
  __HAL_RCC_GPIOH_CLK_ENABLE();
 80018fa:	4b2d      	ldr	r3, [pc, #180]	; (80019b0 <MX_GPIO_Init+0xe4>)
 80018fc:	69db      	ldr	r3, [r3, #28]
 80018fe:	4a2c      	ldr	r2, [pc, #176]	; (80019b0 <MX_GPIO_Init+0xe4>)
 8001900:	f043 0320 	orr.w	r3, r3, #32
 8001904:	61d3      	str	r3, [r2, #28]
 8001906:	4b2a      	ldr	r3, [pc, #168]	; (80019b0 <MX_GPIO_Init+0xe4>)
 8001908:	69db      	ldr	r3, [r3, #28]
 800190a:	f003 0320 	and.w	r3, r3, #32
 800190e:	60fb      	str	r3, [r7, #12]
 8001910:	68fb      	ldr	r3, [r7, #12]
  __HAL_RCC_GPIOA_CLK_ENABLE();
 8001912:	4b27      	ldr	r3, [pc, #156]	; (80019b0 <MX_GPIO_Init+0xe4>)
 8001914:	69db      	ldr	r3, [r3, #28]
 8001916:	4a26      	ldr	r2, [pc, #152]	; (80019b0 <MX_GPIO_Init+0xe4>)
 8001918:	f043 0301 	orr.w	r3, r3, #1
 800191c:	61d3      	str	r3, [r2, #28]
 800191e:	4b24      	ldr	r3, [pc, #144]	; (80019b0 <MX_GPIO_Init+0xe4>)
 8001920:	69db      	ldr	r3, [r3, #28]
 8001922:	f003 0301 	and.w	r3, r3, #1
 8001926:	60bb      	str	r3, [r7, #8]
 8001928:	68bb      	ldr	r3, [r7, #8]
  __HAL_RCC_GPIOB_CLK_ENABLE();
 800192a:	4b21      	ldr	r3, [pc, #132]	; (80019b0 <MX_GPIO_Init+0xe4>)
 800192c:	69db      	ldr	r3, [r3, #28]
 800192e:	4a20      	ldr	r2, [pc, #128]	; (80019b0 <MX_GPIO_Init+0xe4>)
 8001930:	f043 0302 	orr.w	r3, r3, #2
 8001934:	61d3      	str	r3, [r2, #28]
 8001936:	4b1e      	ldr	r3, [pc, #120]	; (80019b0 <MX_GPIO_Init+0xe4>)
 8001938:	69db      	ldr	r3, [r3, #28]
 800193a:	f003 0302 	and.w	r3, r3, #2
 800193e:	607b      	str	r3, [r7, #4]
 8001940:	687b      	ldr	r3, [r7, #4]

  /*Configure GPIO pin Output Level */
  HAL_GPIO_WritePin(DW_RST_GPIO_Port, DW_RST_Pin, GPIO_PIN_RESET);
 8001942:	2200      	movs	r2, #0
 8001944:	2101      	movs	r1, #1
 8001946:	481b      	ldr	r0, [pc, #108]	; (80019b4 <MX_GPIO_Init+0xe8>)
 8001948:	f000 ff88 	bl	800285c <HAL_GPIO_WritePin>

  /*Configure GPIO pin Output Level */
  HAL_GPIO_WritePin(DW_CS_GPIO_Port, DW_CS_Pin, GPIO_PIN_RESET);
 800194c:	2200      	movs	r2, #0
 800194e:	2140      	movs	r1, #64	; 0x40
 8001950:	4819      	ldr	r0, [pc, #100]	; (80019b8 <MX_GPIO_Init+0xec>)
 8001952:	f000 ff83 	bl	800285c <HAL_GPIO_WritePin>

  /*Configure GPIO pin : PtPin */
  GPIO_InitStruct.Pin = DW_RST_Pin;
 8001956:	2301      	movs	r3, #1
 8001958:	617b      	str	r3, [r7, #20]
  GPIO_InitStruct.Mode = GPIO_MODE_OUTPUT_PP;
 800195a:	2301      	movs	r3, #1
 800195c:	61bb      	str	r3, [r7, #24]
  GPIO_InitStruct.Pull = GPIO_NOPULL;
 800195e:	2300      	movs	r3, #0
 8001960:	61fb      	str	r3, [r7, #28]
  GPIO_InitStruct.Speed = GPIO_SPEED_FREQ_LOW;
 8001962:	2300      	movs	r3, #0
 8001964:	623b      	str	r3, [r7, #32]
  HAL_GPIO_Init(DW_RST_GPIO_Port, &GPIO_InitStruct);
 8001966:	f107 0314 	add.w	r3, r7, #20
 800196a:	4619      	mov	r1, r3
 800196c:	4811      	ldr	r0, [pc, #68]	; (80019b4 <MX_GPIO_Init+0xe8>)
 800196e:	f000 fde5 	bl	800253c <HAL_GPIO_Init>

  /*Configure GPIO pin : PtPin */
  GPIO_InitStruct.Pin = DW_IRQ_Pin;
 8001972:	2302      	movs	r3, #2
 8001974:	617b      	str	r3, [r7, #20]
  GPIO_InitStruct.Mode = GPIO_MODE_IT_RISING;
 8001976:	f44f 1388 	mov.w	r3, #1114112	; 0x110000
 800197a:	61bb      	str	r3, [r7, #24]
  GPIO_InitStruct.Pull = GPIO_NOPULL;
 800197c:	2300      	movs	r3, #0
 800197e:	61fb      	str	r3, [r7, #28]
  HAL_GPIO_Init(DW_IRQ_GPIO_Port, &GPIO_InitStruct);
 8001980:	f107 0314 	add.w	r3, r7, #20
 8001984:	4619      	mov	r1, r3
 8001986:	480b      	ldr	r0, [pc, #44]	; (80019b4 <MX_GPIO_Init+0xe8>)
 8001988:	f000 fdd8 	bl	800253c <HAL_GPIO_Init>

  /*Configure GPIO pin : PtPin */
  GPIO_InitStruct.Pin = DW_CS_Pin;
 800198c:	2340      	movs	r3, #64	; 0x40
 800198e:	617b      	str	r3, [r7, #20]
  GPIO_InitStruct.Mode = GPIO_MODE_OUTPUT_PP;
 8001990:	2301      	movs	r3, #1
 8001992:	61bb      	str	r3, [r7, #24]
  GPIO_InitStruct.Pull = GPIO_NOPULL;
 8001994:	2300      	movs	r3, #0
 8001996:	61fb      	str	r3, [r7, #28]
  GPIO_InitStruct.Speed = GPIO_SPEED_FREQ_LOW;
 8001998:	2300      	movs	r3, #0
 800199a:	623b      	str	r3, [r7, #32]
  HAL_GPIO_Init(DW_CS_GPIO_Port, &GPIO_InitStruct);
 800199c:	f107 0314 	add.w	r3, r7, #20
 80019a0:	4619      	mov	r1, r3
 80019a2:	4805      	ldr	r0, [pc, #20]	; (80019b8 <MX_GPIO_Init+0xec>)
 80019a4:	f000 fdca 	bl	800253c <HAL_GPIO_Init>

}
 80019a8:	bf00      	nop
 80019aa:	3728      	adds	r7, #40	; 0x28
 80019ac:	46bd      	mov	sp, r7
 80019ae:	bd80      	pop	{r7, pc}
 80019b0:	40023800 	.word	0x40023800
 80019b4:	40020000 	.word	0x40020000
 80019b8:	40020400 	.word	0x40020400

080019bc <MX_I2C1_Init>:

I2C_HandleTypeDef hi2c1;

/* I2C1 init function */
void MX_I2C1_Init(void)
{
 80019bc:	b580      	push	{r7, lr}
 80019be:	af00      	add	r7, sp, #0
  /* USER CODE END I2C1_Init 0 */

  /* USER CODE BEGIN I2C1_Init 1 */

  /* USER CODE END I2C1_Init 1 */
  hi2c1.Instance = I2C1;
 80019c0:	4b12      	ldr	r3, [pc, #72]	; (8001a0c <MX_I2C1_Init+0x50>)
 80019c2:	4a13      	ldr	r2, [pc, #76]	; (8001a10 <MX_I2C1_Init+0x54>)
 80019c4:	601a      	str	r2, [r3, #0]
  hi2c1.Init.ClockSpeed = 400000;
 80019c6:	4b11      	ldr	r3, [pc, #68]	; (8001a0c <MX_I2C1_Init+0x50>)
 80019c8:	4a12      	ldr	r2, [pc, #72]	; (8001a14 <MX_I2C1_Init+0x58>)
 80019ca:	605a      	str	r2, [r3, #4]
  hi2c1.Init.DutyCycle = I2C_DUTYCYCLE_2;
 80019cc:	4b0f      	ldr	r3, [pc, #60]	; (8001a0c <MX_I2C1_Init+0x50>)
 80019ce:	2200      	movs	r2, #0
 80019d0:	609a      	str	r2, [r3, #8]
  hi2c1.Init.OwnAddress1 = 0;
 80019d2:	4b0e      	ldr	r3, [pc, #56]	; (8001a0c <MX_I2C1_Init+0x50>)
 80019d4:	2200      	movs	r2, #0
 80019d6:	60da      	str	r2, [r3, #12]
  hi2c1.Init.AddressingMode = I2C_ADDRESSINGMODE_7BIT;
 80019d8:	4b0c      	ldr	r3, [pc, #48]	; (8001a0c <MX_I2C1_Init+0x50>)
 80019da:	f44f 4280 	mov.w	r2, #16384	; 0x4000
 80019de:	611a      	str	r2, [r3, #16]
  hi2c1.Init.DualAddressMode = I2C_DUALADDRESS_DISABLE;
 80019e0:	4b0a      	ldr	r3, [pc, #40]	; (8001a0c <MX_I2C1_Init+0x50>)
 80019e2:	2200      	movs	r2, #0
 80019e4:	615a      	str	r2, [r3, #20]
  hi2c1.Init.OwnAddress2 = 0;
 80019e6:	4b09      	ldr	r3, [pc, #36]	; (8001a0c <MX_I2C1_Init+0x50>)
 80019e8:	2200      	movs	r2, #0
 80019ea:	619a      	str	r2, [r3, #24]
  hi2c1.Init.GeneralCallMode = I2C_GENERALCALL_DISABLE;
 80019ec:	4b07      	ldr	r3, [pc, #28]	; (8001a0c <MX_I2C1_Init+0x50>)
 80019ee:	2200      	movs	r2, #0
 80019f0:	61da      	str	r2, [r3, #28]
  hi2c1.Init.NoStretchMode = I2C_NOSTRETCH_DISABLE;
 80019f2:	4b06      	ldr	r3, [pc, #24]	; (8001a0c <MX_I2C1_Init+0x50>)
 80019f4:	2200      	movs	r2, #0
 80019f6:	621a      	str	r2, [r3, #32]
  if (HAL_I2C_Init(&hi2c1) != HAL_OK)
 80019f8:	4804      	ldr	r0, [pc, #16]	; (8001a0c <MX_I2C1_Init+0x50>)
 80019fa:	f000 ff47 	bl	800288c <HAL_I2C_Init>
 80019fe:	4603      	mov	r3, r0
 8001a00:	2b00      	cmp	r3, #0
 8001a02:	d001      	beq.n	8001a08 <MX_I2C1_Init+0x4c>
  {
    Error_Handler();
 8001a04:	f000 f8b0 	bl	8001b68 <Error_Handler>
  }
  /* USER CODE BEGIN I2C1_Init 2 */

  /* USER CODE END I2C1_Init 2 */

}
 8001a08:	bf00      	nop
 8001a0a:	bd80      	pop	{r7, pc}
 8001a0c:	20000518 	.word	0x20000518
 8001a10:	40005400 	.word	0x40005400
 8001a14:	00061a80 	.word	0x00061a80

08001a18 <HAL_I2C_MspInit>:

void HAL_I2C_MspInit(I2C_HandleTypeDef* i2cHandle)
{
 8001a18:	b580      	push	{r7, lr}
 8001a1a:	b08a      	sub	sp, #40	; 0x28
 8001a1c:	af00      	add	r7, sp, #0
 8001a1e:	6078      	str	r0, [r7, #4]

  GPIO_InitTypeDef GPIO_InitStruct = {0};
 8001a20:	f107 0314 	add.w	r3, r7, #20
 8001a24:	2200      	movs	r2, #0
 8001a26:	601a      	str	r2, [r3, #0]
 8001a28:	605a      	str	r2, [r3, #4]
 8001a2a:	609a      	str	r2, [r3, #8]
 8001a2c:	60da      	str	r2, [r3, #12]
 8001a2e:	611a      	str	r2, [r3, #16]
  if(i2cHandle->Instance==I2C1)
 8001a30:	687b      	ldr	r3, [r7, #4]
 8001a32:	681b      	ldr	r3, [r3, #0]
 8001a34:	4a17      	ldr	r2, [pc, #92]	; (8001a94 <HAL_I2C_MspInit+0x7c>)
 8001a36:	4293      	cmp	r3, r2
 8001a38:	d128      	bne.n	8001a8c <HAL_I2C_MspInit+0x74>
  {
  /* USER CODE BEGIN I2C1_MspInit 0 */

  /* USER CODE END I2C1_MspInit 0 */

    __HAL_RCC_GPIOB_CLK_ENABLE();
 8001a3a:	4b17      	ldr	r3, [pc, #92]	; (8001a98 <HAL_I2C_MspInit+0x80>)
 8001a3c:	69db      	ldr	r3, [r3, #28]
 8001a3e:	4a16      	ldr	r2, [pc, #88]	; (8001a98 <HAL_I2C_MspInit+0x80>)
 8001a40:	f043 0302 	orr.w	r3, r3, #2
 8001a44:	61d3      	str	r3, [r2, #28]
 8001a46:	4b14      	ldr	r3, [pc, #80]	; (8001a98 <HAL_I2C_MspInit+0x80>)
 8001a48:	69db      	ldr	r3, [r3, #28]
 8001a4a:	f003 0302 	and.w	r3, r3, #2
 8001a4e:	613b      	str	r3, [r7, #16]
 8001a50:	693b      	ldr	r3, [r7, #16]
    /**I2C1 GPIO Configuration
    PB8     ------> I2C1_SCL
    PB9     ------> I2C1_SDA
    */
    GPIO_InitStruct.Pin = GPIO_PIN_8|GPIO_PIN_9;
 8001a52:	f44f 7340 	mov.w	r3, #768	; 0x300
 8001a56:	617b      	str	r3, [r7, #20]
    GPIO_InitStruct.Mode = GPIO_MODE_AF_OD;
 8001a58:	2312      	movs	r3, #18
 8001a5a:	61bb      	str	r3, [r7, #24]
    GPIO_InitStruct.Pull = GPIO_NOPULL;
 8001a5c:	2300      	movs	r3, #0
 8001a5e:	61fb      	str	r3, [r7, #28]
    GPIO_InitStruct.Speed = GPIO_SPEED_FREQ_VERY_HIGH;
 8001a60:	2303      	movs	r3, #3
 8001a62:	623b      	str	r3, [r7, #32]
    GPIO_InitStruct.Alternate = GPIO_AF4_I2C1;
 8001a64:	2304      	movs	r3, #4
 8001a66:	627b      	str	r3, [r7, #36]	; 0x24
    HAL_GPIO_Init(GPIOB, &GPIO_InitStruct);
 8001a68:	f107 0314 	add.w	r3, r7, #20
 8001a6c:	4619      	mov	r1, r3
 8001a6e:	480b      	ldr	r0, [pc, #44]	; (8001a9c <HAL_I2C_MspInit+0x84>)
 8001a70:	f000 fd64 	bl	800253c <HAL_GPIO_Init>

    /* I2C1 clock enable */
    __HAL_RCC_I2C1_CLK_ENABLE();
 8001a74:	4b08      	ldr	r3, [pc, #32]	; (8001a98 <HAL_I2C_MspInit+0x80>)
 8001a76:	6a5b      	ldr	r3, [r3, #36]	; 0x24
 8001a78:	4a07      	ldr	r2, [pc, #28]	; (8001a98 <HAL_I2C_MspInit+0x80>)
 8001a7a:	f443 1300 	orr.w	r3, r3, #2097152	; 0x200000
 8001a7e:	6253      	str	r3, [r2, #36]	; 0x24
 8001a80:	4b05      	ldr	r3, [pc, #20]	; (8001a98 <HAL_I2C_MspInit+0x80>)
 8001a82:	6a5b      	ldr	r3, [r3, #36]	; 0x24
 8001a84:	f403 1300 	and.w	r3, r3, #2097152	; 0x200000
 8001a88:	60fb      	str	r3, [r7, #12]
 8001a8a:	68fb      	ldr	r3, [r7, #12]
  /* USER CODE BEGIN I2C1_MspInit 1 */

  /* USER CODE END I2C1_MspInit 1 */
  }
}
 8001a8c:	bf00      	nop
 8001a8e:	3728      	adds	r7, #40	; 0x28
 8001a90:	46bd      	mov	sp, r7
 8001a92:	bd80      	pop	{r7, pc}
 8001a94:	40005400 	.word	0x40005400
 8001a98:	40023800 	.word	0x40023800
 8001a9c:	40020400 	.word	0x40020400

08001aa0 <main>:
/**
  * @brief  The application entry point.
  * @retval int
  */
int main(void)
{
 8001aa0:	b580      	push	{r7, lr}
 8001aa2:	af00      	add	r7, sp, #0
  /* USER CODE END 1 */

  /* MCU Configuration--------------------------------------------------------*/

  /* Reset of all peripherals, Initializes the Flash interface and the Systick. */
  HAL_Init();
 8001aa4:	f000 fafb 	bl	800209e <HAL_Init>
  /* USER CODE BEGIN Init */

  /* USER CODE END Init */

  /* Configure the system clock */
  SystemClock_Config();
 8001aa8:	f000 f810 	bl	8001acc <SystemClock_Config>
  /* USER CODE BEGIN SysInit */

  /* USER CODE END SysInit */

  /* Initialize all configured peripherals */
  MX_GPIO_Init();
 8001aac:	f7ff ff0e 	bl	80018cc <MX_GPIO_Init>
  MX_SPI1_Init();
 8001ab0:	f000 f860 	bl	8001b74 <MX_SPI1_Init>
  MX_USART2_UART_Init();
 8001ab4:	f000 fa58 	bl	8001f68 <MX_USART2_UART_Init>
  MX_I2C1_Init();
 8001ab8:	f7ff ff80 	bl	80019bc <MX_I2C1_Init>
  /* USER CODE BEGIN 2 */
  setup_DW1000RSTnIRQ(0);
 8001abc:	2000      	movs	r0, #0
 8001abe:	f7ff fbeb 	bl	8001298 <setup_DW1000RSTnIRQ>
  SSD1306_Init();
 8001ac2:	f7ff fc51 	bl	8001368 <SSD1306_Init>
  dw_main();
 8001ac6:	f000 f9cd 	bl	8001e64 <dw_main>
  /* USER CODE END 2 */

  /* Infinite loop */
  /* USER CODE BEGIN WHILE */
  while (1)
 8001aca:	e7fe      	b.n	8001aca <main+0x2a>

08001acc <SystemClock_Config>:
/**
  * @brief System Clock Configuration
  * @retval None
  */
void SystemClock_Config(void)
{
 8001acc:	b580      	push	{r7, lr}
 8001ace:	b092      	sub	sp, #72	; 0x48
 8001ad0:	af00      	add	r7, sp, #0
  RCC_OscInitTypeDef RCC_OscInitStruct = {0};
 8001ad2:	f107 0314 	add.w	r3, r7, #20
 8001ad6:	2234      	movs	r2, #52	; 0x34
 8001ad8:	2100      	movs	r1, #0
 8001ada:	4618      	mov	r0, r3
 8001adc:	f003 fcc8 	bl	8005470 <memset>
  RCC_ClkInitTypeDef RCC_ClkInitStruct = {0};
 8001ae0:	463b      	mov	r3, r7
 8001ae2:	2200      	movs	r2, #0
 8001ae4:	601a      	str	r2, [r3, #0]
 8001ae6:	605a      	str	r2, [r3, #4]
 8001ae8:	609a      	str	r2, [r3, #8]
 8001aea:	60da      	str	r2, [r3, #12]
 8001aec:	611a      	str	r2, [r3, #16]

  /** Configure the main internal regulator output voltage
  */
  __HAL_PWR_VOLTAGESCALING_CONFIG(PWR_REGULATOR_VOLTAGE_SCALE1);
 8001aee:	4b1d      	ldr	r3, [pc, #116]	; (8001b64 <SystemClock_Config+0x98>)
 8001af0:	681b      	ldr	r3, [r3, #0]
 8001af2:	f423 53c0 	bic.w	r3, r3, #6144	; 0x1800
 8001af6:	4a1b      	ldr	r2, [pc, #108]	; (8001b64 <SystemClock_Config+0x98>)
 8001af8:	f443 6300 	orr.w	r3, r3, #2048	; 0x800
 8001afc:	6013      	str	r3, [r2, #0]

  /** Initializes the RCC Oscillators according to the specified parameters
  * in the RCC_OscInitTypeDef structure.
  */
  RCC_OscInitStruct.OscillatorType = RCC_OSCILLATORTYPE_HSI;
 8001afe:	2302      	movs	r3, #2
 8001b00:	617b      	str	r3, [r7, #20]
  RCC_OscInitStruct.HSIState = RCC_HSI_ON;
 8001b02:	2301      	movs	r3, #1
 8001b04:	623b      	str	r3, [r7, #32]
  RCC_OscInitStruct.HSICalibrationValue = RCC_HSICALIBRATION_DEFAULT;
 8001b06:	2310      	movs	r3, #16
 8001b08:	627b      	str	r3, [r7, #36]	; 0x24
  RCC_OscInitStruct.PLL.PLLState = RCC_PLL_ON;
 8001b0a:	2302      	movs	r3, #2
 8001b0c:	63bb      	str	r3, [r7, #56]	; 0x38
  RCC_OscInitStruct.PLL.PLLSource = RCC_PLLSOURCE_HSI;
 8001b0e:	2300      	movs	r3, #0
 8001b10:	63fb      	str	r3, [r7, #60]	; 0x3c
  RCC_OscInitStruct.PLL.PLLMUL = RCC_PLL_MUL6;
 8001b12:	f44f 2300 	mov.w	r3, #524288	; 0x80000
 8001b16:	643b      	str	r3, [r7, #64]	; 0x40
  RCC_OscInitStruct.PLL.PLLDIV = RCC_PLL_DIV3;
 8001b18:	f44f 0300 	mov.w	r3, #8388608	; 0x800000
 8001b1c:	647b      	str	r3, [r7, #68]	; 0x44
  if (HAL_RCC_OscConfig(&RCC_OscInitStruct) != HAL_OK)
 8001b1e:	f107 0314 	add.w	r3, r7, #20
 8001b22:	4618      	mov	r0, r3
 8001b24:	f001 fc7c 	bl	8003420 <HAL_RCC_OscConfig>
 8001b28:	4603      	mov	r3, r0
 8001b2a:	2b00      	cmp	r3, #0
 8001b2c:	d001      	beq.n	8001b32 <SystemClock_Config+0x66>
  {
    Error_Handler();
 8001b2e:	f000 f81b 	bl	8001b68 <Error_Handler>
  }

  /** Initializes the CPU, AHB and APB buses clocks
  */
  RCC_ClkInitStruct.ClockType = RCC_CLOCKTYPE_HCLK|RCC_CLOCKTYPE_SYSCLK
 8001b32:	230f      	movs	r3, #15
 8001b34:	603b      	str	r3, [r7, #0]
                              |RCC_CLOCKTYPE_PCLK1|RCC_CLOCKTYPE_PCLK2;
  RCC_ClkInitStruct.SYSCLKSource = RCC_SYSCLKSOURCE_PLLCLK;
 8001b36:	2303      	movs	r3, #3
 8001b38:	607b      	str	r3, [r7, #4]
  RCC_ClkInitStruct.AHBCLKDivider = RCC_SYSCLK_DIV1;
 8001b3a:	2300      	movs	r3, #0
 8001b3c:	60bb      	str	r3, [r7, #8]
  RCC_ClkInitStruct.APB1CLKDivider = RCC_HCLK_DIV1;
 8001b3e:	2300      	movs	r3, #0
 8001b40:	60fb      	str	r3, [r7, #12]
  RCC_ClkInitStruct.APB2CLKDivider = RCC_HCLK_DIV1;
 8001b42:	2300      	movs	r3, #0
 8001b44:	613b      	str	r3, [r7, #16]

  if (HAL_RCC_ClockConfig(&RCC_ClkInitStruct, FLASH_LATENCY_1) != HAL_OK)
 8001b46:	463b      	mov	r3, r7
 8001b48:	2101      	movs	r1, #1
 8001b4a:	4618      	mov	r0, r3
 8001b4c:	f001 ff98 	bl	8003a80 <HAL_RCC_ClockConfig>
 8001b50:	4603      	mov	r3, r0
 8001b52:	2b00      	cmp	r3, #0
 8001b54:	d001      	beq.n	8001b5a <SystemClock_Config+0x8e>
  {
    Error_Handler();
 8001b56:	f000 f807 	bl	8001b68 <Error_Handler>
  }
}
 8001b5a:	bf00      	nop
 8001b5c:	3748      	adds	r7, #72	; 0x48
 8001b5e:	46bd      	mov	sp, r7
 8001b60:	bd80      	pop	{r7, pc}
 8001b62:	bf00      	nop
 8001b64:	40007000 	.word	0x40007000

08001b68 <Error_Handler>:
/**
  * @brief  This function is executed in case of error occurrence.
  * @retval None
  */
void Error_Handler(void)
{
 8001b68:	b480      	push	{r7}
 8001b6a:	af00      	add	r7, sp, #0
  __ASM volatile ("cpsid i" : : : "memory");
 8001b6c:	b672      	cpsid	i
}
 8001b6e:	bf00      	nop
  /* USER CODE BEGIN Error_Handler_Debug */
  /* User can add his own implementation to report the HAL error return state */
  __disable_irq();
  while (1)
 8001b70:	e7fe      	b.n	8001b70 <Error_Handler+0x8>
	...

08001b74 <MX_SPI1_Init>:

SPI_HandleTypeDef hspi1;

/* SPI1 init function */
void MX_SPI1_Init(void)
{
 8001b74:	b580      	push	{r7, lr}
 8001b76:	af00      	add	r7, sp, #0
  /* USER CODE END SPI1_Init 0 */

  /* USER CODE BEGIN SPI1_Init 1 */

  /* USER CODE END SPI1_Init 1 */
  hspi1.Instance = SPI1;
 8001b78:	4b17      	ldr	r3, [pc, #92]	; (8001bd8 <MX_SPI1_Init+0x64>)
 8001b7a:	4a18      	ldr	r2, [pc, #96]	; (8001bdc <MX_SPI1_Init+0x68>)
 8001b7c:	601a      	str	r2, [r3, #0]
  hspi1.Init.Mode = SPI_MODE_MASTER;
 8001b7e:	4b16      	ldr	r3, [pc, #88]	; (8001bd8 <MX_SPI1_Init+0x64>)
 8001b80:	f44f 7282 	mov.w	r2, #260	; 0x104
 8001b84:	605a      	str	r2, [r3, #4]
  hspi1.Init.Direction = SPI_DIRECTION_2LINES;
 8001b86:	4b14      	ldr	r3, [pc, #80]	; (8001bd8 <MX_SPI1_Init+0x64>)
 8001b88:	2200      	movs	r2, #0
 8001b8a:	609a      	str	r2, [r3, #8]
  hspi1.Init.DataSize = SPI_DATASIZE_8BIT;
 8001b8c:	4b12      	ldr	r3, [pc, #72]	; (8001bd8 <MX_SPI1_Init+0x64>)
 8001b8e:	2200      	movs	r2, #0
 8001b90:	60da      	str	r2, [r3, #12]
  hspi1.Init.CLKPolarity = SPI_POLARITY_LOW;
 8001b92:	4b11      	ldr	r3, [pc, #68]	; (8001bd8 <MX_SPI1_Init+0x64>)
 8001b94:	2200      	movs	r2, #0
 8001b96:	611a      	str	r2, [r3, #16]
  hspi1.Init.CLKPhase = SPI_PHASE_1EDGE;
 8001b98:	4b0f      	ldr	r3, [pc, #60]	; (8001bd8 <MX_SPI1_Init+0x64>)
 8001b9a:	2200      	movs	r2, #0
 8001b9c:	615a      	str	r2, [r3, #20]
  hspi1.Init.NSS = SPI_NSS_SOFT;
 8001b9e:	4b0e      	ldr	r3, [pc, #56]	; (8001bd8 <MX_SPI1_Init+0x64>)
 8001ba0:	f44f 7200 	mov.w	r2, #512	; 0x200
 8001ba4:	619a      	str	r2, [r3, #24]
  hspi1.Init.BaudRatePrescaler = SPI_BAUDRATEPRESCALER_2;
 8001ba6:	4b0c      	ldr	r3, [pc, #48]	; (8001bd8 <MX_SPI1_Init+0x64>)
 8001ba8:	2200      	movs	r2, #0
 8001baa:	61da      	str	r2, [r3, #28]
  hspi1.Init.FirstBit = SPI_FIRSTBIT_MSB;
 8001bac:	4b0a      	ldr	r3, [pc, #40]	; (8001bd8 <MX_SPI1_Init+0x64>)
 8001bae:	2200      	movs	r2, #0
 8001bb0:	621a      	str	r2, [r3, #32]
  hspi1.Init.TIMode = SPI_TIMODE_DISABLE;
 8001bb2:	4b09      	ldr	r3, [pc, #36]	; (8001bd8 <MX_SPI1_Init+0x64>)
 8001bb4:	2200      	movs	r2, #0
 8001bb6:	625a      	str	r2, [r3, #36]	; 0x24
  hspi1.Init.CRCCalculation = SPI_CRCCALCULATION_DISABLE;
 8001bb8:	4b07      	ldr	r3, [pc, #28]	; (8001bd8 <MX_SPI1_Init+0x64>)
 8001bba:	2200      	movs	r2, #0
 8001bbc:	629a      	str	r2, [r3, #40]	; 0x28
  hspi1.Init.CRCPolynomial = 10;
 8001bbe:	4b06      	ldr	r3, [pc, #24]	; (8001bd8 <MX_SPI1_Init+0x64>)
 8001bc0:	220a      	movs	r2, #10
 8001bc2:	62da      	str	r2, [r3, #44]	; 0x2c
  if (HAL_SPI_Init(&hspi1) != HAL_OK)
 8001bc4:	4804      	ldr	r0, [pc, #16]	; (8001bd8 <MX_SPI1_Init+0x64>)
 8001bc6:	f002 f9ef 	bl	8003fa8 <HAL_SPI_Init>
 8001bca:	4603      	mov	r3, r0
 8001bcc:	2b00      	cmp	r3, #0
 8001bce:	d001      	beq.n	8001bd4 <MX_SPI1_Init+0x60>
  {
    Error_Handler();
 8001bd0:	f7ff ffca 	bl	8001b68 <Error_Handler>
  }
  /* USER CODE BEGIN SPI1_Init 2 */

  /* USER CODE END SPI1_Init 2 */

}
 8001bd4:	bf00      	nop
 8001bd6:	bd80      	pop	{r7, pc}
 8001bd8:	2000056c 	.word	0x2000056c
 8001bdc:	40013000 	.word	0x40013000

08001be0 <HAL_SPI_MspInit>:

void HAL_SPI_MspInit(SPI_HandleTypeDef* spiHandle)
{
 8001be0:	b580      	push	{r7, lr}
 8001be2:	b08a      	sub	sp, #40	; 0x28
 8001be4:	af00      	add	r7, sp, #0
 8001be6:	6078      	str	r0, [r7, #4]

  GPIO_InitTypeDef GPIO_InitStruct = {0};
 8001be8:	f107 0314 	add.w	r3, r7, #20
 8001bec:	2200      	movs	r2, #0
 8001bee:	601a      	str	r2, [r3, #0]
 8001bf0:	605a      	str	r2, [r3, #4]
 8001bf2:	609a      	str	r2, [r3, #8]
 8001bf4:	60da      	str	r2, [r3, #12]
 8001bf6:	611a      	str	r2, [r3, #16]
  if(spiHandle->Instance==SPI1)
 8001bf8:	687b      	ldr	r3, [r7, #4]
 8001bfa:	681b      	ldr	r3, [r3, #0]
 8001bfc:	4a1b      	ldr	r2, [pc, #108]	; (8001c6c <HAL_SPI_MspInit+0x8c>)
 8001bfe:	4293      	cmp	r3, r2
 8001c00:	d12f      	bne.n	8001c62 <HAL_SPI_MspInit+0x82>
  {
  /* USER CODE BEGIN SPI1_MspInit 0 */

  /* USER CODE END SPI1_MspInit 0 */
    /* SPI1 clock enable */
    __HAL_RCC_SPI1_CLK_ENABLE();
 8001c02:	4b1b      	ldr	r3, [pc, #108]	; (8001c70 <HAL_SPI_MspInit+0x90>)
 8001c04:	6a1b      	ldr	r3, [r3, #32]
 8001c06:	4a1a      	ldr	r2, [pc, #104]	; (8001c70 <HAL_SPI_MspInit+0x90>)
 8001c08:	f443 5380 	orr.w	r3, r3, #4096	; 0x1000
 8001c0c:	6213      	str	r3, [r2, #32]
 8001c0e:	4b18      	ldr	r3, [pc, #96]	; (8001c70 <HAL_SPI_MspInit+0x90>)
 8001c10:	6a1b      	ldr	r3, [r3, #32]
 8001c12:	f403 5380 	and.w	r3, r3, #4096	; 0x1000
 8001c16:	613b      	str	r3, [r7, #16]
 8001c18:	693b      	ldr	r3, [r7, #16]

    __HAL_RCC_GPIOA_CLK_ENABLE();
 8001c1a:	4b15      	ldr	r3, [pc, #84]	; (8001c70 <HAL_SPI_MspInit+0x90>)
 8001c1c:	69db      	ldr	r3, [r3, #28]
 8001c1e:	4a14      	ldr	r2, [pc, #80]	; (8001c70 <HAL_SPI_MspInit+0x90>)
 8001c20:	f043 0301 	orr.w	r3, r3, #1
 8001c24:	61d3      	str	r3, [r2, #28]
 8001c26:	4b12      	ldr	r3, [pc, #72]	; (8001c70 <HAL_SPI_MspInit+0x90>)
 8001c28:	69db      	ldr	r3, [r3, #28]
 8001c2a:	f003 0301 	and.w	r3, r3, #1
 8001c2e:	60fb      	str	r3, [r7, #12]
 8001c30:	68fb      	ldr	r3, [r7, #12]
    /**SPI1 GPIO Configuration
    PA5     ------> SPI1_SCK
    PA6     ------> SPI1_MISO
    PA7     ------> SPI1_MOSI
    */
    GPIO_InitStruct.Pin = GPIO_PIN_5|GPIO_PIN_6|GPIO_PIN_7;
 8001c32:	23e0      	movs	r3, #224	; 0xe0
 8001c34:	617b      	str	r3, [r7, #20]
    GPIO_InitStruct.Mode = GPIO_MODE_AF_PP;
 8001c36:	2302      	movs	r3, #2
 8001c38:	61bb      	str	r3, [r7, #24]
    GPIO_InitStruct.Pull = GPIO_NOPULL;
 8001c3a:	2300      	movs	r3, #0
 8001c3c:	61fb      	str	r3, [r7, #28]
    GPIO_InitStruct.Speed = GPIO_SPEED_FREQ_VERY_HIGH;
 8001c3e:	2303      	movs	r3, #3
 8001c40:	623b      	str	r3, [r7, #32]
    GPIO_InitStruct.Alternate = GPIO_AF5_SPI1;
 8001c42:	2305      	movs	r3, #5
 8001c44:	627b      	str	r3, [r7, #36]	; 0x24
    HAL_GPIO_Init(GPIOA, &GPIO_InitStruct);
 8001c46:	f107 0314 	add.w	r3, r7, #20
 8001c4a:	4619      	mov	r1, r3
 8001c4c:	4809      	ldr	r0, [pc, #36]	; (8001c74 <HAL_SPI_MspInit+0x94>)
 8001c4e:	f000 fc75 	bl	800253c <HAL_GPIO_Init>

    /* SPI1 interrupt Init */
    HAL_NVIC_SetPriority(SPI1_IRQn, 0, 0);
 8001c52:	2200      	movs	r2, #0
 8001c54:	2100      	movs	r1, #0
 8001c56:	2023      	movs	r0, #35	; 0x23
 8001c58:	f000 fbad 	bl	80023b6 <HAL_NVIC_SetPriority>
    HAL_NVIC_EnableIRQ(SPI1_IRQn);
 8001c5c:	2023      	movs	r0, #35	; 0x23
 8001c5e:	f000 fbc6 	bl	80023ee <HAL_NVIC_EnableIRQ>
  /* USER CODE BEGIN SPI1_MspInit 1 */

  /* USER CODE END SPI1_MspInit 1 */
  }
}
 8001c62:	bf00      	nop
 8001c64:	3728      	adds	r7, #40	; 0x28
 8001c66:	46bd      	mov	sp, r7
 8001c68:	bd80      	pop	{r7, pc}
 8001c6a:	bf00      	nop
 8001c6c:	40013000 	.word	0x40013000
 8001c70:	40023800 	.word	0x40023800
 8001c74:	40020000 	.word	0x40020000

08001c78 <HAL_MspInit>:
/* USER CODE END 0 */
/**
  * Initializes the Global MSP.
  */
void HAL_MspInit(void)
{
 8001c78:	b580      	push	{r7, lr}
 8001c7a:	b084      	sub	sp, #16
 8001c7c:	af00      	add	r7, sp, #0
  /* USER CODE BEGIN MspInit 0 */

  /* USER CODE END MspInit 0 */

  __HAL_RCC_COMP_CLK_ENABLE();
 8001c7e:	4b15      	ldr	r3, [pc, #84]	; (8001cd4 <HAL_MspInit+0x5c>)
 8001c80:	6a5b      	ldr	r3, [r3, #36]	; 0x24
 8001c82:	4a14      	ldr	r2, [pc, #80]	; (8001cd4 <HAL_MspInit+0x5c>)
 8001c84:	f043 4300 	orr.w	r3, r3, #2147483648	; 0x80000000
 8001c88:	6253      	str	r3, [r2, #36]	; 0x24
 8001c8a:	4b12      	ldr	r3, [pc, #72]	; (8001cd4 <HAL_MspInit+0x5c>)
 8001c8c:	6a5b      	ldr	r3, [r3, #36]	; 0x24
 8001c8e:	f003 4300 	and.w	r3, r3, #2147483648	; 0x80000000
 8001c92:	60fb      	str	r3, [r7, #12]
 8001c94:	68fb      	ldr	r3, [r7, #12]
  __HAL_RCC_SYSCFG_CLK_ENABLE();
 8001c96:	4b0f      	ldr	r3, [pc, #60]	; (8001cd4 <HAL_MspInit+0x5c>)
 8001c98:	6a1b      	ldr	r3, [r3, #32]
 8001c9a:	4a0e      	ldr	r2, [pc, #56]	; (8001cd4 <HAL_MspInit+0x5c>)
 8001c9c:	f043 0301 	orr.w	r3, r3, #1
 8001ca0:	6213      	str	r3, [r2, #32]
 8001ca2:	4b0c      	ldr	r3, [pc, #48]	; (8001cd4 <HAL_MspInit+0x5c>)
 8001ca4:	6a1b      	ldr	r3, [r3, #32]
 8001ca6:	f003 0301 	and.w	r3, r3, #1
 8001caa:	60bb      	str	r3, [r7, #8]
 8001cac:	68bb      	ldr	r3, [r7, #8]
  __HAL_RCC_PWR_CLK_ENABLE();
 8001cae:	4b09      	ldr	r3, [pc, #36]	; (8001cd4 <HAL_MspInit+0x5c>)
 8001cb0:	6a5b      	ldr	r3, [r3, #36]	; 0x24
 8001cb2:	4a08      	ldr	r2, [pc, #32]	; (8001cd4 <HAL_MspInit+0x5c>)
 8001cb4:	f043 5380 	orr.w	r3, r3, #268435456	; 0x10000000
 8001cb8:	6253      	str	r3, [r2, #36]	; 0x24
 8001cba:	4b06      	ldr	r3, [pc, #24]	; (8001cd4 <HAL_MspInit+0x5c>)
 8001cbc:	6a5b      	ldr	r3, [r3, #36]	; 0x24
 8001cbe:	f003 5380 	and.w	r3, r3, #268435456	; 0x10000000
 8001cc2:	607b      	str	r3, [r7, #4]
 8001cc4:	687b      	ldr	r3, [r7, #4]

  HAL_NVIC_SetPriorityGrouping(NVIC_PRIORITYGROUP_0);
 8001cc6:	2007      	movs	r0, #7
 8001cc8:	f000 fb6a 	bl	80023a0 <HAL_NVIC_SetPriorityGrouping>
  /* System interrupt init*/

  /* USER CODE BEGIN MspInit 1 */

  /* USER CODE END MspInit 1 */
}
 8001ccc:	bf00      	nop
 8001cce:	3710      	adds	r7, #16
 8001cd0:	46bd      	mov	sp, r7
 8001cd2:	bd80      	pop	{r7, pc}
 8001cd4:	40023800 	.word	0x40023800

08001cd8 <NMI_Handler>:
/******************************************************************************/
/**
  * @brief This function handles Non maskable interrupt.
  */
void NMI_Handler(void)
{
 8001cd8:	b480      	push	{r7}
 8001cda:	af00      	add	r7, sp, #0
  /* USER CODE BEGIN NonMaskableInt_IRQn 0 */

  /* USER CODE END NonMaskableInt_IRQn 0 */
  /* USER CODE BEGIN NonMaskableInt_IRQn 1 */
  while (1)
 8001cdc:	e7fe      	b.n	8001cdc <NMI_Handler+0x4>

08001cde <HardFault_Handler>:

/**
  * @brief This function handles Hard fault interrupt.
  */
void HardFault_Handler(void)
{
 8001cde:	b480      	push	{r7}
 8001ce0:	af00      	add	r7, sp, #0
  /* USER CODE BEGIN HardFault_IRQn 0 */

  /* USER CODE END HardFault_IRQn 0 */
  while (1)
 8001ce2:	e7fe      	b.n	8001ce2 <HardFault_Handler+0x4>

08001ce4 <MemManage_Handler>:

/**
  * @brief This function handles Memory management fault.
  */
void MemManage_Handler(void)
{
 8001ce4:	b480      	push	{r7}
 8001ce6:	af00      	add	r7, sp, #0
  /* USER CODE BEGIN MemoryManagement_IRQn 0 */

  /* USER CODE END MemoryManagement_IRQn 0 */
  while (1)
 8001ce8:	e7fe      	b.n	8001ce8 <MemManage_Handler+0x4>

08001cea <BusFault_Handler>:

/**
  * @brief This function handles Pre-fetch fault, memory access fault.
  */
void BusFault_Handler(void)
{
 8001cea:	b480      	push	{r7}
 8001cec:	af00      	add	r7, sp, #0
  /* USER CODE BEGIN BusFault_IRQn 0 */

  /* USER CODE END BusFault_IRQn 0 */
  while (1)
 8001cee:	e7fe      	b.n	8001cee <BusFault_Handler+0x4>

08001cf0 <UsageFault_Handler>:

/**
  * @brief This function handles Undefined instruction or illegal state.
  */
void UsageFault_Handler(void)
{
 8001cf0:	b480      	push	{r7}
 8001cf2:	af00      	add	r7, sp, #0
  /* USER CODE BEGIN UsageFault_IRQn 0 */

  /* USER CODE END UsageFault_IRQn 0 */
  while (1)
 8001cf4:	e7fe      	b.n	8001cf4 <UsageFault_Handler+0x4>

08001cf6 <SVC_Handler>:

/**
  * @brief This function handles System service call via SWI instruction.
  */
void SVC_Handler(void)
{
 8001cf6:	b480      	push	{r7}
 8001cf8:	af00      	add	r7, sp, #0

  /* USER CODE END SVC_IRQn 0 */
  /* USER CODE BEGIN SVC_IRQn 1 */

  /* USER CODE END SVC_IRQn 1 */
}
 8001cfa:	bf00      	nop
 8001cfc:	46bd      	mov	sp, r7
 8001cfe:	bc80      	pop	{r7}
 8001d00:	4770      	bx	lr

08001d02 <DebugMon_Handler>:

/**
  * @brief This function handles Debug monitor.
  */
void DebugMon_Handler(void)
{
 8001d02:	b480      	push	{r7}
 8001d04:	af00      	add	r7, sp, #0

  /* USER CODE END DebugMonitor_IRQn 0 */
  /* USER CODE BEGIN DebugMonitor_IRQn 1 */

  /* USER CODE END DebugMonitor_IRQn 1 */
}
 8001d06:	bf00      	nop
 8001d08:	46bd      	mov	sp, r7
 8001d0a:	bc80      	pop	{r7}
 8001d0c:	4770      	bx	lr

08001d0e <PendSV_Handler>:

/**
  * @brief This function handles Pendable request for system service.
  */
void PendSV_Handler(void)
{
 8001d0e:	b480      	push	{r7}
 8001d10:	af00      	add	r7, sp, #0

  /* USER CODE END PendSV_IRQn 0 */
  /* USER CODE BEGIN PendSV_IRQn 1 */

  /* USER CODE END PendSV_IRQn 1 */
}
 8001d12:	bf00      	nop
 8001d14:	46bd      	mov	sp, r7
 8001d16:	bc80      	pop	{r7}
 8001d18:	4770      	bx	lr

08001d1a <SysTick_Handler>:

/**
  * @brief This function handles System tick timer.
  */
void SysTick_Handler(void)
{
 8001d1a:	b580      	push	{r7, lr}
 8001d1c:	af00      	add	r7, sp, #0
  /* USER CODE BEGIN SysTick_IRQn 0 */

  /* USER CODE END SysTick_IRQn 0 */
  HAL_IncTick();
 8001d1e:	f000 fa11 	bl	8002144 <HAL_IncTick>
  /* USER CODE BEGIN SysTick_IRQn 1 */

  /* USER CODE END SysTick_IRQn 1 */
}
 8001d22:	bf00      	nop
 8001d24:	bd80      	pop	{r7, pc}
	...

08001d28 <SPI1_IRQHandler>:

/**
  * @brief This function handles SPI1 global interrupt.
  */
void SPI1_IRQHandler(void)
{
 8001d28:	b580      	push	{r7, lr}
 8001d2a:	af00      	add	r7, sp, #0
  /* USER CODE BEGIN SPI1_IRQn 0 */

  /* USER CODE END SPI1_IRQn 0 */
  HAL_SPI_IRQHandler(&hspi1);
 8001d2c:	4802      	ldr	r0, [pc, #8]	; (8001d38 <SPI1_IRQHandler+0x10>)
 8001d2e:	f002 fb07 	bl	8004340 <HAL_SPI_IRQHandler>
  /* USER CODE BEGIN SPI1_IRQn 1 */

  /* USER CODE END SPI1_IRQn 1 */
}
 8001d32:	bf00      	nop
 8001d34:	bd80      	pop	{r7, pc}
 8001d36:	bf00      	nop
 8001d38:	2000056c 	.word	0x2000056c

08001d3c <USART2_IRQHandler>:

/**
  * @brief This function handles USART2 global interrupt.
  */
void USART2_IRQHandler(void)
{
 8001d3c:	b580      	push	{r7, lr}
 8001d3e:	af00      	add	r7, sp, #0
  /* USER CODE BEGIN USART2_IRQn 0 */

  /* USER CODE END USART2_IRQn 0 */
  HAL_UART_IRQHandler(&huart2);
 8001d40:	4802      	ldr	r0, [pc, #8]	; (8001d4c <USART2_IRQHandler+0x10>)
 8001d42:	f002 fdc5 	bl	80048d0 <HAL_UART_IRQHandler>
  /* USER CODE BEGIN USART2_IRQn 1 */

  /* USER CODE END USART2_IRQn 1 */
}
 8001d46:	bf00      	nop
 8001d48:	bd80      	pop	{r7, pc}
 8001d4a:	bf00      	nop
 8001d4c:	200005c4 	.word	0x200005c4

08001d50 <_read>:
  _kill(status, -1);
  while (1) {}    /* Make sure we hang here */
}

__attribute__((weak)) int _read(int file, char *ptr, int len)
{
 8001d50:	b580      	push	{r7, lr}
 8001d52:	b086      	sub	sp, #24
 8001d54:	af00      	add	r7, sp, #0
 8001d56:	60f8      	str	r0, [r7, #12]
 8001d58:	60b9      	str	r1, [r7, #8]
 8001d5a:	607a      	str	r2, [r7, #4]
  (void)file;
  int DataIdx;

  for (DataIdx = 0; DataIdx < len; DataIdx++)
 8001d5c:	2300      	movs	r3, #0
 8001d5e:	617b      	str	r3, [r7, #20]
 8001d60:	e00a      	b.n	8001d78 <_read+0x28>
  {
    *ptr++ = __io_getchar();
 8001d62:	f3af 8000 	nop.w
 8001d66:	4601      	mov	r1, r0
 8001d68:	68bb      	ldr	r3, [r7, #8]
 8001d6a:	1c5a      	adds	r2, r3, #1
 8001d6c:	60ba      	str	r2, [r7, #8]
 8001d6e:	b2ca      	uxtb	r2, r1
 8001d70:	701a      	strb	r2, [r3, #0]
  for (DataIdx = 0; DataIdx < len; DataIdx++)
 8001d72:	697b      	ldr	r3, [r7, #20]
 8001d74:	3301      	adds	r3, #1
 8001d76:	617b      	str	r3, [r7, #20]
 8001d78:	697a      	ldr	r2, [r7, #20]
 8001d7a:	687b      	ldr	r3, [r7, #4]
 8001d7c:	429a      	cmp	r2, r3
 8001d7e:	dbf0      	blt.n	8001d62 <_read+0x12>
  }

  return len;
 8001d80:	687b      	ldr	r3, [r7, #4]
}
 8001d82:	4618      	mov	r0, r3
 8001d84:	3718      	adds	r7, #24
 8001d86:	46bd      	mov	sp, r7
 8001d88:	bd80      	pop	{r7, pc}

08001d8a <_close>:
  }
  return len;
}

int _close(int file)
{
 8001d8a:	b480      	push	{r7}
 8001d8c:	b083      	sub	sp, #12
 8001d8e:	af00      	add	r7, sp, #0
 8001d90:	6078      	str	r0, [r7, #4]
  (void)file;
  return -1;
 8001d92:	f04f 33ff 	mov.w	r3, #4294967295
}
 8001d96:	4618      	mov	r0, r3
 8001d98:	370c      	adds	r7, #12
 8001d9a:	46bd      	mov	sp, r7
 8001d9c:	bc80      	pop	{r7}
 8001d9e:	4770      	bx	lr

08001da0 <_fstat>:


int _fstat(int file, struct stat *st)
{
 8001da0:	b480      	push	{r7}
 8001da2:	b083      	sub	sp, #12
 8001da4:	af00      	add	r7, sp, #0
 8001da6:	6078      	str	r0, [r7, #4]
 8001da8:	6039      	str	r1, [r7, #0]
  (void)file;
  st->st_mode = S_IFCHR;
 8001daa:	683b      	ldr	r3, [r7, #0]
 8001dac:	f44f 5200 	mov.w	r2, #8192	; 0x2000
 8001db0:	605a      	str	r2, [r3, #4]
  return 0;
 8001db2:	2300      	movs	r3, #0
}
 8001db4:	4618      	mov	r0, r3
 8001db6:	370c      	adds	r7, #12
 8001db8:	46bd      	mov	sp, r7
 8001dba:	bc80      	pop	{r7}
 8001dbc:	4770      	bx	lr

08001dbe <_isatty>:

int _isatty(int file)
{
 8001dbe:	b480      	push	{r7}
 8001dc0:	b083      	sub	sp, #12
 8001dc2:	af00      	add	r7, sp, #0
 8001dc4:	6078      	str	r0, [r7, #4]
  (void)file;
  return 1;
 8001dc6:	2301      	movs	r3, #1
}
 8001dc8:	4618      	mov	r0, r3
 8001dca:	370c      	adds	r7, #12
 8001dcc:	46bd      	mov	sp, r7
 8001dce:	bc80      	pop	{r7}
 8001dd0:	4770      	bx	lr

08001dd2 <_lseek>:

int _lseek(int file, int ptr, int dir)
{
 8001dd2:	b480      	push	{r7}
 8001dd4:	b085      	sub	sp, #20
 8001dd6:	af00      	add	r7, sp, #0
 8001dd8:	60f8      	str	r0, [r7, #12]
 8001dda:	60b9      	str	r1, [r7, #8]
 8001ddc:	607a      	str	r2, [r7, #4]
  (void)file;
  (void)ptr;
  (void)dir;
  return 0;
 8001dde:	2300      	movs	r3, #0
}
 8001de0:	4618      	mov	r0, r3
 8001de2:	3714      	adds	r7, #20
 8001de4:	46bd      	mov	sp, r7
 8001de6:	bc80      	pop	{r7}
 8001de8:	4770      	bx	lr
	...

08001dec <_sbrk>:
 *
 * @param incr Memory size
 * @return Pointer to allocated memory
 */
void *_sbrk(ptrdiff_t incr)
{
 8001dec:	b580      	push	{r7, lr}
 8001dee:	b086      	sub	sp, #24
 8001df0:	af00      	add	r7, sp, #0
 8001df2:	6078      	str	r0, [r7, #4]
  extern uint8_t _end; /* Symbol defined in the linker script */
  extern uint8_t _estack; /* Symbol defined in the linker script */
  extern uint32_t _Min_Stack_Size; /* Symbol defined in the linker script */
  const uint32_t stack_limit = (uint32_t)&_estack - (uint32_t)&_Min_Stack_Size;
 8001df4:	4a14      	ldr	r2, [pc, #80]	; (8001e48 <_sbrk+0x5c>)
 8001df6:	4b15      	ldr	r3, [pc, #84]	; (8001e4c <_sbrk+0x60>)
 8001df8:	1ad3      	subs	r3, r2, r3
 8001dfa:	617b      	str	r3, [r7, #20]
  const uint8_t *max_heap = (uint8_t *)stack_limit;
 8001dfc:	697b      	ldr	r3, [r7, #20]
 8001dfe:	613b      	str	r3, [r7, #16]
  uint8_t *prev_heap_end;

  /* Initialize heap end at first call */
  if (NULL == __sbrk_heap_end)
 8001e00:	4b13      	ldr	r3, [pc, #76]	; (8001e50 <_sbrk+0x64>)
 8001e02:	681b      	ldr	r3, [r3, #0]
 8001e04:	2b00      	cmp	r3, #0
 8001e06:	d102      	bne.n	8001e0e <_sbrk+0x22>
  {
    __sbrk_heap_end = &_end;
 8001e08:	4b11      	ldr	r3, [pc, #68]	; (8001e50 <_sbrk+0x64>)
 8001e0a:	4a12      	ldr	r2, [pc, #72]	; (8001e54 <_sbrk+0x68>)
 8001e0c:	601a      	str	r2, [r3, #0]
  }

  /* Protect heap from growing into the reserved MSP stack */
  if (__sbrk_heap_end + incr > max_heap)
 8001e0e:	4b10      	ldr	r3, [pc, #64]	; (8001e50 <_sbrk+0x64>)
 8001e10:	681a      	ldr	r2, [r3, #0]
 8001e12:	687b      	ldr	r3, [r7, #4]
 8001e14:	4413      	add	r3, r2
 8001e16:	693a      	ldr	r2, [r7, #16]
 8001e18:	429a      	cmp	r2, r3
 8001e1a:	d207      	bcs.n	8001e2c <_sbrk+0x40>
  {
    errno = ENOMEM;
 8001e1c:	f003 fafe 	bl	800541c <__errno>
 8001e20:	4603      	mov	r3, r0
 8001e22:	220c      	movs	r2, #12
 8001e24:	601a      	str	r2, [r3, #0]
    return (void *)-1;
 8001e26:	f04f 33ff 	mov.w	r3, #4294967295
 8001e2a:	e009      	b.n	8001e40 <_sbrk+0x54>
  }

  prev_heap_end = __sbrk_heap_end;
 8001e2c:	4b08      	ldr	r3, [pc, #32]	; (8001e50 <_sbrk+0x64>)
 8001e2e:	681b      	ldr	r3, [r3, #0]
 8001e30:	60fb      	str	r3, [r7, #12]
  __sbrk_heap_end += incr;
 8001e32:	4b07      	ldr	r3, [pc, #28]	; (8001e50 <_sbrk+0x64>)
 8001e34:	681a      	ldr	r2, [r3, #0]
 8001e36:	687b      	ldr	r3, [r7, #4]
 8001e38:	4413      	add	r3, r2
 8001e3a:	4a05      	ldr	r2, [pc, #20]	; (8001e50 <_sbrk+0x64>)
 8001e3c:	6013      	str	r3, [r2, #0]

  return (void *)prev_heap_end;
 8001e3e:	68fb      	ldr	r3, [r7, #12]
}
 8001e40:	4618      	mov	r0, r3
 8001e42:	3718      	adds	r7, #24
 8001e44:	46bd      	mov	sp, r7
 8001e46:	bd80      	pop	{r7, pc}
 8001e48:	20014000 	.word	0x20014000
 8001e4c:	00000400 	.word	0x00000400
 8001e50:	2000050c 	.word	0x2000050c
 8001e54:	20000620 	.word	0x20000620

08001e58 <SystemInit>:
  *         SystemCoreClock variable.
  * @param  None
  * @retval None
  */
void SystemInit (void)
{
 8001e58:	b480      	push	{r7}
 8001e5a:	af00      	add	r7, sp, #0
    
  /* Configure the Vector Table location -------------------------------------*/
#if defined(USER_VECT_TAB_ADDRESS)
  SCB->VTOR = VECT_TAB_BASE_ADDRESS | VECT_TAB_OFFSET; /* Vector Table Relocation in Internal SRAM. */
#endif /* USER_VECT_TAB_ADDRESS */
}
 8001e5c:	bf00      	nop
 8001e5e:	46bd      	mov	sp, r7
 8001e60:	bc80      	pop	{r7}
 8001e62:	4770      	bx	lr

08001e64 <dw_main>:

/**
 * Application entry point.
 */
int dw_main(void)
{
 8001e64:	b580      	push	{r7, lr}
 8001e66:	af00      	add	r7, sp, #0
    /* Display application name on LCD. */
//dwt
	ssd1306_write(buff, Font_7x10);
 8001e68:	482b      	ldr	r0, [pc, #172]	; (8001f18 <dw_main+0xb4>)
 8001e6a:	4b2c      	ldr	r3, [pc, #176]	; (8001f1c <dw_main+0xb8>)
 8001e6c:	e893 0006 	ldmia.w	r3, {r1, r2}
 8001e70:	f7ff fd18 	bl	80018a4 <ssd1306_write>
    /* Reset and initialise DW1000. See NOTE 2 below.
     * For initialisation, DW1000 clocks must be temporarily set to crystal speed. After initialisation SPI rate can be increased for optimum
     * performance. */
    reset_DW1000(); /* Target specific drive of RSTn line into DW1000 low for a period. */
 8001e74:	f7ff f9ee 	bl	8001254 <reset_DW1000>
    port_set_dw1000_slowrate();
 8001e78:	f7ff fa48 	bl	800130c <port_set_dw1000_slowrate>
    if (dwt_initialise(DWT_LOADNONE) == DWT_ERROR)
 8001e7c:	2000      	movs	r0, #0
 8001e7e:	f7fe faf9 	bl	8000474 <dwt_initialise>
 8001e82:	4603      	mov	r3, r0
 8001e84:	f1b3 3fff 	cmp.w	r3, #4294967295
 8001e88:	d109      	bne.n	8001e9e <dw_main+0x3a>
    {
        printf("INIT FAILED");
 8001e8a:	4825      	ldr	r0, [pc, #148]	; (8001f20 <dw_main+0xbc>)
 8001e8c:	f003 faf8 	bl	8005480 <iprintf>
        ssd1306_write("Init Failed", Font_11x18);
 8001e90:	4824      	ldr	r0, [pc, #144]	; (8001f24 <dw_main+0xc0>)
 8001e92:	4b25      	ldr	r3, [pc, #148]	; (8001f28 <dw_main+0xc4>)
 8001e94:	e893 0006 	ldmia.w	r3, {r1, r2}
 8001e98:	f7ff fd04 	bl	80018a4 <ssd1306_write>
        while (1)
 8001e9c:	e7fe      	b.n	8001e9c <dw_main+0x38>
        { };
    }
    port_set_dw1000_fastrate();
 8001e9e:	f7ff fa41 	bl	8001324 <port_set_dw1000_fastrate>

    /* Configure DW1000. See NOTE 3 below. */
    dwt_configure(&config);
 8001ea2:	4822      	ldr	r0, [pc, #136]	; (8001f2c <dw_main+0xc8>)
 8001ea4:	f7fe fc3c 	bl	8000720 <dwt_configure>
    /* Loop forever sending frames periodically. */
    while(1)
    {

        /* Write frame data to DW1000 and prepare transmission. See NOTE 4 below.*/
        dwt_writetxdata(sizeof(tx_msg), tx_msg, 0); /* Zero offset in TX buffer. */
 8001ea8:	2200      	movs	r2, #0
 8001eaa:	4921      	ldr	r1, [pc, #132]	; (8001f30 <dw_main+0xcc>)
 8001eac:	200f      	movs	r0, #15
 8001eae:	f7fe fda1 	bl	80009f4 <dwt_writetxdata>
        dwt_writetxfctrl(sizeof(tx_msg), 0, 0); /* Zero offset in TX buffer, no ranging. */
 8001eb2:	2200      	movs	r2, #0
 8001eb4:	2100      	movs	r1, #0
 8001eb6:	200f      	movs	r0, #15
 8001eb8:	f7fe fdba 	bl	8000a30 <dwt_writetxfctrl>

        /* Start transmission. */
        dwt_starttx(DWT_START_TX_IMMEDIATE);
 8001ebc:	2000      	movs	r0, #0
 8001ebe:	f7ff f82d 	bl	8000f1c <dwt_starttx>
         * function to access it.*/
//        while (!(dwt_read32bitreg(SYS_STATUS_ID) & SYS_STATUS_TXFRS))
//        { };

        /* Clear TX frame sent event. */
        dwt_write32bitreg(SYS_STATUS_ID, SYS_STATUS_TXFRS);
 8001ec2:	2280      	movs	r2, #128	; 0x80
 8001ec4:	2100      	movs	r1, #0
 8001ec6:	200f      	movs	r0, #15
 8001ec8:	f7fe fefa 	bl	8000cc0 <dwt_write32bitoffsetreg>

        /* Execute a delay between transmissions. */
        Sleep(TX_DELAY_MS);
 8001ecc:	f44f 707a 	mov.w	r0, #1000	; 0x3e8
 8001ed0:	f7ff f998 	bl	8001204 <Sleep>
        HAL_UART_Transmit(&huart2, tx_msg, sizeof(tx_msg), HAL_MAX_DELAY);
 8001ed4:	f04f 33ff 	mov.w	r3, #4294967295
 8001ed8:	220f      	movs	r2, #15
 8001eda:	4915      	ldr	r1, [pc, #84]	; (8001f30 <dw_main+0xcc>)
 8001edc:	4815      	ldr	r0, [pc, #84]	; (8001f34 <dw_main+0xd0>)
 8001ede:	f002 fc73 	bl	80047c8 <HAL_UART_Transmit>
        SSD1306_GotoXY(0, 10); ssd1306_write("Transmitted :", Font_7x10);
 8001ee2:	210a      	movs	r1, #10
 8001ee4:	2000      	movs	r0, #0
 8001ee6:	f7ff fba7 	bl	8001638 <SSD1306_GotoXY>
 8001eea:	4813      	ldr	r0, [pc, #76]	; (8001f38 <dw_main+0xd4>)
 8001eec:	4b0b      	ldr	r3, [pc, #44]	; (8001f1c <dw_main+0xb8>)
 8001eee:	e893 0006 	ldmia.w	r3, {r1, r2}
 8001ef2:	f7ff fcd7 	bl	80018a4 <ssd1306_write>
        SSD1306_GotoXY(0,30); ssd1306_write(tx_msg, Font_7x10);
 8001ef6:	211e      	movs	r1, #30
 8001ef8:	2000      	movs	r0, #0
 8001efa:	f7ff fb9d 	bl	8001638 <SSD1306_GotoXY>
 8001efe:	480c      	ldr	r0, [pc, #48]	; (8001f30 <dw_main+0xcc>)
 8001f00:	4b06      	ldr	r3, [pc, #24]	; (8001f1c <dw_main+0xb8>)
 8001f02:	e893 0006 	ldmia.w	r3, {r1, r2}
 8001f06:	f7ff fccd 	bl	80018a4 <ssd1306_write>
        /* Increment the blink frame sequence number (modulo 256). */
        tx_msg[BLINK_FRAME_SN_IDX]++;
 8001f0a:	4b09      	ldr	r3, [pc, #36]	; (8001f30 <dw_main+0xcc>)
 8001f0c:	785b      	ldrb	r3, [r3, #1]
 8001f0e:	3301      	adds	r3, #1
 8001f10:	b2da      	uxtb	r2, r3
 8001f12:	4b07      	ldr	r3, [pc, #28]	; (8001f30 <dw_main+0xcc>)
 8001f14:	705a      	strb	r2, [r3, #1]
        dwt_writetxdata(sizeof(tx_msg), tx_msg, 0); /* Zero offset in TX buffer. */
 8001f16:	e7c7      	b.n	8001ea8 <dw_main+0x44>
 8001f18:	20000018 	.word	0x20000018
 8001f1c:	20000004 	.word	0x20000004
 8001f20:	08006358 	.word	0x08006358
 8001f24:	08006364 	.word	0x08006364
 8001f28:	2000000c 	.word	0x2000000c
 8001f2c:	20000028 	.word	0x20000028
 8001f30:	20000034 	.word	0x20000034
 8001f34:	200005c4 	.word	0x200005c4
 8001f38:	08006370 	.word	0x08006370

08001f3c <_write>:
/* USER CODE END Header */
/* Includes ------------------------------------------------------------------*/
#include "usart.h"

/* USER CODE BEGIN 0 */
int _write(int fd, char* ptr, int len) {
 8001f3c:	b580      	push	{r7, lr}
 8001f3e:	b084      	sub	sp, #16
 8001f40:	af00      	add	r7, sp, #0
 8001f42:	60f8      	str	r0, [r7, #12]
 8001f44:	60b9      	str	r1, [r7, #8]
 8001f46:	607a      	str	r2, [r7, #4]
    HAL_UART_Transmit(&huart2, (uint8_t *) ptr, len, HAL_MAX_DELAY);
 8001f48:	687b      	ldr	r3, [r7, #4]
 8001f4a:	b29a      	uxth	r2, r3
 8001f4c:	f04f 33ff 	mov.w	r3, #4294967295
 8001f50:	68b9      	ldr	r1, [r7, #8]
 8001f52:	4804      	ldr	r0, [pc, #16]	; (8001f64 <_write+0x28>)
 8001f54:	f002 fc38 	bl	80047c8 <HAL_UART_Transmit>
    return len;
 8001f58:	687b      	ldr	r3, [r7, #4]
}
 8001f5a:	4618      	mov	r0, r3
 8001f5c:	3710      	adds	r7, #16
 8001f5e:	46bd      	mov	sp, r7
 8001f60:	bd80      	pop	{r7, pc}
 8001f62:	bf00      	nop
 8001f64:	200005c4 	.word	0x200005c4

08001f68 <MX_USART2_UART_Init>:
UART_HandleTypeDef huart2;

/* USART2 init function */

void MX_USART2_UART_Init(void)
{
 8001f68:	b580      	push	{r7, lr}
 8001f6a:	af00      	add	r7, sp, #0
  /* USER CODE END USART2_Init 0 */

  /* USER CODE BEGIN USART2_Init 1 */

  /* USER CODE END USART2_Init 1 */
  huart2.Instance = USART2;
 8001f6c:	4b11      	ldr	r3, [pc, #68]	; (8001fb4 <MX_USART2_UART_Init+0x4c>)
 8001f6e:	4a12      	ldr	r2, [pc, #72]	; (8001fb8 <MX_USART2_UART_Init+0x50>)
 8001f70:	601a      	str	r2, [r3, #0]
  huart2.Init.BaudRate = 115200;
 8001f72:	4b10      	ldr	r3, [pc, #64]	; (8001fb4 <MX_USART2_UART_Init+0x4c>)
 8001f74:	f44f 32e1 	mov.w	r2, #115200	; 0x1c200
 8001f78:	605a      	str	r2, [r3, #4]
  huart2.Init.WordLength = UART_WORDLENGTH_8B;
 8001f7a:	4b0e      	ldr	r3, [pc, #56]	; (8001fb4 <MX_USART2_UART_Init+0x4c>)
 8001f7c:	2200      	movs	r2, #0
 8001f7e:	609a      	str	r2, [r3, #8]
  huart2.Init.StopBits = UART_STOPBITS_1;
 8001f80:	4b0c      	ldr	r3, [pc, #48]	; (8001fb4 <MX_USART2_UART_Init+0x4c>)
 8001f82:	2200      	movs	r2, #0
 8001f84:	60da      	str	r2, [r3, #12]
  huart2.Init.Parity = UART_PARITY_NONE;
 8001f86:	4b0b      	ldr	r3, [pc, #44]	; (8001fb4 <MX_USART2_UART_Init+0x4c>)
 8001f88:	2200      	movs	r2, #0
 8001f8a:	611a      	str	r2, [r3, #16]
  huart2.Init.Mode = UART_MODE_TX_RX;
 8001f8c:	4b09      	ldr	r3, [pc, #36]	; (8001fb4 <MX_USART2_UART_Init+0x4c>)
 8001f8e:	220c      	movs	r2, #12
 8001f90:	615a      	str	r2, [r3, #20]
  huart2.Init.HwFlowCtl = UART_HWCONTROL_NONE;
 8001f92:	4b08      	ldr	r3, [pc, #32]	; (8001fb4 <MX_USART2_UART_Init+0x4c>)
 8001f94:	2200      	movs	r2, #0
 8001f96:	619a      	str	r2, [r3, #24]
  huart2.Init.OverSampling = UART_OVERSAMPLING_16;
 8001f98:	4b06      	ldr	r3, [pc, #24]	; (8001fb4 <MX_USART2_UART_Init+0x4c>)
 8001f9a:	2200      	movs	r2, #0
 8001f9c:	61da      	str	r2, [r3, #28]
  if (HAL_UART_Init(&huart2) != HAL_OK)
 8001f9e:	4805      	ldr	r0, [pc, #20]	; (8001fb4 <MX_USART2_UART_Init+0x4c>)
 8001fa0:	f002 fbc2 	bl	8004728 <HAL_UART_Init>
 8001fa4:	4603      	mov	r3, r0
 8001fa6:	2b00      	cmp	r3, #0
 8001fa8:	d001      	beq.n	8001fae <MX_USART2_UART_Init+0x46>
  {
    Error_Handler();
 8001faa:	f7ff fddd 	bl	8001b68 <Error_Handler>
  }
  /* USER CODE BEGIN USART2_Init 2 */

  /* USER CODE END USART2_Init 2 */

}
 8001fae:	bf00      	nop
 8001fb0:	bd80      	pop	{r7, pc}
 8001fb2:	bf00      	nop
 8001fb4:	200005c4 	.word	0x200005c4
 8001fb8:	40004400 	.word	0x40004400

08001fbc <HAL_UART_MspInit>:

void HAL_UART_MspInit(UART_HandleTypeDef* uartHandle)
{
 8001fbc:	b580      	push	{r7, lr}
 8001fbe:	b08a      	sub	sp, #40	; 0x28
 8001fc0:	af00      	add	r7, sp, #0
 8001fc2:	6078      	str	r0, [r7, #4]

  GPIO_InitTypeDef GPIO_InitStruct = {0};
 8001fc4:	f107 0314 	add.w	r3, r7, #20
 8001fc8:	2200      	movs	r2, #0
 8001fca:	601a      	str	r2, [r3, #0]
 8001fcc:	605a      	str	r2, [r3, #4]
 8001fce:	609a      	str	r2, [r3, #8]
 8001fd0:	60da      	str	r2, [r3, #12]
 8001fd2:	611a      	str	r2, [r3, #16]
  if(uartHandle->Instance==USART2)
 8001fd4:	687b      	ldr	r3, [r7, #4]
 8001fd6:	681b      	ldr	r3, [r3, #0]
 8001fd8:	4a1b      	ldr	r2, [pc, #108]	; (8002048 <HAL_UART_MspInit+0x8c>)
 8001fda:	4293      	cmp	r3, r2
 8001fdc:	d12f      	bne.n	800203e <HAL_UART_MspInit+0x82>
  {
  /* USER CODE BEGIN USART2_MspInit 0 */

  /* USER CODE END USART2_MspInit 0 */
    /* USART2 clock enable */
    __HAL_RCC_USART2_CLK_ENABLE();
 8001fde:	4b1b      	ldr	r3, [pc, #108]	; (800204c <HAL_UART_MspInit+0x90>)
 8001fe0:	6a5b      	ldr	r3, [r3, #36]	; 0x24
 8001fe2:	4a1a      	ldr	r2, [pc, #104]	; (800204c <HAL_UART_MspInit+0x90>)
 8001fe4:	f443 3300 	orr.w	r3, r3, #131072	; 0x20000
 8001fe8:	6253      	str	r3, [r2, #36]	; 0x24
 8001fea:	4b18      	ldr	r3, [pc, #96]	; (800204c <HAL_UART_MspInit+0x90>)
 8001fec:	6a5b      	ldr	r3, [r3, #36]	; 0x24
 8001fee:	f403 3300 	and.w	r3, r3, #131072	; 0x20000
 8001ff2:	613b      	str	r3, [r7, #16]
 8001ff4:	693b      	ldr	r3, [r7, #16]

    __HAL_RCC_GPIOA_CLK_ENABLE();
 8001ff6:	4b15      	ldr	r3, [pc, #84]	; (800204c <HAL_UART_MspInit+0x90>)
 8001ff8:	69db      	ldr	r3, [r3, #28]
 8001ffa:	4a14      	ldr	r2, [pc, #80]	; (800204c <HAL_UART_MspInit+0x90>)
 8001ffc:	f043 0301 	orr.w	r3, r3, #1
 8002000:	61d3      	str	r3, [r2, #28]
 8002002:	4b12      	ldr	r3, [pc, #72]	; (800204c <HAL_UART_MspInit+0x90>)
 8002004:	69db      	ldr	r3, [r3, #28]
 8002006:	f003 0301 	and.w	r3, r3, #1
 800200a:	60fb      	str	r3, [r7, #12]
 800200c:	68fb      	ldr	r3, [r7, #12]
    /**USART2 GPIO Configuration
    PA2     ------> USART2_TX
    PA3     ------> USART2_RX
    */
    GPIO_InitStruct.Pin = GPIO_PIN_2|GPIO_PIN_3;
 800200e:	230c      	movs	r3, #12
 8002010:	617b      	str	r3, [r7, #20]
    GPIO_InitStruct.Mode = GPIO_MODE_AF_PP;
 8002012:	2302      	movs	r3, #2
 8002014:	61bb      	str	r3, [r7, #24]
    GPIO_InitStruct.Pull = GPIO_NOPULL;
 8002016:	2300      	movs	r3, #0
 8002018:	61fb      	str	r3, [r7, #28]
    GPIO_InitStruct.Speed = GPIO_SPEED_FREQ_VERY_HIGH;
 800201a:	2303      	movs	r3, #3
 800201c:	623b      	str	r3, [r7, #32]
    GPIO_InitStruct.Alternate = GPIO_AF7_USART2;
 800201e:	2307      	movs	r3, #7
 8002020:	627b      	str	r3, [r7, #36]	; 0x24
    HAL_GPIO_Init(GPIOA, &GPIO_InitStruct);
 8002022:	f107 0314 	add.w	r3, r7, #20
 8002026:	4619      	mov	r1, r3
 8002028:	4809      	ldr	r0, [pc, #36]	; (8002050 <HAL_UART_MspInit+0x94>)
 800202a:	f000 fa87 	bl	800253c <HAL_GPIO_Init>

    /* USART2 interrupt Init */
    HAL_NVIC_SetPriority(USART2_IRQn, 0, 0);
 800202e:	2200      	movs	r2, #0
 8002030:	2100      	movs	r1, #0
 8002032:	2026      	movs	r0, #38	; 0x26
 8002034:	f000 f9bf 	bl	80023b6 <HAL_NVIC_SetPriority>
    HAL_NVIC_EnableIRQ(USART2_IRQn);
 8002038:	2026      	movs	r0, #38	; 0x26
 800203a:	f000 f9d8 	bl	80023ee <HAL_NVIC_EnableIRQ>
  /* USER CODE BEGIN USART2_MspInit 1 */

  /* USER CODE END USART2_MspInit 1 */
  }
}
 800203e:	bf00      	nop
 8002040:	3728      	adds	r7, #40	; 0x28
 8002042:	46bd      	mov	sp, r7
 8002044:	bd80      	pop	{r7, pc}
 8002046:	bf00      	nop
 8002048:	40004400 	.word	0x40004400
 800204c:	40023800 	.word	0x40023800
 8002050:	40020000 	.word	0x40020000

08002054 <Reset_Handler>:
  .type Reset_Handler, %function
Reset_Handler:


/* Call the clock system initialization function.*/
    bl  SystemInit
 8002054:	f7ff ff00 	bl	8001e58 <SystemInit>

/* Copy the data segment initializers from flash to SRAM */
  ldr r0, =_sdata
 8002058:	480b      	ldr	r0, [pc, #44]	; (8002088 <LoopFillZerobss+0xe>)
  ldr r1, =_edata
 800205a:	490c      	ldr	r1, [pc, #48]	; (800208c <LoopFillZerobss+0x12>)
  ldr r2, =_sidata
 800205c:	4a0c      	ldr	r2, [pc, #48]	; (8002090 <LoopFillZerobss+0x16>)
  movs r3, #0
 800205e:	2300      	movs	r3, #0
  b LoopCopyDataInit
 8002060:	e002      	b.n	8002068 <LoopCopyDataInit>

08002062 <CopyDataInit>:

CopyDataInit:
  ldr r4, [r2, r3]
 8002062:	58d4      	ldr	r4, [r2, r3]
  str r4, [r0, r3]
 8002064:	50c4      	str	r4, [r0, r3]
  adds r3, r3, #4
 8002066:	3304      	adds	r3, #4

08002068 <LoopCopyDataInit>:

LoopCopyDataInit:
  adds r4, r0, r3
 8002068:	18c4      	adds	r4, r0, r3
  cmp r4, r1
 800206a:	428c      	cmp	r4, r1
  bcc CopyDataInit
 800206c:	d3f9      	bcc.n	8002062 <CopyDataInit>
  
/* Zero fill the bss segment. */
  ldr r2, =_sbss
 800206e:	4a09      	ldr	r2, [pc, #36]	; (8002094 <LoopFillZerobss+0x1a>)
  ldr r4, =_ebss
 8002070:	4c09      	ldr	r4, [pc, #36]	; (8002098 <LoopFillZerobss+0x1e>)
  movs r3, #0
 8002072:	2300      	movs	r3, #0
  b LoopFillZerobss
 8002074:	e001      	b.n	800207a <LoopFillZerobss>

08002076 <FillZerobss>:

FillZerobss:
  str  r3, [r2]
 8002076:	6013      	str	r3, [r2, #0]
  adds r2, r2, #4
 8002078:	3204      	adds	r2, #4

0800207a <LoopFillZerobss>:

LoopFillZerobss:
  cmp r2, r4
 800207a:	42a2      	cmp	r2, r4
  bcc FillZerobss
 800207c:	d3fb      	bcc.n	8002076 <FillZerobss>

/* Call static constructors */
    bl __libc_init_array
 800207e:	f003 f9d3 	bl	8005428 <__libc_init_array>
/* Call the application's entry point.*/
  bl main
 8002082:	f7ff fd0d 	bl	8001aa0 <main>
  bx lr
 8002086:	4770      	bx	lr
  ldr r0, =_sdata
 8002088:	20000000 	.word	0x20000000
  ldr r1, =_edata
 800208c:	200000b0 	.word	0x200000b0
  ldr r2, =_sidata
 8002090:	080079c8 	.word	0x080079c8
  ldr r2, =_sbss
 8002094:	200000b0 	.word	0x200000b0
  ldr r4, =_ebss
 8002098:	20000620 	.word	0x20000620

0800209c <ADC1_IRQHandler>:
 * @retval : None
*/
    .section .text.Default_Handler,"ax",%progbits
Default_Handler:
Infinite_Loop:
  b Infinite_Loop
 800209c:	e7fe      	b.n	800209c <ADC1_IRQHandler>

0800209e <HAL_Init>:
  *        In the default implementation,Systick is used as source of time base.
  *        the tick variable is incremented each 1ms in its ISR.
  * @retval HAL status
  */
HAL_StatusTypeDef HAL_Init(void)
{
 800209e:	b580      	push	{r7, lr}
 80020a0:	b082      	sub	sp, #8
 80020a2:	af00      	add	r7, sp, #0
  HAL_StatusTypeDef  status = HAL_OK;
 80020a4:	2300      	movs	r3, #0
 80020a6:	71fb      	strb	r3, [r7, #7]
#if (PREFETCH_ENABLE != 0)
  __HAL_FLASH_PREFETCH_BUFFER_ENABLE();
#endif /* PREFETCH_ENABLE */

  /* Set Interrupt Group Priority */
  HAL_NVIC_SetPriorityGrouping(NVIC_PRIORITYGROUP_4);
 80020a8:	2003      	movs	r0, #3
 80020aa:	f000 f979 	bl	80023a0 <HAL_NVIC_SetPriorityGrouping>

  /* Use systick as time base source and configure 1ms tick (default clock after Reset is MSI) */
  if (HAL_InitTick(TICK_INT_PRIORITY) != HAL_OK)
 80020ae:	2000      	movs	r0, #0
 80020b0:	f000 f80e 	bl	80020d0 <HAL_InitTick>
 80020b4:	4603      	mov	r3, r0
 80020b6:	2b00      	cmp	r3, #0
 80020b8:	d002      	beq.n	80020c0 <HAL_Init+0x22>
  {
    status = HAL_ERROR;
 80020ba:	2301      	movs	r3, #1
 80020bc:	71fb      	strb	r3, [r7, #7]
 80020be:	e001      	b.n	80020c4 <HAL_Init+0x26>
  }
  else
  {
    /* Init the low level hardware */
    HAL_MspInit();
 80020c0:	f7ff fdda 	bl	8001c78 <HAL_MspInit>
  }

  /* Return function status */
  return status;
 80020c4:	79fb      	ldrb	r3, [r7, #7]
}
 80020c6:	4618      	mov	r0, r3
 80020c8:	3708      	adds	r7, #8
 80020ca:	46bd      	mov	sp, r7
 80020cc:	bd80      	pop	{r7, pc}
	...

080020d0 <HAL_InitTick>:
  *       implementation  in user file.
  * @param TickPriority Tick interrupt priority.
  * @retval HAL status
  */
__weak HAL_StatusTypeDef HAL_InitTick(uint32_t TickPriority)
{
 80020d0:	b580      	push	{r7, lr}
 80020d2:	b084      	sub	sp, #16
 80020d4:	af00      	add	r7, sp, #0
 80020d6:	6078      	str	r0, [r7, #4]
  HAL_StatusTypeDef  status = HAL_OK;
 80020d8:	2300      	movs	r3, #0
 80020da:	73fb      	strb	r3, [r7, #15]

  if (uwTickFreq != 0U)
 80020dc:	4b16      	ldr	r3, [pc, #88]	; (8002138 <HAL_InitTick+0x68>)
 80020de:	681b      	ldr	r3, [r3, #0]
 80020e0:	2b00      	cmp	r3, #0
 80020e2:	d022      	beq.n	800212a <HAL_InitTick+0x5a>
  {
    /*Configure the SysTick to have interrupt in 1ms time basis*/
    if (HAL_SYSTICK_Config(SystemCoreClock / (1000U / uwTickFreq)) == 0U)
 80020e4:	4b15      	ldr	r3, [pc, #84]	; (800213c <HAL_InitTick+0x6c>)
 80020e6:	681a      	ldr	r2, [r3, #0]
 80020e8:	4b13      	ldr	r3, [pc, #76]	; (8002138 <HAL_InitTick+0x68>)
 80020ea:	681b      	ldr	r3, [r3, #0]
 80020ec:	f44f 717a 	mov.w	r1, #1000	; 0x3e8
 80020f0:	fbb1 f3f3 	udiv	r3, r1, r3
 80020f4:	fbb2 f3f3 	udiv	r3, r2, r3
 80020f8:	4618      	mov	r0, r3
 80020fa:	f000 f994 	bl	8002426 <HAL_SYSTICK_Config>
 80020fe:	4603      	mov	r3, r0
 8002100:	2b00      	cmp	r3, #0
 8002102:	d10f      	bne.n	8002124 <HAL_InitTick+0x54>
    {
      /* Configure the SysTick IRQ priority */
      if (TickPriority < (1UL << __NVIC_PRIO_BITS))
 8002104:	687b      	ldr	r3, [r7, #4]
 8002106:	2b0f      	cmp	r3, #15
 8002108:	d809      	bhi.n	800211e <HAL_InitTick+0x4e>
      {
        HAL_NVIC_SetPriority(SysTick_IRQn, TickPriority, 0U);
 800210a:	2200      	movs	r2, #0
 800210c:	6879      	ldr	r1, [r7, #4]
 800210e:	f04f 30ff 	mov.w	r0, #4294967295
 8002112:	f000 f950 	bl	80023b6 <HAL_NVIC_SetPriority>
        uwTickPrio = TickPriority;
 8002116:	4a0a      	ldr	r2, [pc, #40]	; (8002140 <HAL_InitTick+0x70>)
 8002118:	687b      	ldr	r3, [r7, #4]
 800211a:	6013      	str	r3, [r2, #0]
 800211c:	e007      	b.n	800212e <HAL_InitTick+0x5e>
      }
      else
      {
        status = HAL_ERROR;
 800211e:	2301      	movs	r3, #1
 8002120:	73fb      	strb	r3, [r7, #15]
 8002122:	e004      	b.n	800212e <HAL_InitTick+0x5e>
      }
    }
    else
    {
      status = HAL_ERROR;
 8002124:	2301      	movs	r3, #1
 8002126:	73fb      	strb	r3, [r7, #15]
 8002128:	e001      	b.n	800212e <HAL_InitTick+0x5e>
    }
  }
  else
  {
    status = HAL_ERROR;
 800212a:	2301      	movs	r3, #1
 800212c:	73fb      	strb	r3, [r7, #15]
  }

  /* Return function status */
  return status;
 800212e:	7bfb      	ldrb	r3, [r7, #15]
}
 8002130:	4618      	mov	r0, r3
 8002132:	3710      	adds	r7, #16
 8002134:	46bd      	mov	sp, r7
 8002136:	bd80      	pop	{r7, pc}
 8002138:	20000048 	.word	0x20000048
 800213c:	20000014 	.word	0x20000014
 8002140:	20000044 	.word	0x20000044

08002144 <HAL_IncTick>:
 * @note This function is declared as __weak to be overwritten in case of other
  *      implementations in user file.
  * @retval None
  */
__weak void HAL_IncTick(void)
{
 8002144:	b480      	push	{r7}
 8002146:	af00      	add	r7, sp, #0
  uwTick += uwTickFreq;
 8002148:	4b05      	ldr	r3, [pc, #20]	; (8002160 <HAL_IncTick+0x1c>)
 800214a:	681a      	ldr	r2, [r3, #0]
 800214c:	4b05      	ldr	r3, [pc, #20]	; (8002164 <HAL_IncTick+0x20>)
 800214e:	681b      	ldr	r3, [r3, #0]
 8002150:	4413      	add	r3, r2
 8002152:	4a03      	ldr	r2, [pc, #12]	; (8002160 <HAL_IncTick+0x1c>)
 8002154:	6013      	str	r3, [r2, #0]
}
 8002156:	bf00      	nop
 8002158:	46bd      	mov	sp, r7
 800215a:	bc80      	pop	{r7}
 800215c:	4770      	bx	lr
 800215e:	bf00      	nop
 8002160:	2000060c 	.word	0x2000060c
 8002164:	20000048 	.word	0x20000048

08002168 <HAL_GetTick>:
  * @note This function is declared as __weak to be overwritten in case of other
  *       implementations in user file.
  * @retval tick value
  */
__weak uint32_t HAL_GetTick(void)
{
 8002168:	b480      	push	{r7}
 800216a:	af00      	add	r7, sp, #0
  return uwTick;
 800216c:	4b02      	ldr	r3, [pc, #8]	; (8002178 <HAL_GetTick+0x10>)
 800216e:	681b      	ldr	r3, [r3, #0]
}
 8002170:	4618      	mov	r0, r3
 8002172:	46bd      	mov	sp, r7
 8002174:	bc80      	pop	{r7}
 8002176:	4770      	bx	lr
 8002178:	2000060c 	.word	0x2000060c

0800217c <HAL_Delay>:
  *       implementations in user file.
  * @param Delay specifies the delay time length, in milliseconds.
  * @retval None
  */
__weak void HAL_Delay(uint32_t Delay)
{
 800217c:	b580      	push	{r7, lr}
 800217e:	b084      	sub	sp, #16
 8002180:	af00      	add	r7, sp, #0
 8002182:	6078      	str	r0, [r7, #4]
  uint32_t tickstart = HAL_GetTick();
 8002184:	f7ff fff0 	bl	8002168 <HAL_GetTick>
 8002188:	60b8      	str	r0, [r7, #8]
  uint32_t wait = Delay;
 800218a:	687b      	ldr	r3, [r7, #4]
 800218c:	60fb      	str	r3, [r7, #12]

  /* Add a period to guaranty minimum wait */
  if (wait < HAL_MAX_DELAY)
 800218e:	68fb      	ldr	r3, [r7, #12]
 8002190:	f1b3 3fff 	cmp.w	r3, #4294967295
 8002194:	d004      	beq.n	80021a0 <HAL_Delay+0x24>
  {
    wait += (uint32_t)(uwTickFreq);
 8002196:	4b09      	ldr	r3, [pc, #36]	; (80021bc <HAL_Delay+0x40>)
 8002198:	681b      	ldr	r3, [r3, #0]
 800219a:	68fa      	ldr	r2, [r7, #12]
 800219c:	4413      	add	r3, r2
 800219e:	60fb      	str	r3, [r7, #12]
  }

  while((HAL_GetTick() - tickstart) < wait)
 80021a0:	bf00      	nop
 80021a2:	f7ff ffe1 	bl	8002168 <HAL_GetTick>
 80021a6:	4602      	mov	r2, r0
 80021a8:	68bb      	ldr	r3, [r7, #8]
 80021aa:	1ad3      	subs	r3, r2, r3
 80021ac:	68fa      	ldr	r2, [r7, #12]
 80021ae:	429a      	cmp	r2, r3
 80021b0:	d8f7      	bhi.n	80021a2 <HAL_Delay+0x26>
  {
  }
}
 80021b2:	bf00      	nop
 80021b4:	bf00      	nop
 80021b6:	3710      	adds	r7, #16
 80021b8:	46bd      	mov	sp, r7
 80021ba:	bd80      	pop	{r7, pc}
 80021bc:	20000048 	.word	0x20000048

080021c0 <__NVIC_SetPriorityGrouping>:
{
 80021c0:	b480      	push	{r7}
 80021c2:	b085      	sub	sp, #20
 80021c4:	af00      	add	r7, sp, #0
 80021c6:	6078      	str	r0, [r7, #4]
  uint32_t PriorityGroupTmp = (PriorityGroup & (uint32_t)0x07UL);             /* only values 0..7 are used          */
 80021c8:	687b      	ldr	r3, [r7, #4]
 80021ca:	f003 0307 	and.w	r3, r3, #7
 80021ce:	60fb      	str	r3, [r7, #12]
  reg_value  =  SCB->AIRCR;                                                   /* read old register configuration    */
 80021d0:	4b0c      	ldr	r3, [pc, #48]	; (8002204 <__NVIC_SetPriorityGrouping+0x44>)
 80021d2:	68db      	ldr	r3, [r3, #12]
 80021d4:	60bb      	str	r3, [r7, #8]
  reg_value &= ~((uint32_t)(SCB_AIRCR_VECTKEY_Msk | SCB_AIRCR_PRIGROUP_Msk)); /* clear bits to change               */
 80021d6:	68ba      	ldr	r2, [r7, #8]
 80021d8:	f64f 03ff 	movw	r3, #63743	; 0xf8ff
 80021dc:	4013      	ands	r3, r2
 80021de:	60bb      	str	r3, [r7, #8]
                (PriorityGroupTmp << SCB_AIRCR_PRIGROUP_Pos) );               /* Insert write key and priority group */
 80021e0:	68fb      	ldr	r3, [r7, #12]
 80021e2:	021a      	lsls	r2, r3, #8
                ((uint32_t)0x5FAUL << SCB_AIRCR_VECTKEY_Pos) |
 80021e4:	68bb      	ldr	r3, [r7, #8]
 80021e6:	4313      	orrs	r3, r2
  reg_value  =  (reg_value                                   |
 80021e8:	f043 63bf 	orr.w	r3, r3, #100139008	; 0x5f80000
 80021ec:	f443 3300 	orr.w	r3, r3, #131072	; 0x20000
 80021f0:	60bb      	str	r3, [r7, #8]
  SCB->AIRCR =  reg_value;
 80021f2:	4a04      	ldr	r2, [pc, #16]	; (8002204 <__NVIC_SetPriorityGrouping+0x44>)
 80021f4:	68bb      	ldr	r3, [r7, #8]
 80021f6:	60d3      	str	r3, [r2, #12]
}
 80021f8:	bf00      	nop
 80021fa:	3714      	adds	r7, #20
 80021fc:	46bd      	mov	sp, r7
 80021fe:	bc80      	pop	{r7}
 8002200:	4770      	bx	lr
 8002202:	bf00      	nop
 8002204:	e000ed00 	.word	0xe000ed00

08002208 <__NVIC_GetPriorityGrouping>:
{
 8002208:	b480      	push	{r7}
 800220a:	af00      	add	r7, sp, #0
  return ((uint32_t)((SCB->AIRCR & SCB_AIRCR_PRIGROUP_Msk) >> SCB_AIRCR_PRIGROUP_Pos));
 800220c:	4b04      	ldr	r3, [pc, #16]	; (8002220 <__NVIC_GetPriorityGrouping+0x18>)
 800220e:	68db      	ldr	r3, [r3, #12]
 8002210:	0a1b      	lsrs	r3, r3, #8
 8002212:	f003 0307 	and.w	r3, r3, #7
}
 8002216:	4618      	mov	r0, r3
 8002218:	46bd      	mov	sp, r7
 800221a:	bc80      	pop	{r7}
 800221c:	4770      	bx	lr
 800221e:	bf00      	nop
 8002220:	e000ed00 	.word	0xe000ed00

08002224 <__NVIC_EnableIRQ>:
{
 8002224:	b480      	push	{r7}
 8002226:	b083      	sub	sp, #12
 8002228:	af00      	add	r7, sp, #0
 800222a:	4603      	mov	r3, r0
 800222c:	71fb      	strb	r3, [r7, #7]
  if ((int32_t)(IRQn) >= 0)
 800222e:	f997 3007 	ldrsb.w	r3, [r7, #7]
 8002232:	2b00      	cmp	r3, #0
 8002234:	db0b      	blt.n	800224e <__NVIC_EnableIRQ+0x2a>
    NVIC->ISER[(((uint32_t)IRQn) >> 5UL)] = (uint32_t)(1UL << (((uint32_t)IRQn) & 0x1FUL));
 8002236:	79fb      	ldrb	r3, [r7, #7]
 8002238:	f003 021f 	and.w	r2, r3, #31
 800223c:	4906      	ldr	r1, [pc, #24]	; (8002258 <__NVIC_EnableIRQ+0x34>)
 800223e:	f997 3007 	ldrsb.w	r3, [r7, #7]
 8002242:	095b      	lsrs	r3, r3, #5
 8002244:	2001      	movs	r0, #1
 8002246:	fa00 f202 	lsl.w	r2, r0, r2
 800224a:	f841 2023 	str.w	r2, [r1, r3, lsl #2]
}
 800224e:	bf00      	nop
 8002250:	370c      	adds	r7, #12
 8002252:	46bd      	mov	sp, r7
 8002254:	bc80      	pop	{r7}
 8002256:	4770      	bx	lr
 8002258:	e000e100 	.word	0xe000e100

0800225c <__NVIC_DisableIRQ>:
{
 800225c:	b480      	push	{r7}
 800225e:	b083      	sub	sp, #12
 8002260:	af00      	add	r7, sp, #0
 8002262:	4603      	mov	r3, r0
 8002264:	71fb      	strb	r3, [r7, #7]
  if ((int32_t)(IRQn) >= 0)
 8002266:	f997 3007 	ldrsb.w	r3, [r7, #7]
 800226a:	2b00      	cmp	r3, #0
 800226c:	db12      	blt.n	8002294 <__NVIC_DisableIRQ+0x38>
    NVIC->ICER[(((uint32_t)IRQn) >> 5UL)] = (uint32_t)(1UL << (((uint32_t)IRQn) & 0x1FUL));
 800226e:	79fb      	ldrb	r3, [r7, #7]
 8002270:	f003 021f 	and.w	r2, r3, #31
 8002274:	490a      	ldr	r1, [pc, #40]	; (80022a0 <__NVIC_DisableIRQ+0x44>)
 8002276:	f997 3007 	ldrsb.w	r3, [r7, #7]
 800227a:	095b      	lsrs	r3, r3, #5
 800227c:	2001      	movs	r0, #1
 800227e:	fa00 f202 	lsl.w	r2, r0, r2
 8002282:	3320      	adds	r3, #32
 8002284:	f841 2023 	str.w	r2, [r1, r3, lsl #2]
  __ASM volatile ("dsb 0xF":::"memory");
 8002288:	f3bf 8f4f 	dsb	sy
}
 800228c:	bf00      	nop
  __ASM volatile ("isb 0xF":::"memory");
 800228e:	f3bf 8f6f 	isb	sy
}
 8002292:	bf00      	nop
}
 8002294:	bf00      	nop
 8002296:	370c      	adds	r7, #12
 8002298:	46bd      	mov	sp, r7
 800229a:	bc80      	pop	{r7}
 800229c:	4770      	bx	lr
 800229e:	bf00      	nop
 80022a0:	e000e100 	.word	0xe000e100

080022a4 <__NVIC_SetPriority>:
  \param [in]      IRQn  Interrupt number.
  \param [in]  priority  Priority to set.
  \note    The priority cannot be set for every processor exception.
 */
__STATIC_INLINE void __NVIC_SetPriority(IRQn_Type IRQn, uint32_t priority)
{
 80022a4:	b480      	push	{r7}
 80022a6:	b083      	sub	sp, #12
 80022a8:	af00      	add	r7, sp, #0
 80022aa:	4603      	mov	r3, r0
 80022ac:	6039      	str	r1, [r7, #0]
 80022ae:	71fb      	strb	r3, [r7, #7]
  if ((int32_t)(IRQn) >= 0)
 80022b0:	f997 3007 	ldrsb.w	r3, [r7, #7]
 80022b4:	2b00      	cmp	r3, #0
 80022b6:	db0a      	blt.n	80022ce <__NVIC_SetPriority+0x2a>
  {
    NVIC->IP[((uint32_t)IRQn)]               = (uint8_t)((priority << (8U - __NVIC_PRIO_BITS)) & (uint32_t)0xFFUL);
 80022b8:	683b      	ldr	r3, [r7, #0]
 80022ba:	b2da      	uxtb	r2, r3
 80022bc:	490c      	ldr	r1, [pc, #48]	; (80022f0 <__NVIC_SetPriority+0x4c>)
 80022be:	f997 3007 	ldrsb.w	r3, [r7, #7]
 80022c2:	0112      	lsls	r2, r2, #4
 80022c4:	b2d2      	uxtb	r2, r2
 80022c6:	440b      	add	r3, r1
 80022c8:	f883 2300 	strb.w	r2, [r3, #768]	; 0x300
  }
  else
  {
    SCB->SHP[(((uint32_t)IRQn) & 0xFUL)-4UL] = (uint8_t)((priority << (8U - __NVIC_PRIO_BITS)) & (uint32_t)0xFFUL);
  }
}
 80022cc:	e00a      	b.n	80022e4 <__NVIC_SetPriority+0x40>
    SCB->SHP[(((uint32_t)IRQn) & 0xFUL)-4UL] = (uint8_t)((priority << (8U - __NVIC_PRIO_BITS)) & (uint32_t)0xFFUL);
 80022ce:	683b      	ldr	r3, [r7, #0]
 80022d0:	b2da      	uxtb	r2, r3
 80022d2:	4908      	ldr	r1, [pc, #32]	; (80022f4 <__NVIC_SetPriority+0x50>)
 80022d4:	79fb      	ldrb	r3, [r7, #7]
 80022d6:	f003 030f 	and.w	r3, r3, #15
 80022da:	3b04      	subs	r3, #4
 80022dc:	0112      	lsls	r2, r2, #4
 80022de:	b2d2      	uxtb	r2, r2
 80022e0:	440b      	add	r3, r1
 80022e2:	761a      	strb	r2, [r3, #24]
}
 80022e4:	bf00      	nop
 80022e6:	370c      	adds	r7, #12
 80022e8:	46bd      	mov	sp, r7
 80022ea:	bc80      	pop	{r7}
 80022ec:	4770      	bx	lr
 80022ee:	bf00      	nop
 80022f0:	e000e100 	.word	0xe000e100
 80022f4:	e000ed00 	.word	0xe000ed00

080022f8 <NVIC_EncodePriority>:
  \param [in]   PreemptPriority  Preemptive priority value (starting from 0).
  \param [in]       SubPriority  Subpriority value (starting from 0).
  \return                        Encoded priority. Value can be used in the function \ref NVIC_SetPriority().
 */
__STATIC_INLINE uint32_t NVIC_EncodePriority (uint32_t PriorityGroup, uint32_t PreemptPriority, uint32_t SubPriority)
{
 80022f8:	b480      	push	{r7}
 80022fa:	b089      	sub	sp, #36	; 0x24
 80022fc:	af00      	add	r7, sp, #0
 80022fe:	60f8      	str	r0, [r7, #12]
 8002300:	60b9      	str	r1, [r7, #8]
 8002302:	607a      	str	r2, [r7, #4]
  uint32_t PriorityGroupTmp = (PriorityGroup & (uint32_t)0x07UL);   /* only values 0..7 are used          */
 8002304:	68fb      	ldr	r3, [r7, #12]
 8002306:	f003 0307 	and.w	r3, r3, #7
 800230a:	61fb      	str	r3, [r7, #28]
  uint32_t PreemptPriorityBits;
  uint32_t SubPriorityBits;

  PreemptPriorityBits = ((7UL - PriorityGroupTmp) > (uint32_t)(__NVIC_PRIO_BITS)) ? (uint32_t)(__NVIC_PRIO_BITS) : (uint32_t)(7UL - PriorityGroupTmp);
 800230c:	69fb      	ldr	r3, [r7, #28]
 800230e:	f1c3 0307 	rsb	r3, r3, #7
 8002312:	2b04      	cmp	r3, #4
 8002314:	bf28      	it	cs
 8002316:	2304      	movcs	r3, #4
 8002318:	61bb      	str	r3, [r7, #24]
  SubPriorityBits     = ((PriorityGroupTmp + (uint32_t)(__NVIC_PRIO_BITS)) < (uint32_t)7UL) ? (uint32_t)0UL : (uint32_t)((PriorityGroupTmp - 7UL) + (uint32_t)(__NVIC_PRIO_BITS));
 800231a:	69fb      	ldr	r3, [r7, #28]
 800231c:	3304      	adds	r3, #4
 800231e:	2b06      	cmp	r3, #6
 8002320:	d902      	bls.n	8002328 <NVIC_EncodePriority+0x30>
 8002322:	69fb      	ldr	r3, [r7, #28]
 8002324:	3b03      	subs	r3, #3
 8002326:	e000      	b.n	800232a <NVIC_EncodePriority+0x32>
 8002328:	2300      	movs	r3, #0
 800232a:	617b      	str	r3, [r7, #20]

  return (
           ((PreemptPriority & (uint32_t)((1UL << (PreemptPriorityBits)) - 1UL)) << SubPriorityBits) |
 800232c:	f04f 32ff 	mov.w	r2, #4294967295
 8002330:	69bb      	ldr	r3, [r7, #24]
 8002332:	fa02 f303 	lsl.w	r3, r2, r3
 8002336:	43da      	mvns	r2, r3
 8002338:	68bb      	ldr	r3, [r7, #8]
 800233a:	401a      	ands	r2, r3
 800233c:	697b      	ldr	r3, [r7, #20]
 800233e:	409a      	lsls	r2, r3
           ((SubPriority     & (uint32_t)((1UL << (SubPriorityBits    )) - 1UL)))
 8002340:	f04f 31ff 	mov.w	r1, #4294967295
 8002344:	697b      	ldr	r3, [r7, #20]
 8002346:	fa01 f303 	lsl.w	r3, r1, r3
 800234a:	43d9      	mvns	r1, r3
 800234c:	687b      	ldr	r3, [r7, #4]
 800234e:	400b      	ands	r3, r1
           ((PreemptPriority & (uint32_t)((1UL << (PreemptPriorityBits)) - 1UL)) << SubPriorityBits) |
 8002350:	4313      	orrs	r3, r2
         );
}
 8002352:	4618      	mov	r0, r3
 8002354:	3724      	adds	r7, #36	; 0x24
 8002356:	46bd      	mov	sp, r7
 8002358:	bc80      	pop	{r7}
 800235a:	4770      	bx	lr

0800235c <SysTick_Config>:
  \note    When the variable <b>__Vendor_SysTickConfig</b> is set to 1, then the
           function <b>SysTick_Config</b> is not included. In this case, the file <b><i>device</i>.h</b>
           must contain a vendor-specific implementation of this function.
 */
__STATIC_INLINE uint32_t SysTick_Config(uint32_t ticks)
{
 800235c:	b580      	push	{r7, lr}
 800235e:	b082      	sub	sp, #8
 8002360:	af00      	add	r7, sp, #0
 8002362:	6078      	str	r0, [r7, #4]
  if ((ticks - 1UL) > SysTick_LOAD_RELOAD_Msk)
 8002364:	687b      	ldr	r3, [r7, #4]
 8002366:	3b01      	subs	r3, #1
 8002368:	f1b3 7f80 	cmp.w	r3, #16777216	; 0x1000000
 800236c:	d301      	bcc.n	8002372 <SysTick_Config+0x16>
  {
    return (1UL);                                                   /* Reload value impossible */
 800236e:	2301      	movs	r3, #1
 8002370:	e00f      	b.n	8002392 <SysTick_Config+0x36>
  }

  SysTick->LOAD  = (uint32_t)(ticks - 1UL);                         /* set reload register */
 8002372:	4a0a      	ldr	r2, [pc, #40]	; (800239c <SysTick_Config+0x40>)
 8002374:	687b      	ldr	r3, [r7, #4]
 8002376:	3b01      	subs	r3, #1
 8002378:	6053      	str	r3, [r2, #4]
  NVIC_SetPriority (SysTick_IRQn, (1UL << __NVIC_PRIO_BITS) - 1UL); /* set Priority for Systick Interrupt */
 800237a:	210f      	movs	r1, #15
 800237c:	f04f 30ff 	mov.w	r0, #4294967295
 8002380:	f7ff ff90 	bl	80022a4 <__NVIC_SetPriority>
  SysTick->VAL   = 0UL;                                             /* Load the SysTick Counter Value */
 8002384:	4b05      	ldr	r3, [pc, #20]	; (800239c <SysTick_Config+0x40>)
 8002386:	2200      	movs	r2, #0
 8002388:	609a      	str	r2, [r3, #8]
  SysTick->CTRL  = SysTick_CTRL_CLKSOURCE_Msk |
 800238a:	4b04      	ldr	r3, [pc, #16]	; (800239c <SysTick_Config+0x40>)
 800238c:	2207      	movs	r2, #7
 800238e:	601a      	str	r2, [r3, #0]
                   SysTick_CTRL_TICKINT_Msk   |
                   SysTick_CTRL_ENABLE_Msk;                         /* Enable SysTick IRQ and SysTick Timer */
  return (0UL);                                                     /* Function successful */
 8002390:	2300      	movs	r3, #0
}
 8002392:	4618      	mov	r0, r3
 8002394:	3708      	adds	r7, #8
 8002396:	46bd      	mov	sp, r7
 8002398:	bd80      	pop	{r7, pc}
 800239a:	bf00      	nop
 800239c:	e000e010 	.word	0xe000e010

080023a0 <HAL_NVIC_SetPriorityGrouping>:
  * @note   When the NVIC_PriorityGroup_0 is selected, IRQ pre-emption is no more possible. 
  *         The pending IRQ priority will be managed only by the subpriority. 
  * @retval None
  */
void HAL_NVIC_SetPriorityGrouping(uint32_t PriorityGroup)
{
 80023a0:	b580      	push	{r7, lr}
 80023a2:	b082      	sub	sp, #8
 80023a4:	af00      	add	r7, sp, #0
 80023a6:	6078      	str	r0, [r7, #4]
  /* Check the parameters */
  assert_param(IS_NVIC_PRIORITY_GROUP(PriorityGroup));
  
  /* Set the PRIGROUP[10:8] bits according to the PriorityGroup parameter value */
  NVIC_SetPriorityGrouping(PriorityGroup);
 80023a8:	6878      	ldr	r0, [r7, #4]
 80023aa:	f7ff ff09 	bl	80021c0 <__NVIC_SetPriorityGrouping>
}
 80023ae:	bf00      	nop
 80023b0:	3708      	adds	r7, #8
 80023b2:	46bd      	mov	sp, r7
 80023b4:	bd80      	pop	{r7, pc}

080023b6 <HAL_NVIC_SetPriority>:
  *         This parameter can be a value between 0 and 15
  *         A lower priority value indicates a higher priority.          
  * @retval None
  */
void HAL_NVIC_SetPriority(IRQn_Type IRQn, uint32_t PreemptPriority, uint32_t SubPriority)
{
 80023b6:	b580      	push	{r7, lr}
 80023b8:	b086      	sub	sp, #24
 80023ba:	af00      	add	r7, sp, #0
 80023bc:	4603      	mov	r3, r0
 80023be:	60b9      	str	r1, [r7, #8]
 80023c0:	607a      	str	r2, [r7, #4]
 80023c2:	73fb      	strb	r3, [r7, #15]
  uint32_t prioritygroup = 0x00;
 80023c4:	2300      	movs	r3, #0
 80023c6:	617b      	str	r3, [r7, #20]
  
  /* Check the parameters */
  assert_param(IS_NVIC_SUB_PRIORITY(SubPriority));
  assert_param(IS_NVIC_PREEMPTION_PRIORITY(PreemptPriority));
  
  prioritygroup = NVIC_GetPriorityGrouping();
 80023c8:	f7ff ff1e 	bl	8002208 <__NVIC_GetPriorityGrouping>
 80023cc:	6178      	str	r0, [r7, #20]
  
  NVIC_SetPriority(IRQn, NVIC_EncodePriority(prioritygroup, PreemptPriority, SubPriority));
 80023ce:	687a      	ldr	r2, [r7, #4]
 80023d0:	68b9      	ldr	r1, [r7, #8]
 80023d2:	6978      	ldr	r0, [r7, #20]
 80023d4:	f7ff ff90 	bl	80022f8 <NVIC_EncodePriority>
 80023d8:	4602      	mov	r2, r0
 80023da:	f997 300f 	ldrsb.w	r3, [r7, #15]
 80023de:	4611      	mov	r1, r2
 80023e0:	4618      	mov	r0, r3
 80023e2:	f7ff ff5f 	bl	80022a4 <__NVIC_SetPriority>
}
 80023e6:	bf00      	nop
 80023e8:	3718      	adds	r7, #24
 80023ea:	46bd      	mov	sp, r7
 80023ec:	bd80      	pop	{r7, pc}

080023ee <HAL_NVIC_EnableIRQ>:
  *         This parameter can be an enumerator of IRQn_Type enumeration
  *         (For the complete STM32 Devices IRQ Channels list, please refer to the appropriate CMSIS device file (stm32l1xx.h))
  * @retval None
  */
void HAL_NVIC_EnableIRQ(IRQn_Type IRQn)
{
 80023ee:	b580      	push	{r7, lr}
 80023f0:	b082      	sub	sp, #8
 80023f2:	af00      	add	r7, sp, #0
 80023f4:	4603      	mov	r3, r0
 80023f6:	71fb      	strb	r3, [r7, #7]
  /* Check the parameters */
  assert_param(IS_NVIC_DEVICE_IRQ(IRQn));
  
  /* Enable interrupt */
  NVIC_EnableIRQ(IRQn);
 80023f8:	f997 3007 	ldrsb.w	r3, [r7, #7]
 80023fc:	4618      	mov	r0, r3
 80023fe:	f7ff ff11 	bl	8002224 <__NVIC_EnableIRQ>
}
 8002402:	bf00      	nop
 8002404:	3708      	adds	r7, #8
 8002406:	46bd      	mov	sp, r7
 8002408:	bd80      	pop	{r7, pc}

0800240a <HAL_NVIC_DisableIRQ>:
  *         This parameter can be an enumerator of IRQn_Type enumeration
  *         (For the complete STM32 Devices IRQ Channels list, please refer to the appropriate CMSIS device file (stm32l1xxxx.h))  
  * @retval None
  */
void HAL_NVIC_DisableIRQ(IRQn_Type IRQn)
{
 800240a:	b580      	push	{r7, lr}
 800240c:	b082      	sub	sp, #8
 800240e:	af00      	add	r7, sp, #0
 8002410:	4603      	mov	r3, r0
 8002412:	71fb      	strb	r3, [r7, #7]
  /* Check the parameters */
  assert_param(IS_NVIC_DEVICE_IRQ(IRQn));
  
  /* Disable interrupt */
  NVIC_DisableIRQ(IRQn);
 8002414:	f997 3007 	ldrsb.w	r3, [r7, #7]
 8002418:	4618      	mov	r0, r3
 800241a:	f7ff ff1f 	bl	800225c <__NVIC_DisableIRQ>
}
 800241e:	bf00      	nop
 8002420:	3708      	adds	r7, #8
 8002422:	46bd      	mov	sp, r7
 8002424:	bd80      	pop	{r7, pc}

08002426 <HAL_SYSTICK_Config>:
  * @param  TicksNumb Specifies the ticks Number of ticks between two interrupts.
  * @retval status:  - 0  Function succeeded.
  *                  - 1  Function failed.
  */
uint32_t HAL_SYSTICK_Config(uint32_t TicksNumb)
{
 8002426:	b580      	push	{r7, lr}
 8002428:	b082      	sub	sp, #8
 800242a:	af00      	add	r7, sp, #0
 800242c:	6078      	str	r0, [r7, #4]
   return SysTick_Config(TicksNumb);
 800242e:	6878      	ldr	r0, [r7, #4]
 8002430:	f7ff ff94 	bl	800235c <SysTick_Config>
 8002434:	4603      	mov	r3, r0
}
 8002436:	4618      	mov	r0, r3
 8002438:	3708      	adds	r7, #8
 800243a:	46bd      	mov	sp, r7
 800243c:	bd80      	pop	{r7, pc}

0800243e <HAL_DMA_Abort>:
  * @param  hdma pointer to a DMA_HandleTypeDef structure that contains
  *               the configuration information for the specified DMA Channel.
  * @retval HAL status
  */
HAL_StatusTypeDef HAL_DMA_Abort(DMA_HandleTypeDef *hdma)
{
 800243e:	b480      	push	{r7}
 8002440:	b085      	sub	sp, #20
 8002442:	af00      	add	r7, sp, #0
 8002444:	6078      	str	r0, [r7, #4]
  HAL_StatusTypeDef status = HAL_OK;
 8002446:	2300      	movs	r3, #0
 8002448:	73fb      	strb	r3, [r7, #15]

  /* Check the DMA peripheral state */
  if(hdma->State != HAL_DMA_STATE_BUSY)
 800244a:	687b      	ldr	r3, [r7, #4]
 800244c:	f893 3021 	ldrb.w	r3, [r3, #33]	; 0x21
 8002450:	b2db      	uxtb	r3, r3
 8002452:	2b02      	cmp	r3, #2
 8002454:	d008      	beq.n	8002468 <HAL_DMA_Abort+0x2a>
  {
    hdma->ErrorCode = HAL_DMA_ERROR_NO_XFER;
 8002456:	687b      	ldr	r3, [r7, #4]
 8002458:	2204      	movs	r2, #4
 800245a:	639a      	str	r2, [r3, #56]	; 0x38

    /* Process Unlocked */
    __HAL_UNLOCK(hdma);
 800245c:	687b      	ldr	r3, [r7, #4]
 800245e:	2200      	movs	r2, #0
 8002460:	f883 2020 	strb.w	r2, [r3, #32]

    return HAL_ERROR;
 8002464:	2301      	movs	r3, #1
 8002466:	e022      	b.n	80024ae <HAL_DMA_Abort+0x70>
  }
  else
  {
    /* Disable DMA IT */
    __HAL_DMA_DISABLE_IT(hdma, (DMA_IT_TC | DMA_IT_HT | DMA_IT_TE));
 8002468:	687b      	ldr	r3, [r7, #4]
 800246a:	681b      	ldr	r3, [r3, #0]
 800246c:	681a      	ldr	r2, [r3, #0]
 800246e:	687b      	ldr	r3, [r7, #4]
 8002470:	681b      	ldr	r3, [r3, #0]
 8002472:	f022 020e 	bic.w	r2, r2, #14
 8002476:	601a      	str	r2, [r3, #0]

    /* Disable the channel */
    __HAL_DMA_DISABLE(hdma);
 8002478:	687b      	ldr	r3, [r7, #4]
 800247a:	681b      	ldr	r3, [r3, #0]
 800247c:	681a      	ldr	r2, [r3, #0]
 800247e:	687b      	ldr	r3, [r7, #4]
 8002480:	681b      	ldr	r3, [r3, #0]
 8002482:	f022 0201 	bic.w	r2, r2, #1
 8002486:	601a      	str	r2, [r3, #0]

    /* Clear all flags */
    hdma->DmaBaseAddress->IFCR = (DMA_ISR_GIF1 << (hdma->ChannelIndex & 0x1CU));
 8002488:	687b      	ldr	r3, [r7, #4]
 800248a:	6c1b      	ldr	r3, [r3, #64]	; 0x40
 800248c:	f003 021c 	and.w	r2, r3, #28
 8002490:	687b      	ldr	r3, [r7, #4]
 8002492:	6bdb      	ldr	r3, [r3, #60]	; 0x3c
 8002494:	2101      	movs	r1, #1
 8002496:	fa01 f202 	lsl.w	r2, r1, r2
 800249a:	605a      	str	r2, [r3, #4]

    /* Change the DMA state */
    hdma->State = HAL_DMA_STATE_READY;
 800249c:	687b      	ldr	r3, [r7, #4]
 800249e:	2201      	movs	r2, #1
 80024a0:	f883 2021 	strb.w	r2, [r3, #33]	; 0x21

    /* Process Unlocked */
    __HAL_UNLOCK(hdma);
 80024a4:	687b      	ldr	r3, [r7, #4]
 80024a6:	2200      	movs	r2, #0
 80024a8:	f883 2020 	strb.w	r2, [r3, #32]

    return status;
 80024ac:	7bfb      	ldrb	r3, [r7, #15]
  }
}
 80024ae:	4618      	mov	r0, r3
 80024b0:	3714      	adds	r7, #20
 80024b2:	46bd      	mov	sp, r7
 80024b4:	bc80      	pop	{r7}
 80024b6:	4770      	bx	lr

080024b8 <HAL_DMA_Abort_IT>:
  * @param  hdma pointer to a DMA_HandleTypeDef structure that contains
  *                 the configuration information for the specified DMA Channel.
  * @retval HAL status
  */
HAL_StatusTypeDef HAL_DMA_Abort_IT(DMA_HandleTypeDef *hdma)
{
 80024b8:	b580      	push	{r7, lr}
 80024ba:	b084      	sub	sp, #16
 80024bc:	af00      	add	r7, sp, #0
 80024be:	6078      	str	r0, [r7, #4]
  HAL_StatusTypeDef status = HAL_OK;
 80024c0:	2300      	movs	r3, #0
 80024c2:	73fb      	strb	r3, [r7, #15]

  if(HAL_DMA_STATE_BUSY != hdma->State)
 80024c4:	687b      	ldr	r3, [r7, #4]
 80024c6:	f893 3021 	ldrb.w	r3, [r3, #33]	; 0x21
 80024ca:	b2db      	uxtb	r3, r3
 80024cc:	2b02      	cmp	r3, #2
 80024ce:	d005      	beq.n	80024dc <HAL_DMA_Abort_IT+0x24>
  {
    /* no transfer ongoing */
    hdma->ErrorCode = HAL_DMA_ERROR_NO_XFER;
 80024d0:	687b      	ldr	r3, [r7, #4]
 80024d2:	2204      	movs	r2, #4
 80024d4:	639a      	str	r2, [r3, #56]	; 0x38

    status = HAL_ERROR;
 80024d6:	2301      	movs	r3, #1
 80024d8:	73fb      	strb	r3, [r7, #15]
 80024da:	e029      	b.n	8002530 <HAL_DMA_Abort_IT+0x78>
  }
  else
  {
    /* Disable DMA IT */
    __HAL_DMA_DISABLE_IT(hdma, (DMA_IT_TC | DMA_IT_HT | DMA_IT_TE));
 80024dc:	687b      	ldr	r3, [r7, #4]
 80024de:	681b      	ldr	r3, [r3, #0]
 80024e0:	681a      	ldr	r2, [r3, #0]
 80024e2:	687b      	ldr	r3, [r7, #4]
 80024e4:	681b      	ldr	r3, [r3, #0]
 80024e6:	f022 020e 	bic.w	r2, r2, #14
 80024ea:	601a      	str	r2, [r3, #0]

    /* Disable the channel */
    __HAL_DMA_DISABLE(hdma);
 80024ec:	687b      	ldr	r3, [r7, #4]
 80024ee:	681b      	ldr	r3, [r3, #0]
 80024f0:	681a      	ldr	r2, [r3, #0]
 80024f2:	687b      	ldr	r3, [r7, #4]
 80024f4:	681b      	ldr	r3, [r3, #0]
 80024f6:	f022 0201 	bic.w	r2, r2, #1
 80024fa:	601a      	str	r2, [r3, #0]

    /* Clear all flags */
    hdma->DmaBaseAddress->IFCR = (DMA_ISR_GIF1 << (hdma->ChannelIndex & 0x1CU));
 80024fc:	687b      	ldr	r3, [r7, #4]
 80024fe:	6c1b      	ldr	r3, [r3, #64]	; 0x40
 8002500:	f003 021c 	and.w	r2, r3, #28
 8002504:	687b      	ldr	r3, [r7, #4]
 8002506:	6bdb      	ldr	r3, [r3, #60]	; 0x3c
 8002508:	2101      	movs	r1, #1
 800250a:	fa01 f202 	lsl.w	r2, r1, r2
 800250e:	605a      	str	r2, [r3, #4]

    /* Change the DMA state */
    hdma->State = HAL_DMA_STATE_READY;
 8002510:	687b      	ldr	r3, [r7, #4]
 8002512:	2201      	movs	r2, #1
 8002514:	f883 2021 	strb.w	r2, [r3, #33]	; 0x21

    /* Process Unlocked */
    __HAL_UNLOCK(hdma);
 8002518:	687b      	ldr	r3, [r7, #4]
 800251a:	2200      	movs	r2, #0
 800251c:	f883 2020 	strb.w	r2, [r3, #32]

    /* Call User Abort callback */
    if(hdma->XferAbortCallback != NULL)
 8002520:	687b      	ldr	r3, [r7, #4]
 8002522:	6b5b      	ldr	r3, [r3, #52]	; 0x34
 8002524:	2b00      	cmp	r3, #0
 8002526:	d003      	beq.n	8002530 <HAL_DMA_Abort_IT+0x78>
    {
      hdma->XferAbortCallback(hdma);
 8002528:	687b      	ldr	r3, [r7, #4]
 800252a:	6b5b      	ldr	r3, [r3, #52]	; 0x34
 800252c:	6878      	ldr	r0, [r7, #4]
 800252e:	4798      	blx	r3
    }
  }
  return status;
 8002530:	7bfb      	ldrb	r3, [r7, #15]
}
 8002532:	4618      	mov	r0, r3
 8002534:	3710      	adds	r7, #16
 8002536:	46bd      	mov	sp, r7
 8002538:	bd80      	pop	{r7, pc}
	...

0800253c <HAL_GPIO_Init>:
  * @param  GPIO_Init pointer to a GPIO_InitTypeDef structure that contains
  *         the configuration information for the specified GPIO peripheral.
  * @retval None
  */
void HAL_GPIO_Init(GPIO_TypeDef  *GPIOx, GPIO_InitTypeDef *GPIO_Init)
{
 800253c:	b480      	push	{r7}
 800253e:	b087      	sub	sp, #28
 8002540:	af00      	add	r7, sp, #0
 8002542:	6078      	str	r0, [r7, #4]
 8002544:	6039      	str	r1, [r7, #0]
  uint32_t position = 0x00;
 8002546:	2300      	movs	r3, #0
 8002548:	617b      	str	r3, [r7, #20]
  uint32_t iocurrent = 0x00;
 800254a:	2300      	movs	r3, #0
 800254c:	60fb      	str	r3, [r7, #12]
  uint32_t temp = 0x00;
 800254e:	2300      	movs	r3, #0
 8002550:	613b      	str	r3, [r7, #16]
  assert_param(IS_GPIO_ALL_INSTANCE(GPIOx));
  assert_param(IS_GPIO_PIN(GPIO_Init->Pin));
  assert_param(IS_GPIO_MODE(GPIO_Init->Mode));

  /* Configure the port pins */
  while (((GPIO_Init->Pin) >> position) != 0)
 8002552:	e160      	b.n	8002816 <HAL_GPIO_Init+0x2da>
  {
    /* Get current io position */
    iocurrent = (GPIO_Init->Pin) & (1U << position);
 8002554:	683b      	ldr	r3, [r7, #0]
 8002556:	681a      	ldr	r2, [r3, #0]
 8002558:	2101      	movs	r1, #1
 800255a:	697b      	ldr	r3, [r7, #20]
 800255c:	fa01 f303 	lsl.w	r3, r1, r3
 8002560:	4013      	ands	r3, r2
 8002562:	60fb      	str	r3, [r7, #12]

    if (iocurrent)
 8002564:	68fb      	ldr	r3, [r7, #12]
 8002566:	2b00      	cmp	r3, #0
 8002568:	f000 8152 	beq.w	8002810 <HAL_GPIO_Init+0x2d4>
    {
      /*--------------------- GPIO Mode Configuration ------------------------*/
      /* In case of Output or Alternate function mode selection */
      if (((GPIO_Init->Mode & GPIO_MODE) == MODE_OUTPUT) ||
 800256c:	683b      	ldr	r3, [r7, #0]
 800256e:	685b      	ldr	r3, [r3, #4]
 8002570:	f003 0303 	and.w	r3, r3, #3
 8002574:	2b01      	cmp	r3, #1
 8002576:	d005      	beq.n	8002584 <HAL_GPIO_Init+0x48>
          ((GPIO_Init->Mode & GPIO_MODE) == MODE_AF))
 8002578:	683b      	ldr	r3, [r7, #0]
 800257a:	685b      	ldr	r3, [r3, #4]
 800257c:	f003 0303 	and.w	r3, r3, #3
      if (((GPIO_Init->Mode & GPIO_MODE) == MODE_OUTPUT) ||
 8002580:	2b02      	cmp	r3, #2
 8002582:	d130      	bne.n	80025e6 <HAL_GPIO_Init+0xaa>
      {
        /* Check the Speed parameter */
        assert_param(IS_GPIO_SPEED(GPIO_Init->Speed));
        /* Configure the IO Speed */
        temp = GPIOx->OSPEEDR;
 8002584:	687b      	ldr	r3, [r7, #4]
 8002586:	689b      	ldr	r3, [r3, #8]
 8002588:	613b      	str	r3, [r7, #16]
        CLEAR_BIT(temp, GPIO_OSPEEDER_OSPEEDR0 << (position * 2));
 800258a:	697b      	ldr	r3, [r7, #20]
 800258c:	005b      	lsls	r3, r3, #1
 800258e:	2203      	movs	r2, #3
 8002590:	fa02 f303 	lsl.w	r3, r2, r3
 8002594:	43db      	mvns	r3, r3
 8002596:	693a      	ldr	r2, [r7, #16]
 8002598:	4013      	ands	r3, r2
 800259a:	613b      	str	r3, [r7, #16]
        SET_BIT(temp, GPIO_Init->Speed << (position * 2));
 800259c:	683b      	ldr	r3, [r7, #0]
 800259e:	68da      	ldr	r2, [r3, #12]
 80025a0:	697b      	ldr	r3, [r7, #20]
 80025a2:	005b      	lsls	r3, r3, #1
 80025a4:	fa02 f303 	lsl.w	r3, r2, r3
 80025a8:	693a      	ldr	r2, [r7, #16]
 80025aa:	4313      	orrs	r3, r2
 80025ac:	613b      	str	r3, [r7, #16]
        GPIOx->OSPEEDR = temp;
 80025ae:	687b      	ldr	r3, [r7, #4]
 80025b0:	693a      	ldr	r2, [r7, #16]
 80025b2:	609a      	str	r2, [r3, #8]

        /* Configure the IO Output Type */
        temp = GPIOx->OTYPER;
 80025b4:	687b      	ldr	r3, [r7, #4]
 80025b6:	685b      	ldr	r3, [r3, #4]
 80025b8:	613b      	str	r3, [r7, #16]
        CLEAR_BIT(temp, GPIO_OTYPER_OT_0 << position) ;
 80025ba:	2201      	movs	r2, #1
 80025bc:	697b      	ldr	r3, [r7, #20]
 80025be:	fa02 f303 	lsl.w	r3, r2, r3
 80025c2:	43db      	mvns	r3, r3
 80025c4:	693a      	ldr	r2, [r7, #16]
 80025c6:	4013      	ands	r3, r2
 80025c8:	613b      	str	r3, [r7, #16]
        SET_BIT(temp, ((GPIO_Init->Mode & OUTPUT_TYPE) >> OUTPUT_TYPE_Pos) << position);
 80025ca:	683b      	ldr	r3, [r7, #0]
 80025cc:	685b      	ldr	r3, [r3, #4]
 80025ce:	091b      	lsrs	r3, r3, #4
 80025d0:	f003 0201 	and.w	r2, r3, #1
 80025d4:	697b      	ldr	r3, [r7, #20]
 80025d6:	fa02 f303 	lsl.w	r3, r2, r3
 80025da:	693a      	ldr	r2, [r7, #16]
 80025dc:	4313      	orrs	r3, r2
 80025de:	613b      	str	r3, [r7, #16]
        GPIOx->OTYPER = temp;
 80025e0:	687b      	ldr	r3, [r7, #4]
 80025e2:	693a      	ldr	r2, [r7, #16]
 80025e4:	605a      	str	r2, [r3, #4]
      }

      if ((GPIO_Init->Mode & GPIO_MODE) != MODE_ANALOG)
 80025e6:	683b      	ldr	r3, [r7, #0]
 80025e8:	685b      	ldr	r3, [r3, #4]
 80025ea:	f003 0303 	and.w	r3, r3, #3
 80025ee:	2b03      	cmp	r3, #3
 80025f0:	d017      	beq.n	8002622 <HAL_GPIO_Init+0xe6>
      {
        /* Check the Pull parameter */
        assert_param(IS_GPIO_PULL(GPIO_Init->Pull));

        /* Activate the Pull-up or Pull down resistor for the current IO */
        temp = GPIOx->PUPDR;
 80025f2:	687b      	ldr	r3, [r7, #4]
 80025f4:	68db      	ldr	r3, [r3, #12]
 80025f6:	613b      	str	r3, [r7, #16]
        CLEAR_BIT(temp, GPIO_PUPDR_PUPDR0 << (position * 2));
 80025f8:	697b      	ldr	r3, [r7, #20]
 80025fa:	005b      	lsls	r3, r3, #1
 80025fc:	2203      	movs	r2, #3
 80025fe:	fa02 f303 	lsl.w	r3, r2, r3
 8002602:	43db      	mvns	r3, r3
 8002604:	693a      	ldr	r2, [r7, #16]
 8002606:	4013      	ands	r3, r2
 8002608:	613b      	str	r3, [r7, #16]
        SET_BIT(temp, (GPIO_Init->Pull) << (position * 2));
 800260a:	683b      	ldr	r3, [r7, #0]
 800260c:	689a      	ldr	r2, [r3, #8]
 800260e:	697b      	ldr	r3, [r7, #20]
 8002610:	005b      	lsls	r3, r3, #1
 8002612:	fa02 f303 	lsl.w	r3, r2, r3
 8002616:	693a      	ldr	r2, [r7, #16]
 8002618:	4313      	orrs	r3, r2
 800261a:	613b      	str	r3, [r7, #16]
        GPIOx->PUPDR = temp;
 800261c:	687b      	ldr	r3, [r7, #4]
 800261e:	693a      	ldr	r2, [r7, #16]
 8002620:	60da      	str	r2, [r3, #12]
      }

      /* In case of Alternate function mode selection */
      if ((GPIO_Init->Mode & GPIO_MODE) == MODE_AF)
 8002622:	683b      	ldr	r3, [r7, #0]
 8002624:	685b      	ldr	r3, [r3, #4]
 8002626:	f003 0303 	and.w	r3, r3, #3
 800262a:	2b02      	cmp	r3, #2
 800262c:	d123      	bne.n	8002676 <HAL_GPIO_Init+0x13a>
        assert_param(IS_GPIO_AF_INSTANCE(GPIOx));
        assert_param(IS_GPIO_AF(GPIO_Init->Alternate));

        /* Configure Alternate function mapped with the current IO */
        /* Identify AFRL or AFRH register based on IO position*/
        temp = GPIOx->AFR[position >> 3];
 800262e:	697b      	ldr	r3, [r7, #20]
 8002630:	08da      	lsrs	r2, r3, #3
 8002632:	687b      	ldr	r3, [r7, #4]
 8002634:	3208      	adds	r2, #8
 8002636:	f853 3022 	ldr.w	r3, [r3, r2, lsl #2]
 800263a:	613b      	str	r3, [r7, #16]
        CLEAR_BIT(temp, 0xFU << ((uint32_t)(position & 0x07U) * 4));
 800263c:	697b      	ldr	r3, [r7, #20]
 800263e:	f003 0307 	and.w	r3, r3, #7
 8002642:	009b      	lsls	r3, r3, #2
 8002644:	220f      	movs	r2, #15
 8002646:	fa02 f303 	lsl.w	r3, r2, r3
 800264a:	43db      	mvns	r3, r3
 800264c:	693a      	ldr	r2, [r7, #16]
 800264e:	4013      	ands	r3, r2
 8002650:	613b      	str	r3, [r7, #16]
        SET_BIT(temp, (uint32_t)(GPIO_Init->Alternate) << (((uint32_t)position & 0x07U) * 4));
 8002652:	683b      	ldr	r3, [r7, #0]
 8002654:	691a      	ldr	r2, [r3, #16]
 8002656:	697b      	ldr	r3, [r7, #20]
 8002658:	f003 0307 	and.w	r3, r3, #7
 800265c:	009b      	lsls	r3, r3, #2
 800265e:	fa02 f303 	lsl.w	r3, r2, r3
 8002662:	693a      	ldr	r2, [r7, #16]
 8002664:	4313      	orrs	r3, r2
 8002666:	613b      	str	r3, [r7, #16]
        GPIOx->AFR[position >> 3] = temp;
 8002668:	697b      	ldr	r3, [r7, #20]
 800266a:	08da      	lsrs	r2, r3, #3
 800266c:	687b      	ldr	r3, [r7, #4]
 800266e:	3208      	adds	r2, #8
 8002670:	6939      	ldr	r1, [r7, #16]
 8002672:	f843 1022 	str.w	r1, [r3, r2, lsl #2]
      }

      /* Configure IO Direction mode (Input, Output, Alternate or Analog) */
      temp = GPIOx->MODER;
 8002676:	687b      	ldr	r3, [r7, #4]
 8002678:	681b      	ldr	r3, [r3, #0]
 800267a:	613b      	str	r3, [r7, #16]
      CLEAR_BIT(temp, GPIO_MODER_MODER0 << (position * 2));
 800267c:	697b      	ldr	r3, [r7, #20]
 800267e:	005b      	lsls	r3, r3, #1
 8002680:	2203      	movs	r2, #3
 8002682:	fa02 f303 	lsl.w	r3, r2, r3
 8002686:	43db      	mvns	r3, r3
 8002688:	693a      	ldr	r2, [r7, #16]
 800268a:	4013      	ands	r3, r2
 800268c:	613b      	str	r3, [r7, #16]
      SET_BIT(temp, (GPIO_Init->Mode & GPIO_MODE) << (position * 2));
 800268e:	683b      	ldr	r3, [r7, #0]
 8002690:	685b      	ldr	r3, [r3, #4]
 8002692:	f003 0203 	and.w	r2, r3, #3
 8002696:	697b      	ldr	r3, [r7, #20]
 8002698:	005b      	lsls	r3, r3, #1
 800269a:	fa02 f303 	lsl.w	r3, r2, r3
 800269e:	693a      	ldr	r2, [r7, #16]
 80026a0:	4313      	orrs	r3, r2
 80026a2:	613b      	str	r3, [r7, #16]
      GPIOx->MODER = temp;
 80026a4:	687b      	ldr	r3, [r7, #4]
 80026a6:	693a      	ldr	r2, [r7, #16]
 80026a8:	601a      	str	r2, [r3, #0]

      /*--------------------- EXTI Mode Configuration ------------------------*/
      /* Configure the External Interrupt or event for the current IO */
      if ((GPIO_Init->Mode & EXTI_MODE) != 0x00U)
 80026aa:	683b      	ldr	r3, [r7, #0]
 80026ac:	685b      	ldr	r3, [r3, #4]
 80026ae:	f403 3340 	and.w	r3, r3, #196608	; 0x30000
 80026b2:	2b00      	cmp	r3, #0
 80026b4:	f000 80ac 	beq.w	8002810 <HAL_GPIO_Init+0x2d4>
      {
        /* Enable SYSCFG Clock */
        __HAL_RCC_SYSCFG_CLK_ENABLE();
 80026b8:	4b5e      	ldr	r3, [pc, #376]	; (8002834 <HAL_GPIO_Init+0x2f8>)
 80026ba:	6a1b      	ldr	r3, [r3, #32]
 80026bc:	4a5d      	ldr	r2, [pc, #372]	; (8002834 <HAL_GPIO_Init+0x2f8>)
 80026be:	f043 0301 	orr.w	r3, r3, #1
 80026c2:	6213      	str	r3, [r2, #32]
 80026c4:	4b5b      	ldr	r3, [pc, #364]	; (8002834 <HAL_GPIO_Init+0x2f8>)
 80026c6:	6a1b      	ldr	r3, [r3, #32]
 80026c8:	f003 0301 	and.w	r3, r3, #1
 80026cc:	60bb      	str	r3, [r7, #8]
 80026ce:	68bb      	ldr	r3, [r7, #8]

        temp = SYSCFG->EXTICR[position >> 2];
 80026d0:	4a59      	ldr	r2, [pc, #356]	; (8002838 <HAL_GPIO_Init+0x2fc>)
 80026d2:	697b      	ldr	r3, [r7, #20]
 80026d4:	089b      	lsrs	r3, r3, #2
 80026d6:	3302      	adds	r3, #2
 80026d8:	f852 3023 	ldr.w	r3, [r2, r3, lsl #2]
 80026dc:	613b      	str	r3, [r7, #16]
        CLEAR_BIT(temp, (0x0FU) << (4 * (position & 0x03)));
 80026de:	697b      	ldr	r3, [r7, #20]
 80026e0:	f003 0303 	and.w	r3, r3, #3
 80026e4:	009b      	lsls	r3, r3, #2
 80026e6:	220f      	movs	r2, #15
 80026e8:	fa02 f303 	lsl.w	r3, r2, r3
 80026ec:	43db      	mvns	r3, r3
 80026ee:	693a      	ldr	r2, [r7, #16]
 80026f0:	4013      	ands	r3, r2
 80026f2:	613b      	str	r3, [r7, #16]
        SET_BIT(temp, (GPIO_GET_INDEX(GPIOx)) << (4 * (position & 0x03)));
 80026f4:	687b      	ldr	r3, [r7, #4]
 80026f6:	4a51      	ldr	r2, [pc, #324]	; (800283c <HAL_GPIO_Init+0x300>)
 80026f8:	4293      	cmp	r3, r2
 80026fa:	d025      	beq.n	8002748 <HAL_GPIO_Init+0x20c>
 80026fc:	687b      	ldr	r3, [r7, #4]
 80026fe:	4a50      	ldr	r2, [pc, #320]	; (8002840 <HAL_GPIO_Init+0x304>)
 8002700:	4293      	cmp	r3, r2
 8002702:	d01f      	beq.n	8002744 <HAL_GPIO_Init+0x208>
 8002704:	687b      	ldr	r3, [r7, #4]
 8002706:	4a4f      	ldr	r2, [pc, #316]	; (8002844 <HAL_GPIO_Init+0x308>)
 8002708:	4293      	cmp	r3, r2
 800270a:	d019      	beq.n	8002740 <HAL_GPIO_Init+0x204>
 800270c:	687b      	ldr	r3, [r7, #4]
 800270e:	4a4e      	ldr	r2, [pc, #312]	; (8002848 <HAL_GPIO_Init+0x30c>)
 8002710:	4293      	cmp	r3, r2
 8002712:	d013      	beq.n	800273c <HAL_GPIO_Init+0x200>
 8002714:	687b      	ldr	r3, [r7, #4]
 8002716:	4a4d      	ldr	r2, [pc, #308]	; (800284c <HAL_GPIO_Init+0x310>)
 8002718:	4293      	cmp	r3, r2
 800271a:	d00d      	beq.n	8002738 <HAL_GPIO_Init+0x1fc>
 800271c:	687b      	ldr	r3, [r7, #4]
 800271e:	4a4c      	ldr	r2, [pc, #304]	; (8002850 <HAL_GPIO_Init+0x314>)
 8002720:	4293      	cmp	r3, r2
 8002722:	d007      	beq.n	8002734 <HAL_GPIO_Init+0x1f8>
 8002724:	687b      	ldr	r3, [r7, #4]
 8002726:	4a4b      	ldr	r2, [pc, #300]	; (8002854 <HAL_GPIO_Init+0x318>)
 8002728:	4293      	cmp	r3, r2
 800272a:	d101      	bne.n	8002730 <HAL_GPIO_Init+0x1f4>
 800272c:	2306      	movs	r3, #6
 800272e:	e00c      	b.n	800274a <HAL_GPIO_Init+0x20e>
 8002730:	2307      	movs	r3, #7
 8002732:	e00a      	b.n	800274a <HAL_GPIO_Init+0x20e>
 8002734:	2305      	movs	r3, #5
 8002736:	e008      	b.n	800274a <HAL_GPIO_Init+0x20e>
 8002738:	2304      	movs	r3, #4
 800273a:	e006      	b.n	800274a <HAL_GPIO_Init+0x20e>
 800273c:	2303      	movs	r3, #3
 800273e:	e004      	b.n	800274a <HAL_GPIO_Init+0x20e>
 8002740:	2302      	movs	r3, #2
 8002742:	e002      	b.n	800274a <HAL_GPIO_Init+0x20e>
 8002744:	2301      	movs	r3, #1
 8002746:	e000      	b.n	800274a <HAL_GPIO_Init+0x20e>
 8002748:	2300      	movs	r3, #0
 800274a:	697a      	ldr	r2, [r7, #20]
 800274c:	f002 0203 	and.w	r2, r2, #3
 8002750:	0092      	lsls	r2, r2, #2
 8002752:	4093      	lsls	r3, r2
 8002754:	693a      	ldr	r2, [r7, #16]
 8002756:	4313      	orrs	r3, r2
 8002758:	613b      	str	r3, [r7, #16]
        SYSCFG->EXTICR[position >> 2] = temp;
 800275a:	4937      	ldr	r1, [pc, #220]	; (8002838 <HAL_GPIO_Init+0x2fc>)
 800275c:	697b      	ldr	r3, [r7, #20]
 800275e:	089b      	lsrs	r3, r3, #2
 8002760:	3302      	adds	r3, #2
 8002762:	693a      	ldr	r2, [r7, #16]
 8002764:	f841 2023 	str.w	r2, [r1, r3, lsl #2]

        /* Clear Rising Falling edge configuration */
        temp = EXTI->RTSR;
 8002768:	4b3b      	ldr	r3, [pc, #236]	; (8002858 <HAL_GPIO_Init+0x31c>)
 800276a:	689b      	ldr	r3, [r3, #8]
 800276c:	613b      	str	r3, [r7, #16]
        CLEAR_BIT(temp, (uint32_t)iocurrent);
 800276e:	68fb      	ldr	r3, [r7, #12]
 8002770:	43db      	mvns	r3, r3
 8002772:	693a      	ldr	r2, [r7, #16]
 8002774:	4013      	ands	r3, r2
 8002776:	613b      	str	r3, [r7, #16]
        if ((GPIO_Init->Mode & TRIGGER_RISING) != 0x00U)
 8002778:	683b      	ldr	r3, [r7, #0]
 800277a:	685b      	ldr	r3, [r3, #4]
 800277c:	f403 1380 	and.w	r3, r3, #1048576	; 0x100000
 8002780:	2b00      	cmp	r3, #0
 8002782:	d003      	beq.n	800278c <HAL_GPIO_Init+0x250>
        {
          SET_BIT(temp, iocurrent);
 8002784:	693a      	ldr	r2, [r7, #16]
 8002786:	68fb      	ldr	r3, [r7, #12]
 8002788:	4313      	orrs	r3, r2
 800278a:	613b      	str	r3, [r7, #16]
        }
        EXTI->RTSR = temp;
 800278c:	4a32      	ldr	r2, [pc, #200]	; (8002858 <HAL_GPIO_Init+0x31c>)
 800278e:	693b      	ldr	r3, [r7, #16]
 8002790:	6093      	str	r3, [r2, #8]

        temp = EXTI->FTSR;
 8002792:	4b31      	ldr	r3, [pc, #196]	; (8002858 <HAL_GPIO_Init+0x31c>)
 8002794:	68db      	ldr	r3, [r3, #12]
 8002796:	613b      	str	r3, [r7, #16]
        CLEAR_BIT(temp, (uint32_t)iocurrent);
 8002798:	68fb      	ldr	r3, [r7, #12]
 800279a:	43db      	mvns	r3, r3
 800279c:	693a      	ldr	r2, [r7, #16]
 800279e:	4013      	ands	r3, r2
 80027a0:	613b      	str	r3, [r7, #16]
        if ((GPIO_Init->Mode & TRIGGER_FALLING) != 0x00U)
 80027a2:	683b      	ldr	r3, [r7, #0]
 80027a4:	685b      	ldr	r3, [r3, #4]
 80027a6:	f403 1300 	and.w	r3, r3, #2097152	; 0x200000
 80027aa:	2b00      	cmp	r3, #0
 80027ac:	d003      	beq.n	80027b6 <HAL_GPIO_Init+0x27a>
        {
          SET_BIT(temp, iocurrent);
 80027ae:	693a      	ldr	r2, [r7, #16]
 80027b0:	68fb      	ldr	r3, [r7, #12]
 80027b2:	4313      	orrs	r3, r2
 80027b4:	613b      	str	r3, [r7, #16]
        }
        EXTI->FTSR = temp;
 80027b6:	4a28      	ldr	r2, [pc, #160]	; (8002858 <HAL_GPIO_Init+0x31c>)
 80027b8:	693b      	ldr	r3, [r7, #16]
 80027ba:	60d3      	str	r3, [r2, #12]

        temp = EXTI->EMR;
 80027bc:	4b26      	ldr	r3, [pc, #152]	; (8002858 <HAL_GPIO_Init+0x31c>)
 80027be:	685b      	ldr	r3, [r3, #4]
 80027c0:	613b      	str	r3, [r7, #16]
        CLEAR_BIT(temp, (uint32_t)iocurrent);
 80027c2:	68fb      	ldr	r3, [r7, #12]
 80027c4:	43db      	mvns	r3, r3
 80027c6:	693a      	ldr	r2, [r7, #16]
 80027c8:	4013      	ands	r3, r2
 80027ca:	613b      	str	r3, [r7, #16]
        if ((GPIO_Init->Mode & EXTI_EVT) != 0x00U)
 80027cc:	683b      	ldr	r3, [r7, #0]
 80027ce:	685b      	ldr	r3, [r3, #4]
 80027d0:	f403 3300 	and.w	r3, r3, #131072	; 0x20000
 80027d4:	2b00      	cmp	r3, #0
 80027d6:	d003      	beq.n	80027e0 <HAL_GPIO_Init+0x2a4>
        {
          SET_BIT(temp, iocurrent);
 80027d8:	693a      	ldr	r2, [r7, #16]
 80027da:	68fb      	ldr	r3, [r7, #12]
 80027dc:	4313      	orrs	r3, r2
 80027de:	613b      	str	r3, [r7, #16]
        }
        EXTI->EMR = temp;
 80027e0:	4a1d      	ldr	r2, [pc, #116]	; (8002858 <HAL_GPIO_Init+0x31c>)
 80027e2:	693b      	ldr	r3, [r7, #16]
 80027e4:	6053      	str	r3, [r2, #4]

        /* Clear EXTI line configuration */
        temp = EXTI->IMR;
 80027e6:	4b1c      	ldr	r3, [pc, #112]	; (8002858 <HAL_GPIO_Init+0x31c>)
 80027e8:	681b      	ldr	r3, [r3, #0]
 80027ea:	613b      	str	r3, [r7, #16]
        CLEAR_BIT(temp, (uint32_t)iocurrent);
 80027ec:	68fb      	ldr	r3, [r7, #12]
 80027ee:	43db      	mvns	r3, r3
 80027f0:	693a      	ldr	r2, [r7, #16]
 80027f2:	4013      	ands	r3, r2
 80027f4:	613b      	str	r3, [r7, #16]
        if ((GPIO_Init->Mode & EXTI_IT) != 0x00U)
 80027f6:	683b      	ldr	r3, [r7, #0]
 80027f8:	685b      	ldr	r3, [r3, #4]
 80027fa:	f403 3380 	and.w	r3, r3, #65536	; 0x10000
 80027fe:	2b00      	cmp	r3, #0
 8002800:	d003      	beq.n	800280a <HAL_GPIO_Init+0x2ce>
        {
          SET_BIT(temp, iocurrent);
 8002802:	693a      	ldr	r2, [r7, #16]
 8002804:	68fb      	ldr	r3, [r7, #12]
 8002806:	4313      	orrs	r3, r2
 8002808:	613b      	str	r3, [r7, #16]
        }
        EXTI->IMR = temp;
 800280a:	4a13      	ldr	r2, [pc, #76]	; (8002858 <HAL_GPIO_Init+0x31c>)
 800280c:	693b      	ldr	r3, [r7, #16]
 800280e:	6013      	str	r3, [r2, #0]
      }
    }

    position++;
 8002810:	697b      	ldr	r3, [r7, #20]
 8002812:	3301      	adds	r3, #1
 8002814:	617b      	str	r3, [r7, #20]
  while (((GPIO_Init->Pin) >> position) != 0)
 8002816:	683b      	ldr	r3, [r7, #0]
 8002818:	681a      	ldr	r2, [r3, #0]
 800281a:	697b      	ldr	r3, [r7, #20]
 800281c:	fa22 f303 	lsr.w	r3, r2, r3
 8002820:	2b00      	cmp	r3, #0
 8002822:	f47f ae97 	bne.w	8002554 <HAL_GPIO_Init+0x18>
  }
}
 8002826:	bf00      	nop
 8002828:	bf00      	nop
 800282a:	371c      	adds	r7, #28
 800282c:	46bd      	mov	sp, r7
 800282e:	bc80      	pop	{r7}
 8002830:	4770      	bx	lr
 8002832:	bf00      	nop
 8002834:	40023800 	.word	0x40023800
 8002838:	40010000 	.word	0x40010000
 800283c:	40020000 	.word	0x40020000
 8002840:	40020400 	.word	0x40020400
 8002844:	40020800 	.word	0x40020800
 8002848:	40020c00 	.word	0x40020c00
 800284c:	40021000 	.word	0x40021000
 8002850:	40021400 	.word	0x40021400
 8002854:	40021800 	.word	0x40021800
 8002858:	40010400 	.word	0x40010400

0800285c <HAL_GPIO_WritePin>:
  *            @arg GPIO_PIN_RESET: to clear the port pin
  *            @arg GPIO_PIN_SET: to set the port pin
  * @retval None
  */
void HAL_GPIO_WritePin(GPIO_TypeDef *GPIOx, uint16_t GPIO_Pin, GPIO_PinState PinState)
{
 800285c:	b480      	push	{r7}
 800285e:	b083      	sub	sp, #12
 8002860:	af00      	add	r7, sp, #0
 8002862:	6078      	str	r0, [r7, #4]
 8002864:	460b      	mov	r3, r1
 8002866:	807b      	strh	r3, [r7, #2]
 8002868:	4613      	mov	r3, r2
 800286a:	707b      	strb	r3, [r7, #1]
  /* Check the parameters */
  assert_param(IS_GPIO_PIN(GPIO_Pin));
  assert_param(IS_GPIO_PIN_ACTION(PinState));

  if (PinState != GPIO_PIN_RESET)
 800286c:	787b      	ldrb	r3, [r7, #1]
 800286e:	2b00      	cmp	r3, #0
 8002870:	d003      	beq.n	800287a <HAL_GPIO_WritePin+0x1e>
  {
    GPIOx->BSRR = (uint32_t)GPIO_Pin;
 8002872:	887a      	ldrh	r2, [r7, #2]
 8002874:	687b      	ldr	r3, [r7, #4]
 8002876:	619a      	str	r2, [r3, #24]
  }
  else
  {
    GPIOx->BSRR = (uint32_t)GPIO_Pin << 16 ;
  }
}
 8002878:	e003      	b.n	8002882 <HAL_GPIO_WritePin+0x26>
    GPIOx->BSRR = (uint32_t)GPIO_Pin << 16 ;
 800287a:	887b      	ldrh	r3, [r7, #2]
 800287c:	041a      	lsls	r2, r3, #16
 800287e:	687b      	ldr	r3, [r7, #4]
 8002880:	619a      	str	r2, [r3, #24]
}
 8002882:	bf00      	nop
 8002884:	370c      	adds	r7, #12
 8002886:	46bd      	mov	sp, r7
 8002888:	bc80      	pop	{r7}
 800288a:	4770      	bx	lr

0800288c <HAL_I2C_Init>:
  * @param  hi2c Pointer to a I2C_HandleTypeDef structure that contains
  *                the configuration information for the specified I2C.
  * @retval HAL status
  */
HAL_StatusTypeDef HAL_I2C_Init(I2C_HandleTypeDef *hi2c)
{
 800288c:	b580      	push	{r7, lr}
 800288e:	b084      	sub	sp, #16
 8002890:	af00      	add	r7, sp, #0
 8002892:	6078      	str	r0, [r7, #4]
  uint32_t freqrange;
  uint32_t pclk1;

  /* Check the I2C handle allocation */
  if (hi2c == NULL)
 8002894:	687b      	ldr	r3, [r7, #4]
 8002896:	2b00      	cmp	r3, #0
 8002898:	d101      	bne.n	800289e <HAL_I2C_Init+0x12>
  {
    return HAL_ERROR;
 800289a:	2301      	movs	r3, #1
 800289c:	e12b      	b.n	8002af6 <HAL_I2C_Init+0x26a>
  assert_param(IS_I2C_DUAL_ADDRESS(hi2c->Init.DualAddressMode));
  assert_param(IS_I2C_OWN_ADDRESS2(hi2c->Init.OwnAddress2));
  assert_param(IS_I2C_GENERAL_CALL(hi2c->Init.GeneralCallMode));
  assert_param(IS_I2C_NO_STRETCH(hi2c->Init.NoStretchMode));

  if (hi2c->State == HAL_I2C_STATE_RESET)
 800289e:	687b      	ldr	r3, [r7, #4]
 80028a0:	f893 303d 	ldrb.w	r3, [r3, #61]	; 0x3d
 80028a4:	b2db      	uxtb	r3, r3
 80028a6:	2b00      	cmp	r3, #0
 80028a8:	d106      	bne.n	80028b8 <HAL_I2C_Init+0x2c>
  {
    /* Allocate lock resource and initialize it */
    hi2c->Lock = HAL_UNLOCKED;
 80028aa:	687b      	ldr	r3, [r7, #4]
 80028ac:	2200      	movs	r2, #0
 80028ae:	f883 203c 	strb.w	r2, [r3, #60]	; 0x3c

    /* Init the low level hardware : GPIO, CLOCK, NVIC */
    hi2c->MspInitCallback(hi2c);
#else
    /* Init the low level hardware : GPIO, CLOCK, NVIC */
    HAL_I2C_MspInit(hi2c);
 80028b2:	6878      	ldr	r0, [r7, #4]
 80028b4:	f7ff f8b0 	bl	8001a18 <HAL_I2C_MspInit>
#endif /* USE_HAL_I2C_REGISTER_CALLBACKS */
  }

  hi2c->State = HAL_I2C_STATE_BUSY;
 80028b8:	687b      	ldr	r3, [r7, #4]
 80028ba:	2224      	movs	r2, #36	; 0x24
 80028bc:	f883 203d 	strb.w	r2, [r3, #61]	; 0x3d

  /* Disable the selected I2C peripheral */
  __HAL_I2C_DISABLE(hi2c);
 80028c0:	687b      	ldr	r3, [r7, #4]
 80028c2:	681b      	ldr	r3, [r3, #0]
 80028c4:	681a      	ldr	r2, [r3, #0]
 80028c6:	687b      	ldr	r3, [r7, #4]
 80028c8:	681b      	ldr	r3, [r3, #0]
 80028ca:	f022 0201 	bic.w	r2, r2, #1
 80028ce:	601a      	str	r2, [r3, #0]

  /*Reset I2C*/
  hi2c->Instance->CR1 |= I2C_CR1_SWRST;
 80028d0:	687b      	ldr	r3, [r7, #4]
 80028d2:	681b      	ldr	r3, [r3, #0]
 80028d4:	681a      	ldr	r2, [r3, #0]
 80028d6:	687b      	ldr	r3, [r7, #4]
 80028d8:	681b      	ldr	r3, [r3, #0]
 80028da:	f442 4200 	orr.w	r2, r2, #32768	; 0x8000
 80028de:	601a      	str	r2, [r3, #0]
  hi2c->Instance->CR1 &= ~I2C_CR1_SWRST;
 80028e0:	687b      	ldr	r3, [r7, #4]
 80028e2:	681b      	ldr	r3, [r3, #0]
 80028e4:	681a      	ldr	r2, [r3, #0]
 80028e6:	687b      	ldr	r3, [r7, #4]
 80028e8:	681b      	ldr	r3, [r3, #0]
 80028ea:	f422 4200 	bic.w	r2, r2, #32768	; 0x8000
 80028ee:	601a      	str	r2, [r3, #0]

  /* Get PCLK1 frequency */
  pclk1 = HAL_RCC_GetPCLK1Freq();
 80028f0:	f001 fad2 	bl	8003e98 <HAL_RCC_GetPCLK1Freq>
 80028f4:	60f8      	str	r0, [r7, #12]

  /* Check the minimum allowed PCLK1 frequency */
  if (I2C_MIN_PCLK_FREQ(pclk1, hi2c->Init.ClockSpeed) == 1U)
 80028f6:	687b      	ldr	r3, [r7, #4]
 80028f8:	685b      	ldr	r3, [r3, #4]
 80028fa:	4a81      	ldr	r2, [pc, #516]	; (8002b00 <HAL_I2C_Init+0x274>)
 80028fc:	4293      	cmp	r3, r2
 80028fe:	d807      	bhi.n	8002910 <HAL_I2C_Init+0x84>
 8002900:	68fb      	ldr	r3, [r7, #12]
 8002902:	4a80      	ldr	r2, [pc, #512]	; (8002b04 <HAL_I2C_Init+0x278>)
 8002904:	4293      	cmp	r3, r2
 8002906:	bf94      	ite	ls
 8002908:	2301      	movls	r3, #1
 800290a:	2300      	movhi	r3, #0
 800290c:	b2db      	uxtb	r3, r3
 800290e:	e006      	b.n	800291e <HAL_I2C_Init+0x92>
 8002910:	68fb      	ldr	r3, [r7, #12]
 8002912:	4a7d      	ldr	r2, [pc, #500]	; (8002b08 <HAL_I2C_Init+0x27c>)
 8002914:	4293      	cmp	r3, r2
 8002916:	bf94      	ite	ls
 8002918:	2301      	movls	r3, #1
 800291a:	2300      	movhi	r3, #0
 800291c:	b2db      	uxtb	r3, r3
 800291e:	2b00      	cmp	r3, #0
 8002920:	d001      	beq.n	8002926 <HAL_I2C_Init+0x9a>
  {
    return HAL_ERROR;
 8002922:	2301      	movs	r3, #1
 8002924:	e0e7      	b.n	8002af6 <HAL_I2C_Init+0x26a>
  }

  /* Calculate frequency range */
  freqrange = I2C_FREQRANGE(pclk1);
 8002926:	68fb      	ldr	r3, [r7, #12]
 8002928:	4a78      	ldr	r2, [pc, #480]	; (8002b0c <HAL_I2C_Init+0x280>)
 800292a:	fba2 2303 	umull	r2, r3, r2, r3
 800292e:	0c9b      	lsrs	r3, r3, #18
 8002930:	60bb      	str	r3, [r7, #8]

  /*---------------------------- I2Cx CR2 Configuration ----------------------*/
  /* Configure I2Cx: Frequency range */
  MODIFY_REG(hi2c->Instance->CR2, I2C_CR2_FREQ, freqrange);
 8002932:	687b      	ldr	r3, [r7, #4]
 8002934:	681b      	ldr	r3, [r3, #0]
 8002936:	685b      	ldr	r3, [r3, #4]
 8002938:	f023 013f 	bic.w	r1, r3, #63	; 0x3f
 800293c:	687b      	ldr	r3, [r7, #4]
 800293e:	681b      	ldr	r3, [r3, #0]
 8002940:	68ba      	ldr	r2, [r7, #8]
 8002942:	430a      	orrs	r2, r1
 8002944:	605a      	str	r2, [r3, #4]

  /*---------------------------- I2Cx TRISE Configuration --------------------*/
  /* Configure I2Cx: Rise Time */
  MODIFY_REG(hi2c->Instance->TRISE, I2C_TRISE_TRISE, I2C_RISE_TIME(freqrange, hi2c->Init.ClockSpeed));
 8002946:	687b      	ldr	r3, [r7, #4]
 8002948:	681b      	ldr	r3, [r3, #0]
 800294a:	6a1b      	ldr	r3, [r3, #32]
 800294c:	f023 013f 	bic.w	r1, r3, #63	; 0x3f
 8002950:	687b      	ldr	r3, [r7, #4]
 8002952:	685b      	ldr	r3, [r3, #4]
 8002954:	4a6a      	ldr	r2, [pc, #424]	; (8002b00 <HAL_I2C_Init+0x274>)
 8002956:	4293      	cmp	r3, r2
 8002958:	d802      	bhi.n	8002960 <HAL_I2C_Init+0xd4>
 800295a:	68bb      	ldr	r3, [r7, #8]
 800295c:	3301      	adds	r3, #1
 800295e:	e009      	b.n	8002974 <HAL_I2C_Init+0xe8>
 8002960:	68bb      	ldr	r3, [r7, #8]
 8002962:	f44f 7296 	mov.w	r2, #300	; 0x12c
 8002966:	fb02 f303 	mul.w	r3, r2, r3
 800296a:	4a69      	ldr	r2, [pc, #420]	; (8002b10 <HAL_I2C_Init+0x284>)
 800296c:	fba2 2303 	umull	r2, r3, r2, r3
 8002970:	099b      	lsrs	r3, r3, #6
 8002972:	3301      	adds	r3, #1
 8002974:	687a      	ldr	r2, [r7, #4]
 8002976:	6812      	ldr	r2, [r2, #0]
 8002978:	430b      	orrs	r3, r1
 800297a:	6213      	str	r3, [r2, #32]

  /*---------------------------- I2Cx CCR Configuration ----------------------*/
  /* Configure I2Cx: Speed */
  MODIFY_REG(hi2c->Instance->CCR, (I2C_CCR_FS | I2C_CCR_DUTY | I2C_CCR_CCR), I2C_SPEED(pclk1, hi2c->Init.ClockSpeed, hi2c->Init.DutyCycle));
 800297c:	687b      	ldr	r3, [r7, #4]
 800297e:	681b      	ldr	r3, [r3, #0]
 8002980:	69db      	ldr	r3, [r3, #28]
 8002982:	f423 424f 	bic.w	r2, r3, #52992	; 0xcf00
 8002986:	f022 02ff 	bic.w	r2, r2, #255	; 0xff
 800298a:	687b      	ldr	r3, [r7, #4]
 800298c:	685b      	ldr	r3, [r3, #4]
 800298e:	495c      	ldr	r1, [pc, #368]	; (8002b00 <HAL_I2C_Init+0x274>)
 8002990:	428b      	cmp	r3, r1
 8002992:	d819      	bhi.n	80029c8 <HAL_I2C_Init+0x13c>
 8002994:	68fb      	ldr	r3, [r7, #12]
 8002996:	1e59      	subs	r1, r3, #1
 8002998:	687b      	ldr	r3, [r7, #4]
 800299a:	685b      	ldr	r3, [r3, #4]
 800299c:	005b      	lsls	r3, r3, #1
 800299e:	fbb1 f3f3 	udiv	r3, r1, r3
 80029a2:	1c59      	adds	r1, r3, #1
 80029a4:	f640 73fc 	movw	r3, #4092	; 0xffc
 80029a8:	400b      	ands	r3, r1
 80029aa:	2b00      	cmp	r3, #0
 80029ac:	d00a      	beq.n	80029c4 <HAL_I2C_Init+0x138>
 80029ae:	68fb      	ldr	r3, [r7, #12]
 80029b0:	1e59      	subs	r1, r3, #1
 80029b2:	687b      	ldr	r3, [r7, #4]
 80029b4:	685b      	ldr	r3, [r3, #4]
 80029b6:	005b      	lsls	r3, r3, #1
 80029b8:	fbb1 f3f3 	udiv	r3, r1, r3
 80029bc:	3301      	adds	r3, #1
 80029be:	f3c3 030b 	ubfx	r3, r3, #0, #12
 80029c2:	e051      	b.n	8002a68 <HAL_I2C_Init+0x1dc>
 80029c4:	2304      	movs	r3, #4
 80029c6:	e04f      	b.n	8002a68 <HAL_I2C_Init+0x1dc>
 80029c8:	687b      	ldr	r3, [r7, #4]
 80029ca:	689b      	ldr	r3, [r3, #8]
 80029cc:	2b00      	cmp	r3, #0
 80029ce:	d111      	bne.n	80029f4 <HAL_I2C_Init+0x168>
 80029d0:	68fb      	ldr	r3, [r7, #12]
 80029d2:	1e58      	subs	r0, r3, #1
 80029d4:	687b      	ldr	r3, [r7, #4]
 80029d6:	6859      	ldr	r1, [r3, #4]
 80029d8:	460b      	mov	r3, r1
 80029da:	005b      	lsls	r3, r3, #1
 80029dc:	440b      	add	r3, r1
 80029de:	fbb0 f3f3 	udiv	r3, r0, r3
 80029e2:	3301      	adds	r3, #1
 80029e4:	f3c3 030b 	ubfx	r3, r3, #0, #12
 80029e8:	2b00      	cmp	r3, #0
 80029ea:	bf0c      	ite	eq
 80029ec:	2301      	moveq	r3, #1
 80029ee:	2300      	movne	r3, #0
 80029f0:	b2db      	uxtb	r3, r3
 80029f2:	e012      	b.n	8002a1a <HAL_I2C_Init+0x18e>
 80029f4:	68fb      	ldr	r3, [r7, #12]
 80029f6:	1e58      	subs	r0, r3, #1
 80029f8:	687b      	ldr	r3, [r7, #4]
 80029fa:	6859      	ldr	r1, [r3, #4]
 80029fc:	460b      	mov	r3, r1
 80029fe:	009b      	lsls	r3, r3, #2
 8002a00:	440b      	add	r3, r1
 8002a02:	0099      	lsls	r1, r3, #2
 8002a04:	440b      	add	r3, r1
 8002a06:	fbb0 f3f3 	udiv	r3, r0, r3
 8002a0a:	3301      	adds	r3, #1
 8002a0c:	f3c3 030b 	ubfx	r3, r3, #0, #12
 8002a10:	2b00      	cmp	r3, #0
 8002a12:	bf0c      	ite	eq
 8002a14:	2301      	moveq	r3, #1
 8002a16:	2300      	movne	r3, #0
 8002a18:	b2db      	uxtb	r3, r3
 8002a1a:	2b00      	cmp	r3, #0
 8002a1c:	d001      	beq.n	8002a22 <HAL_I2C_Init+0x196>
 8002a1e:	2301      	movs	r3, #1
 8002a20:	e022      	b.n	8002a68 <HAL_I2C_Init+0x1dc>
 8002a22:	687b      	ldr	r3, [r7, #4]
 8002a24:	689b      	ldr	r3, [r3, #8]
 8002a26:	2b00      	cmp	r3, #0
 8002a28:	d10e      	bne.n	8002a48 <HAL_I2C_Init+0x1bc>
 8002a2a:	68fb      	ldr	r3, [r7, #12]
 8002a2c:	1e58      	subs	r0, r3, #1
 8002a2e:	687b      	ldr	r3, [r7, #4]
 8002a30:	6859      	ldr	r1, [r3, #4]
 8002a32:	460b      	mov	r3, r1
 8002a34:	005b      	lsls	r3, r3, #1
 8002a36:	440b      	add	r3, r1
 8002a38:	fbb0 f3f3 	udiv	r3, r0, r3
 8002a3c:	3301      	adds	r3, #1
 8002a3e:	f3c3 030b 	ubfx	r3, r3, #0, #12
 8002a42:	f443 4300 	orr.w	r3, r3, #32768	; 0x8000
 8002a46:	e00f      	b.n	8002a68 <HAL_I2C_Init+0x1dc>
 8002a48:	68fb      	ldr	r3, [r7, #12]
 8002a4a:	1e58      	subs	r0, r3, #1
 8002a4c:	687b      	ldr	r3, [r7, #4]
 8002a4e:	6859      	ldr	r1, [r3, #4]
 8002a50:	460b      	mov	r3, r1
 8002a52:	009b      	lsls	r3, r3, #2
 8002a54:	440b      	add	r3, r1
 8002a56:	0099      	lsls	r1, r3, #2
 8002a58:	440b      	add	r3, r1
 8002a5a:	fbb0 f3f3 	udiv	r3, r0, r3
 8002a5e:	3301      	adds	r3, #1
 8002a60:	f3c3 030b 	ubfx	r3, r3, #0, #12
 8002a64:	f443 4340 	orr.w	r3, r3, #49152	; 0xc000
 8002a68:	6879      	ldr	r1, [r7, #4]
 8002a6a:	6809      	ldr	r1, [r1, #0]
 8002a6c:	4313      	orrs	r3, r2
 8002a6e:	61cb      	str	r3, [r1, #28]

  /*---------------------------- I2Cx CR1 Configuration ----------------------*/
  /* Configure I2Cx: Generalcall and NoStretch mode */
  MODIFY_REG(hi2c->Instance->CR1, (I2C_CR1_ENGC | I2C_CR1_NOSTRETCH), (hi2c->Init.GeneralCallMode | hi2c->Init.NoStretchMode));
 8002a70:	687b      	ldr	r3, [r7, #4]
 8002a72:	681b      	ldr	r3, [r3, #0]
 8002a74:	681b      	ldr	r3, [r3, #0]
 8002a76:	f023 01c0 	bic.w	r1, r3, #192	; 0xc0
 8002a7a:	687b      	ldr	r3, [r7, #4]
 8002a7c:	69da      	ldr	r2, [r3, #28]
 8002a7e:	687b      	ldr	r3, [r7, #4]
 8002a80:	6a1b      	ldr	r3, [r3, #32]
 8002a82:	431a      	orrs	r2, r3
 8002a84:	687b      	ldr	r3, [r7, #4]
 8002a86:	681b      	ldr	r3, [r3, #0]
 8002a88:	430a      	orrs	r2, r1
 8002a8a:	601a      	str	r2, [r3, #0]

  /*---------------------------- I2Cx OAR1 Configuration ---------------------*/
  /* Configure I2Cx: Own Address1 and addressing mode */
  MODIFY_REG(hi2c->Instance->OAR1, (I2C_OAR1_ADDMODE | I2C_OAR1_ADD8_9 | I2C_OAR1_ADD1_7 | I2C_OAR1_ADD0), (hi2c->Init.AddressingMode | hi2c->Init.OwnAddress1));
 8002a8c:	687b      	ldr	r3, [r7, #4]
 8002a8e:	681b      	ldr	r3, [r3, #0]
 8002a90:	689b      	ldr	r3, [r3, #8]
 8002a92:	f423 4303 	bic.w	r3, r3, #33536	; 0x8300
 8002a96:	f023 03ff 	bic.w	r3, r3, #255	; 0xff
 8002a9a:	687a      	ldr	r2, [r7, #4]
 8002a9c:	6911      	ldr	r1, [r2, #16]
 8002a9e:	687a      	ldr	r2, [r7, #4]
 8002aa0:	68d2      	ldr	r2, [r2, #12]
 8002aa2:	4311      	orrs	r1, r2
 8002aa4:	687a      	ldr	r2, [r7, #4]
 8002aa6:	6812      	ldr	r2, [r2, #0]
 8002aa8:	430b      	orrs	r3, r1
 8002aaa:	6093      	str	r3, [r2, #8]

  /*---------------------------- I2Cx OAR2 Configuration ---------------------*/
  /* Configure I2Cx: Dual mode and Own Address2 */
  MODIFY_REG(hi2c->Instance->OAR2, (I2C_OAR2_ENDUAL | I2C_OAR2_ADD2), (hi2c->Init.DualAddressMode | hi2c->Init.OwnAddress2));
 8002aac:	687b      	ldr	r3, [r7, #4]
 8002aae:	681b      	ldr	r3, [r3, #0]
 8002ab0:	68db      	ldr	r3, [r3, #12]
 8002ab2:	f023 01ff 	bic.w	r1, r3, #255	; 0xff
 8002ab6:	687b      	ldr	r3, [r7, #4]
 8002ab8:	695a      	ldr	r2, [r3, #20]
 8002aba:	687b      	ldr	r3, [r7, #4]
 8002abc:	699b      	ldr	r3, [r3, #24]
 8002abe:	431a      	orrs	r2, r3
 8002ac0:	687b      	ldr	r3, [r7, #4]
 8002ac2:	681b      	ldr	r3, [r3, #0]
 8002ac4:	430a      	orrs	r2, r1
 8002ac6:	60da      	str	r2, [r3, #12]

  /* Enable the selected I2C peripheral */
  __HAL_I2C_ENABLE(hi2c);
 8002ac8:	687b      	ldr	r3, [r7, #4]
 8002aca:	681b      	ldr	r3, [r3, #0]
 8002acc:	681a      	ldr	r2, [r3, #0]
 8002ace:	687b      	ldr	r3, [r7, #4]
 8002ad0:	681b      	ldr	r3, [r3, #0]
 8002ad2:	f042 0201 	orr.w	r2, r2, #1
 8002ad6:	601a      	str	r2, [r3, #0]

  hi2c->ErrorCode = HAL_I2C_ERROR_NONE;
 8002ad8:	687b      	ldr	r3, [r7, #4]
 8002ada:	2200      	movs	r2, #0
 8002adc:	641a      	str	r2, [r3, #64]	; 0x40
  hi2c->State = HAL_I2C_STATE_READY;
 8002ade:	687b      	ldr	r3, [r7, #4]
 8002ae0:	2220      	movs	r2, #32
 8002ae2:	f883 203d 	strb.w	r2, [r3, #61]	; 0x3d
  hi2c->PreviousState = I2C_STATE_NONE;
 8002ae6:	687b      	ldr	r3, [r7, #4]
 8002ae8:	2200      	movs	r2, #0
 8002aea:	631a      	str	r2, [r3, #48]	; 0x30
  hi2c->Mode = HAL_I2C_MODE_NONE;
 8002aec:	687b      	ldr	r3, [r7, #4]
 8002aee:	2200      	movs	r2, #0
 8002af0:	f883 203e 	strb.w	r2, [r3, #62]	; 0x3e

  return HAL_OK;
 8002af4:	2300      	movs	r3, #0
}
 8002af6:	4618      	mov	r0, r3
 8002af8:	3710      	adds	r7, #16
 8002afa:	46bd      	mov	sp, r7
 8002afc:	bd80      	pop	{r7, pc}
 8002afe:	bf00      	nop
 8002b00:	000186a0 	.word	0x000186a0
 8002b04:	001e847f 	.word	0x001e847f
 8002b08:	003d08ff 	.word	0x003d08ff
 8002b0c:	431bde83 	.word	0x431bde83
 8002b10:	10624dd3 	.word	0x10624dd3

08002b14 <HAL_I2C_Master_Transmit>:
  * @param  Size Amount of data to be sent
  * @param  Timeout Timeout duration
  * @retval HAL status
  */
HAL_StatusTypeDef HAL_I2C_Master_Transmit(I2C_HandleTypeDef *hi2c, uint16_t DevAddress, uint8_t *pData, uint16_t Size, uint32_t Timeout)
{
 8002b14:	b580      	push	{r7, lr}
 8002b16:	b088      	sub	sp, #32
 8002b18:	af02      	add	r7, sp, #8
 8002b1a:	60f8      	str	r0, [r7, #12]
 8002b1c:	607a      	str	r2, [r7, #4]
 8002b1e:	461a      	mov	r2, r3
 8002b20:	460b      	mov	r3, r1
 8002b22:	817b      	strh	r3, [r7, #10]
 8002b24:	4613      	mov	r3, r2
 8002b26:	813b      	strh	r3, [r7, #8]
  /* Init tickstart for timeout management*/
  uint32_t tickstart = HAL_GetTick();
 8002b28:	f7ff fb1e 	bl	8002168 <HAL_GetTick>
 8002b2c:	6178      	str	r0, [r7, #20]

  if (hi2c->State == HAL_I2C_STATE_READY)
 8002b2e:	68fb      	ldr	r3, [r7, #12]
 8002b30:	f893 303d 	ldrb.w	r3, [r3, #61]	; 0x3d
 8002b34:	b2db      	uxtb	r3, r3
 8002b36:	2b20      	cmp	r3, #32
 8002b38:	f040 80e0 	bne.w	8002cfc <HAL_I2C_Master_Transmit+0x1e8>
  {
    /* Wait until BUSY flag is reset */
    if (I2C_WaitOnFlagUntilTimeout(hi2c, I2C_FLAG_BUSY, SET, I2C_TIMEOUT_BUSY_FLAG, tickstart) != HAL_OK)
 8002b3c:	697b      	ldr	r3, [r7, #20]
 8002b3e:	9300      	str	r3, [sp, #0]
 8002b40:	2319      	movs	r3, #25
 8002b42:	2201      	movs	r2, #1
 8002b44:	4970      	ldr	r1, [pc, #448]	; (8002d08 <HAL_I2C_Master_Transmit+0x1f4>)
 8002b46:	68f8      	ldr	r0, [r7, #12]
 8002b48:	f000 fa92 	bl	8003070 <I2C_WaitOnFlagUntilTimeout>
 8002b4c:	4603      	mov	r3, r0
 8002b4e:	2b00      	cmp	r3, #0
 8002b50:	d001      	beq.n	8002b56 <HAL_I2C_Master_Transmit+0x42>
    {
      return HAL_BUSY;
 8002b52:	2302      	movs	r3, #2
 8002b54:	e0d3      	b.n	8002cfe <HAL_I2C_Master_Transmit+0x1ea>
    }

    /* Process Locked */
    __HAL_LOCK(hi2c);
 8002b56:	68fb      	ldr	r3, [r7, #12]
 8002b58:	f893 303c 	ldrb.w	r3, [r3, #60]	; 0x3c
 8002b5c:	2b01      	cmp	r3, #1
 8002b5e:	d101      	bne.n	8002b64 <HAL_I2C_Master_Transmit+0x50>
 8002b60:	2302      	movs	r3, #2
 8002b62:	e0cc      	b.n	8002cfe <HAL_I2C_Master_Transmit+0x1ea>
 8002b64:	68fb      	ldr	r3, [r7, #12]
 8002b66:	2201      	movs	r2, #1
 8002b68:	f883 203c 	strb.w	r2, [r3, #60]	; 0x3c

    /* Check if the I2C is already enabled */
    if ((hi2c->Instance->CR1 & I2C_CR1_PE) != I2C_CR1_PE)
 8002b6c:	68fb      	ldr	r3, [r7, #12]
 8002b6e:	681b      	ldr	r3, [r3, #0]
 8002b70:	681b      	ldr	r3, [r3, #0]
 8002b72:	f003 0301 	and.w	r3, r3, #1
 8002b76:	2b01      	cmp	r3, #1
 8002b78:	d007      	beq.n	8002b8a <HAL_I2C_Master_Transmit+0x76>
    {
      /* Enable I2C peripheral */
      __HAL_I2C_ENABLE(hi2c);
 8002b7a:	68fb      	ldr	r3, [r7, #12]
 8002b7c:	681b      	ldr	r3, [r3, #0]
 8002b7e:	681a      	ldr	r2, [r3, #0]
 8002b80:	68fb      	ldr	r3, [r7, #12]
 8002b82:	681b      	ldr	r3, [r3, #0]
 8002b84:	f042 0201 	orr.w	r2, r2, #1
 8002b88:	601a      	str	r2, [r3, #0]
    }

    /* Disable Pos */
    CLEAR_BIT(hi2c->Instance->CR1, I2C_CR1_POS);
 8002b8a:	68fb      	ldr	r3, [r7, #12]
 8002b8c:	681b      	ldr	r3, [r3, #0]
 8002b8e:	681a      	ldr	r2, [r3, #0]
 8002b90:	68fb      	ldr	r3, [r7, #12]
 8002b92:	681b      	ldr	r3, [r3, #0]
 8002b94:	f422 6200 	bic.w	r2, r2, #2048	; 0x800
 8002b98:	601a      	str	r2, [r3, #0]

    hi2c->State       = HAL_I2C_STATE_BUSY_TX;
 8002b9a:	68fb      	ldr	r3, [r7, #12]
 8002b9c:	2221      	movs	r2, #33	; 0x21
 8002b9e:	f883 203d 	strb.w	r2, [r3, #61]	; 0x3d
    hi2c->Mode        = HAL_I2C_MODE_MASTER;
 8002ba2:	68fb      	ldr	r3, [r7, #12]
 8002ba4:	2210      	movs	r2, #16
 8002ba6:	f883 203e 	strb.w	r2, [r3, #62]	; 0x3e
    hi2c->ErrorCode   = HAL_I2C_ERROR_NONE;
 8002baa:	68fb      	ldr	r3, [r7, #12]
 8002bac:	2200      	movs	r2, #0
 8002bae:	641a      	str	r2, [r3, #64]	; 0x40

    /* Prepare transfer parameters */
    hi2c->pBuffPtr    = pData;
 8002bb0:	68fb      	ldr	r3, [r7, #12]
 8002bb2:	687a      	ldr	r2, [r7, #4]
 8002bb4:	625a      	str	r2, [r3, #36]	; 0x24
    hi2c->XferCount   = Size;
 8002bb6:	68fb      	ldr	r3, [r7, #12]
 8002bb8:	893a      	ldrh	r2, [r7, #8]
 8002bba:	855a      	strh	r2, [r3, #42]	; 0x2a
    hi2c->XferSize    = hi2c->XferCount;
 8002bbc:	68fb      	ldr	r3, [r7, #12]
 8002bbe:	8d5b      	ldrh	r3, [r3, #42]	; 0x2a
 8002bc0:	b29a      	uxth	r2, r3
 8002bc2:	68fb      	ldr	r3, [r7, #12]
 8002bc4:	851a      	strh	r2, [r3, #40]	; 0x28
    hi2c->XferOptions = I2C_NO_OPTION_FRAME;
 8002bc6:	68fb      	ldr	r3, [r7, #12]
 8002bc8:	4a50      	ldr	r2, [pc, #320]	; (8002d0c <HAL_I2C_Master_Transmit+0x1f8>)
 8002bca:	62da      	str	r2, [r3, #44]	; 0x2c

    /* Send Slave Address */
    if (I2C_MasterRequestWrite(hi2c, DevAddress, Timeout, tickstart) != HAL_OK)
 8002bcc:	8979      	ldrh	r1, [r7, #10]
 8002bce:	697b      	ldr	r3, [r7, #20]
 8002bd0:	6a3a      	ldr	r2, [r7, #32]
 8002bd2:	68f8      	ldr	r0, [r7, #12]
 8002bd4:	f000 f9ca 	bl	8002f6c <I2C_MasterRequestWrite>
 8002bd8:	4603      	mov	r3, r0
 8002bda:	2b00      	cmp	r3, #0
 8002bdc:	d001      	beq.n	8002be2 <HAL_I2C_Master_Transmit+0xce>
    {
      return HAL_ERROR;
 8002bde:	2301      	movs	r3, #1
 8002be0:	e08d      	b.n	8002cfe <HAL_I2C_Master_Transmit+0x1ea>
    }

    /* Clear ADDR flag */
    __HAL_I2C_CLEAR_ADDRFLAG(hi2c);
 8002be2:	2300      	movs	r3, #0
 8002be4:	613b      	str	r3, [r7, #16]
 8002be6:	68fb      	ldr	r3, [r7, #12]
 8002be8:	681b      	ldr	r3, [r3, #0]
 8002bea:	695b      	ldr	r3, [r3, #20]
 8002bec:	613b      	str	r3, [r7, #16]
 8002bee:	68fb      	ldr	r3, [r7, #12]
 8002bf0:	681b      	ldr	r3, [r3, #0]
 8002bf2:	699b      	ldr	r3, [r3, #24]
 8002bf4:	613b      	str	r3, [r7, #16]
 8002bf6:	693b      	ldr	r3, [r7, #16]

    while (hi2c->XferSize > 0U)
 8002bf8:	e066      	b.n	8002cc8 <HAL_I2C_Master_Transmit+0x1b4>
    {
      /* Wait until TXE flag is set */
      if (I2C_WaitOnTXEFlagUntilTimeout(hi2c, Timeout, tickstart) != HAL_OK)
 8002bfa:	697a      	ldr	r2, [r7, #20]
 8002bfc:	6a39      	ldr	r1, [r7, #32]
 8002bfe:	68f8      	ldr	r0, [r7, #12]
 8002c00:	f000 fb50 	bl	80032a4 <I2C_WaitOnTXEFlagUntilTimeout>
 8002c04:	4603      	mov	r3, r0
 8002c06:	2b00      	cmp	r3, #0
 8002c08:	d00d      	beq.n	8002c26 <HAL_I2C_Master_Transmit+0x112>
      {
        if (hi2c->ErrorCode == HAL_I2C_ERROR_AF)
 8002c0a:	68fb      	ldr	r3, [r7, #12]
 8002c0c:	6c1b      	ldr	r3, [r3, #64]	; 0x40
 8002c0e:	2b04      	cmp	r3, #4
 8002c10:	d107      	bne.n	8002c22 <HAL_I2C_Master_Transmit+0x10e>
        {
          /* Generate Stop */
          SET_BIT(hi2c->Instance->CR1, I2C_CR1_STOP);
 8002c12:	68fb      	ldr	r3, [r7, #12]
 8002c14:	681b      	ldr	r3, [r3, #0]
 8002c16:	681a      	ldr	r2, [r3, #0]
 8002c18:	68fb      	ldr	r3, [r7, #12]
 8002c1a:	681b      	ldr	r3, [r3, #0]
 8002c1c:	f442 7200 	orr.w	r2, r2, #512	; 0x200
 8002c20:	601a      	str	r2, [r3, #0]
        }
        return HAL_ERROR;
 8002c22:	2301      	movs	r3, #1
 8002c24:	e06b      	b.n	8002cfe <HAL_I2C_Master_Transmit+0x1ea>
      }

      /* Write data to DR */
      hi2c->Instance->DR = *hi2c->pBuffPtr;
 8002c26:	68fb      	ldr	r3, [r7, #12]
 8002c28:	6a5b      	ldr	r3, [r3, #36]	; 0x24
 8002c2a:	781a      	ldrb	r2, [r3, #0]
 8002c2c:	68fb      	ldr	r3, [r7, #12]
 8002c2e:	681b      	ldr	r3, [r3, #0]
 8002c30:	611a      	str	r2, [r3, #16]

      /* Increment Buffer pointer */
      hi2c->pBuffPtr++;
 8002c32:	68fb      	ldr	r3, [r7, #12]
 8002c34:	6a5b      	ldr	r3, [r3, #36]	; 0x24
 8002c36:	1c5a      	adds	r2, r3, #1
 8002c38:	68fb      	ldr	r3, [r7, #12]
 8002c3a:	625a      	str	r2, [r3, #36]	; 0x24

      /* Update counter */
      hi2c->XferCount--;
 8002c3c:	68fb      	ldr	r3, [r7, #12]
 8002c3e:	8d5b      	ldrh	r3, [r3, #42]	; 0x2a
 8002c40:	b29b      	uxth	r3, r3
 8002c42:	3b01      	subs	r3, #1
 8002c44:	b29a      	uxth	r2, r3
 8002c46:	68fb      	ldr	r3, [r7, #12]
 8002c48:	855a      	strh	r2, [r3, #42]	; 0x2a
      hi2c->XferSize--;
 8002c4a:	68fb      	ldr	r3, [r7, #12]
 8002c4c:	8d1b      	ldrh	r3, [r3, #40]	; 0x28
 8002c4e:	3b01      	subs	r3, #1
 8002c50:	b29a      	uxth	r2, r3
 8002c52:	68fb      	ldr	r3, [r7, #12]
 8002c54:	851a      	strh	r2, [r3, #40]	; 0x28

      if ((__HAL_I2C_GET_FLAG(hi2c, I2C_FLAG_BTF) == SET) && (hi2c->XferSize != 0U))
 8002c56:	68fb      	ldr	r3, [r7, #12]
 8002c58:	681b      	ldr	r3, [r3, #0]
 8002c5a:	695b      	ldr	r3, [r3, #20]
 8002c5c:	f003 0304 	and.w	r3, r3, #4
 8002c60:	2b04      	cmp	r3, #4
 8002c62:	d11b      	bne.n	8002c9c <HAL_I2C_Master_Transmit+0x188>
 8002c64:	68fb      	ldr	r3, [r7, #12]
 8002c66:	8d1b      	ldrh	r3, [r3, #40]	; 0x28
 8002c68:	2b00      	cmp	r3, #0
 8002c6a:	d017      	beq.n	8002c9c <HAL_I2C_Master_Transmit+0x188>
      {
        /* Write data to DR */
        hi2c->Instance->DR = *hi2c->pBuffPtr;
 8002c6c:	68fb      	ldr	r3, [r7, #12]
 8002c6e:	6a5b      	ldr	r3, [r3, #36]	; 0x24
 8002c70:	781a      	ldrb	r2, [r3, #0]
 8002c72:	68fb      	ldr	r3, [r7, #12]
 8002c74:	681b      	ldr	r3, [r3, #0]
 8002c76:	611a      	str	r2, [r3, #16]

        /* Increment Buffer pointer */
        hi2c->pBuffPtr++;
 8002c78:	68fb      	ldr	r3, [r7, #12]
 8002c7a:	6a5b      	ldr	r3, [r3, #36]	; 0x24
 8002c7c:	1c5a      	adds	r2, r3, #1
 8002c7e:	68fb      	ldr	r3, [r7, #12]
 8002c80:	625a      	str	r2, [r3, #36]	; 0x24

        /* Update counter */
        hi2c->XferCount--;
 8002c82:	68fb      	ldr	r3, [r7, #12]
 8002c84:	8d5b      	ldrh	r3, [r3, #42]	; 0x2a
 8002c86:	b29b      	uxth	r3, r3
 8002c88:	3b01      	subs	r3, #1
 8002c8a:	b29a      	uxth	r2, r3
 8002c8c:	68fb      	ldr	r3, [r7, #12]
 8002c8e:	855a      	strh	r2, [r3, #42]	; 0x2a
        hi2c->XferSize--;
 8002c90:	68fb      	ldr	r3, [r7, #12]
 8002c92:	8d1b      	ldrh	r3, [r3, #40]	; 0x28
 8002c94:	3b01      	subs	r3, #1
 8002c96:	b29a      	uxth	r2, r3
 8002c98:	68fb      	ldr	r3, [r7, #12]
 8002c9a:	851a      	strh	r2, [r3, #40]	; 0x28
      }

      /* Wait until BTF flag is set */
      if (I2C_WaitOnBTFFlagUntilTimeout(hi2c, Timeout, tickstart) != HAL_OK)
 8002c9c:	697a      	ldr	r2, [r7, #20]
 8002c9e:	6a39      	ldr	r1, [r7, #32]
 8002ca0:	68f8      	ldr	r0, [r7, #12]
 8002ca2:	f000 fb47 	bl	8003334 <I2C_WaitOnBTFFlagUntilTimeout>
 8002ca6:	4603      	mov	r3, r0
 8002ca8:	2b00      	cmp	r3, #0
 8002caa:	d00d      	beq.n	8002cc8 <HAL_I2C_Master_Transmit+0x1b4>
      {
        if (hi2c->ErrorCode == HAL_I2C_ERROR_AF)
 8002cac:	68fb      	ldr	r3, [r7, #12]
 8002cae:	6c1b      	ldr	r3, [r3, #64]	; 0x40
 8002cb0:	2b04      	cmp	r3, #4
 8002cb2:	d107      	bne.n	8002cc4 <HAL_I2C_Master_Transmit+0x1b0>
        {
          /* Generate Stop */
          SET_BIT(hi2c->Instance->CR1, I2C_CR1_STOP);
 8002cb4:	68fb      	ldr	r3, [r7, #12]
 8002cb6:	681b      	ldr	r3, [r3, #0]
 8002cb8:	681a      	ldr	r2, [r3, #0]
 8002cba:	68fb      	ldr	r3, [r7, #12]
 8002cbc:	681b      	ldr	r3, [r3, #0]
 8002cbe:	f442 7200 	orr.w	r2, r2, #512	; 0x200
 8002cc2:	601a      	str	r2, [r3, #0]
        }
        return HAL_ERROR;
 8002cc4:	2301      	movs	r3, #1
 8002cc6:	e01a      	b.n	8002cfe <HAL_I2C_Master_Transmit+0x1ea>
    while (hi2c->XferSize > 0U)
 8002cc8:	68fb      	ldr	r3, [r7, #12]
 8002cca:	8d1b      	ldrh	r3, [r3, #40]	; 0x28
 8002ccc:	2b00      	cmp	r3, #0
 8002cce:	d194      	bne.n	8002bfa <HAL_I2C_Master_Transmit+0xe6>
      }
    }

    /* Generate Stop */
    SET_BIT(hi2c->Instance->CR1, I2C_CR1_STOP);
 8002cd0:	68fb      	ldr	r3, [r7, #12]
 8002cd2:	681b      	ldr	r3, [r3, #0]
 8002cd4:	681a      	ldr	r2, [r3, #0]
 8002cd6:	68fb      	ldr	r3, [r7, #12]
 8002cd8:	681b      	ldr	r3, [r3, #0]
 8002cda:	f442 7200 	orr.w	r2, r2, #512	; 0x200
 8002cde:	601a      	str	r2, [r3, #0]

    hi2c->State = HAL_I2C_STATE_READY;
 8002ce0:	68fb      	ldr	r3, [r7, #12]
 8002ce2:	2220      	movs	r2, #32
 8002ce4:	f883 203d 	strb.w	r2, [r3, #61]	; 0x3d
    hi2c->Mode = HAL_I2C_MODE_NONE;
 8002ce8:	68fb      	ldr	r3, [r7, #12]
 8002cea:	2200      	movs	r2, #0
 8002cec:	f883 203e 	strb.w	r2, [r3, #62]	; 0x3e

    /* Process Unlocked */
    __HAL_UNLOCK(hi2c);
 8002cf0:	68fb      	ldr	r3, [r7, #12]
 8002cf2:	2200      	movs	r2, #0
 8002cf4:	f883 203c 	strb.w	r2, [r3, #60]	; 0x3c

    return HAL_OK;
 8002cf8:	2300      	movs	r3, #0
 8002cfa:	e000      	b.n	8002cfe <HAL_I2C_Master_Transmit+0x1ea>
  }
  else
  {
    return HAL_BUSY;
 8002cfc:	2302      	movs	r3, #2
  }
}
 8002cfe:	4618      	mov	r0, r3
 8002d00:	3718      	adds	r7, #24
 8002d02:	46bd      	mov	sp, r7
 8002d04:	bd80      	pop	{r7, pc}
 8002d06:	bf00      	nop
 8002d08:	00100002 	.word	0x00100002
 8002d0c:	ffff0000 	.word	0xffff0000

08002d10 <HAL_I2C_IsDeviceReady>:
  * @param  Trials Number of trials
  * @param  Timeout Timeout duration
  * @retval HAL status
  */
HAL_StatusTypeDef HAL_I2C_IsDeviceReady(I2C_HandleTypeDef *hi2c, uint16_t DevAddress, uint32_t Trials, uint32_t Timeout)
{
 8002d10:	b580      	push	{r7, lr}
 8002d12:	b08a      	sub	sp, #40	; 0x28
 8002d14:	af02      	add	r7, sp, #8
 8002d16:	60f8      	str	r0, [r7, #12]
 8002d18:	607a      	str	r2, [r7, #4]
 8002d1a:	603b      	str	r3, [r7, #0]
 8002d1c:	460b      	mov	r3, r1
 8002d1e:	817b      	strh	r3, [r7, #10]
  /* Get tick */
  uint32_t tickstart = HAL_GetTick();
 8002d20:	f7ff fa22 	bl	8002168 <HAL_GetTick>
 8002d24:	61f8      	str	r0, [r7, #28]
  uint32_t I2C_Trials = 0U;
 8002d26:	2300      	movs	r3, #0
 8002d28:	61bb      	str	r3, [r7, #24]
  FlagStatus tmp1;
  FlagStatus tmp2;

  if (hi2c->State == HAL_I2C_STATE_READY)
 8002d2a:	68fb      	ldr	r3, [r7, #12]
 8002d2c:	f893 303d 	ldrb.w	r3, [r3, #61]	; 0x3d
 8002d30:	b2db      	uxtb	r3, r3
 8002d32:	2b20      	cmp	r3, #32
 8002d34:	f040 8111 	bne.w	8002f5a <HAL_I2C_IsDeviceReady+0x24a>
  {
    /* Wait until BUSY flag is reset */
    if (I2C_WaitOnFlagUntilTimeout(hi2c, I2C_FLAG_BUSY, SET, I2C_TIMEOUT_BUSY_FLAG, tickstart) != HAL_OK)
 8002d38:	69fb      	ldr	r3, [r7, #28]
 8002d3a:	9300      	str	r3, [sp, #0]
 8002d3c:	2319      	movs	r3, #25
 8002d3e:	2201      	movs	r2, #1
 8002d40:	4988      	ldr	r1, [pc, #544]	; (8002f64 <HAL_I2C_IsDeviceReady+0x254>)
 8002d42:	68f8      	ldr	r0, [r7, #12]
 8002d44:	f000 f994 	bl	8003070 <I2C_WaitOnFlagUntilTimeout>
 8002d48:	4603      	mov	r3, r0
 8002d4a:	2b00      	cmp	r3, #0
 8002d4c:	d001      	beq.n	8002d52 <HAL_I2C_IsDeviceReady+0x42>
    {
      return HAL_BUSY;
 8002d4e:	2302      	movs	r3, #2
 8002d50:	e104      	b.n	8002f5c <HAL_I2C_IsDeviceReady+0x24c>
    }

    /* Process Locked */
    __HAL_LOCK(hi2c);
 8002d52:	68fb      	ldr	r3, [r7, #12]
 8002d54:	f893 303c 	ldrb.w	r3, [r3, #60]	; 0x3c
 8002d58:	2b01      	cmp	r3, #1
 8002d5a:	d101      	bne.n	8002d60 <HAL_I2C_IsDeviceReady+0x50>
 8002d5c:	2302      	movs	r3, #2
 8002d5e:	e0fd      	b.n	8002f5c <HAL_I2C_IsDeviceReady+0x24c>
 8002d60:	68fb      	ldr	r3, [r7, #12]
 8002d62:	2201      	movs	r2, #1
 8002d64:	f883 203c 	strb.w	r2, [r3, #60]	; 0x3c

    /* Check if the I2C is already enabled */
    if ((hi2c->Instance->CR1 & I2C_CR1_PE) != I2C_CR1_PE)
 8002d68:	68fb      	ldr	r3, [r7, #12]
 8002d6a:	681b      	ldr	r3, [r3, #0]
 8002d6c:	681b      	ldr	r3, [r3, #0]
 8002d6e:	f003 0301 	and.w	r3, r3, #1
 8002d72:	2b01      	cmp	r3, #1
 8002d74:	d007      	beq.n	8002d86 <HAL_I2C_IsDeviceReady+0x76>
    {
      /* Enable I2C peripheral */
      __HAL_I2C_ENABLE(hi2c);
 8002d76:	68fb      	ldr	r3, [r7, #12]
 8002d78:	681b      	ldr	r3, [r3, #0]
 8002d7a:	681a      	ldr	r2, [r3, #0]
 8002d7c:	68fb      	ldr	r3, [r7, #12]
 8002d7e:	681b      	ldr	r3, [r3, #0]
 8002d80:	f042 0201 	orr.w	r2, r2, #1
 8002d84:	601a      	str	r2, [r3, #0]
    }

    /* Disable Pos */
    CLEAR_BIT(hi2c->Instance->CR1, I2C_CR1_POS);
 8002d86:	68fb      	ldr	r3, [r7, #12]
 8002d88:	681b      	ldr	r3, [r3, #0]
 8002d8a:	681a      	ldr	r2, [r3, #0]
 8002d8c:	68fb      	ldr	r3, [r7, #12]
 8002d8e:	681b      	ldr	r3, [r3, #0]
 8002d90:	f422 6200 	bic.w	r2, r2, #2048	; 0x800
 8002d94:	601a      	str	r2, [r3, #0]

    hi2c->State = HAL_I2C_STATE_BUSY;
 8002d96:	68fb      	ldr	r3, [r7, #12]
 8002d98:	2224      	movs	r2, #36	; 0x24
 8002d9a:	f883 203d 	strb.w	r2, [r3, #61]	; 0x3d
    hi2c->ErrorCode = HAL_I2C_ERROR_NONE;
 8002d9e:	68fb      	ldr	r3, [r7, #12]
 8002da0:	2200      	movs	r2, #0
 8002da2:	641a      	str	r2, [r3, #64]	; 0x40
    hi2c->XferOptions = I2C_NO_OPTION_FRAME;
 8002da4:	68fb      	ldr	r3, [r7, #12]
 8002da6:	4a70      	ldr	r2, [pc, #448]	; (8002f68 <HAL_I2C_IsDeviceReady+0x258>)
 8002da8:	62da      	str	r2, [r3, #44]	; 0x2c

    do
    {
      /* Generate Start */
      SET_BIT(hi2c->Instance->CR1, I2C_CR1_START);
 8002daa:	68fb      	ldr	r3, [r7, #12]
 8002dac:	681b      	ldr	r3, [r3, #0]
 8002dae:	681a      	ldr	r2, [r3, #0]
 8002db0:	68fb      	ldr	r3, [r7, #12]
 8002db2:	681b      	ldr	r3, [r3, #0]
 8002db4:	f442 7280 	orr.w	r2, r2, #256	; 0x100
 8002db8:	601a      	str	r2, [r3, #0]

      /* Wait until SB flag is set */
      if (I2C_WaitOnFlagUntilTimeout(hi2c, I2C_FLAG_SB, RESET, Timeout, tickstart) != HAL_OK)
 8002dba:	69fb      	ldr	r3, [r7, #28]
 8002dbc:	9300      	str	r3, [sp, #0]
 8002dbe:	683b      	ldr	r3, [r7, #0]
 8002dc0:	2200      	movs	r2, #0
 8002dc2:	f04f 1101 	mov.w	r1, #65537	; 0x10001
 8002dc6:	68f8      	ldr	r0, [r7, #12]
 8002dc8:	f000 f952 	bl	8003070 <I2C_WaitOnFlagUntilTimeout>
 8002dcc:	4603      	mov	r3, r0
 8002dce:	2b00      	cmp	r3, #0
 8002dd0:	d00d      	beq.n	8002dee <HAL_I2C_IsDeviceReady+0xde>
      {
        if (READ_BIT(hi2c->Instance->CR1, I2C_CR1_START) == I2C_CR1_START)
 8002dd2:	68fb      	ldr	r3, [r7, #12]
 8002dd4:	681b      	ldr	r3, [r3, #0]
 8002dd6:	681b      	ldr	r3, [r3, #0]
 8002dd8:	f403 7380 	and.w	r3, r3, #256	; 0x100
 8002ddc:	f5b3 7f80 	cmp.w	r3, #256	; 0x100
 8002de0:	d103      	bne.n	8002dea <HAL_I2C_IsDeviceReady+0xda>
        {
          hi2c->ErrorCode = HAL_I2C_WRONG_START;
 8002de2:	68fb      	ldr	r3, [r7, #12]
 8002de4:	f44f 7200 	mov.w	r2, #512	; 0x200
 8002de8:	641a      	str	r2, [r3, #64]	; 0x40
        }
        return HAL_TIMEOUT;
 8002dea:	2303      	movs	r3, #3
 8002dec:	e0b6      	b.n	8002f5c <HAL_I2C_IsDeviceReady+0x24c>
      }

      /* Send slave address */
      hi2c->Instance->DR = I2C_7BIT_ADD_WRITE(DevAddress);
 8002dee:	897b      	ldrh	r3, [r7, #10]
 8002df0:	b2db      	uxtb	r3, r3
 8002df2:	461a      	mov	r2, r3
 8002df4:	68fb      	ldr	r3, [r7, #12]
 8002df6:	681b      	ldr	r3, [r3, #0]
 8002df8:	f002 02fe 	and.w	r2, r2, #254	; 0xfe
 8002dfc:	611a      	str	r2, [r3, #16]

      /* Wait until ADDR or AF flag are set */
      /* Get tick */
      tickstart = HAL_GetTick();
 8002dfe:	f7ff f9b3 	bl	8002168 <HAL_GetTick>
 8002e02:	61f8      	str	r0, [r7, #28]

      tmp1 = __HAL_I2C_GET_FLAG(hi2c, I2C_FLAG_ADDR);
 8002e04:	68fb      	ldr	r3, [r7, #12]
 8002e06:	681b      	ldr	r3, [r3, #0]
 8002e08:	695b      	ldr	r3, [r3, #20]
 8002e0a:	f003 0302 	and.w	r3, r3, #2
 8002e0e:	2b02      	cmp	r3, #2
 8002e10:	bf0c      	ite	eq
 8002e12:	2301      	moveq	r3, #1
 8002e14:	2300      	movne	r3, #0
 8002e16:	b2db      	uxtb	r3, r3
 8002e18:	75fb      	strb	r3, [r7, #23]
      tmp2 = __HAL_I2C_GET_FLAG(hi2c, I2C_FLAG_AF);
 8002e1a:	68fb      	ldr	r3, [r7, #12]
 8002e1c:	681b      	ldr	r3, [r3, #0]
 8002e1e:	695b      	ldr	r3, [r3, #20]
 8002e20:	f403 6380 	and.w	r3, r3, #1024	; 0x400
 8002e24:	f5b3 6f80 	cmp.w	r3, #1024	; 0x400
 8002e28:	bf0c      	ite	eq
 8002e2a:	2301      	moveq	r3, #1
 8002e2c:	2300      	movne	r3, #0
 8002e2e:	b2db      	uxtb	r3, r3
 8002e30:	75bb      	strb	r3, [r7, #22]
      while ((hi2c->State != HAL_I2C_STATE_TIMEOUT) && (tmp1 == RESET) && (tmp2 == RESET))
 8002e32:	e025      	b.n	8002e80 <HAL_I2C_IsDeviceReady+0x170>
      {
        if (((HAL_GetTick() - tickstart) > Timeout) || (Timeout == 0U))
 8002e34:	f7ff f998 	bl	8002168 <HAL_GetTick>
 8002e38:	4602      	mov	r2, r0
 8002e3a:	69fb      	ldr	r3, [r7, #28]
 8002e3c:	1ad3      	subs	r3, r2, r3
 8002e3e:	683a      	ldr	r2, [r7, #0]
 8002e40:	429a      	cmp	r2, r3
 8002e42:	d302      	bcc.n	8002e4a <HAL_I2C_IsDeviceReady+0x13a>
 8002e44:	683b      	ldr	r3, [r7, #0]
 8002e46:	2b00      	cmp	r3, #0
 8002e48:	d103      	bne.n	8002e52 <HAL_I2C_IsDeviceReady+0x142>
        {
          hi2c->State = HAL_I2C_STATE_TIMEOUT;
 8002e4a:	68fb      	ldr	r3, [r7, #12]
 8002e4c:	22a0      	movs	r2, #160	; 0xa0
 8002e4e:	f883 203d 	strb.w	r2, [r3, #61]	; 0x3d
        }
        tmp1 = __HAL_I2C_GET_FLAG(hi2c, I2C_FLAG_ADDR);
 8002e52:	68fb      	ldr	r3, [r7, #12]
 8002e54:	681b      	ldr	r3, [r3, #0]
 8002e56:	695b      	ldr	r3, [r3, #20]
 8002e58:	f003 0302 	and.w	r3, r3, #2
 8002e5c:	2b02      	cmp	r3, #2
 8002e5e:	bf0c      	ite	eq
 8002e60:	2301      	moveq	r3, #1
 8002e62:	2300      	movne	r3, #0
 8002e64:	b2db      	uxtb	r3, r3
 8002e66:	75fb      	strb	r3, [r7, #23]
        tmp2 = __HAL_I2C_GET_FLAG(hi2c, I2C_FLAG_AF);
 8002e68:	68fb      	ldr	r3, [r7, #12]
 8002e6a:	681b      	ldr	r3, [r3, #0]
 8002e6c:	695b      	ldr	r3, [r3, #20]
 8002e6e:	f403 6380 	and.w	r3, r3, #1024	; 0x400
 8002e72:	f5b3 6f80 	cmp.w	r3, #1024	; 0x400
 8002e76:	bf0c      	ite	eq
 8002e78:	2301      	moveq	r3, #1
 8002e7a:	2300      	movne	r3, #0
 8002e7c:	b2db      	uxtb	r3, r3
 8002e7e:	75bb      	strb	r3, [r7, #22]
      while ((hi2c->State != HAL_I2C_STATE_TIMEOUT) && (tmp1 == RESET) && (tmp2 == RESET))
 8002e80:	68fb      	ldr	r3, [r7, #12]
 8002e82:	f893 303d 	ldrb.w	r3, [r3, #61]	; 0x3d
 8002e86:	b2db      	uxtb	r3, r3
 8002e88:	2ba0      	cmp	r3, #160	; 0xa0
 8002e8a:	d005      	beq.n	8002e98 <HAL_I2C_IsDeviceReady+0x188>
 8002e8c:	7dfb      	ldrb	r3, [r7, #23]
 8002e8e:	2b00      	cmp	r3, #0
 8002e90:	d102      	bne.n	8002e98 <HAL_I2C_IsDeviceReady+0x188>
 8002e92:	7dbb      	ldrb	r3, [r7, #22]
 8002e94:	2b00      	cmp	r3, #0
 8002e96:	d0cd      	beq.n	8002e34 <HAL_I2C_IsDeviceReady+0x124>
      }

      hi2c->State = HAL_I2C_STATE_READY;
 8002e98:	68fb      	ldr	r3, [r7, #12]
 8002e9a:	2220      	movs	r2, #32
 8002e9c:	f883 203d 	strb.w	r2, [r3, #61]	; 0x3d

      /* Check if the ADDR flag has been set */
      if (__HAL_I2C_GET_FLAG(hi2c, I2C_FLAG_ADDR) == SET)
 8002ea0:	68fb      	ldr	r3, [r7, #12]
 8002ea2:	681b      	ldr	r3, [r3, #0]
 8002ea4:	695b      	ldr	r3, [r3, #20]
 8002ea6:	f003 0302 	and.w	r3, r3, #2
 8002eaa:	2b02      	cmp	r3, #2
 8002eac:	d129      	bne.n	8002f02 <HAL_I2C_IsDeviceReady+0x1f2>
      {
        /* Generate Stop */
        SET_BIT(hi2c->Instance->CR1, I2C_CR1_STOP);
 8002eae:	68fb      	ldr	r3, [r7, #12]
 8002eb0:	681b      	ldr	r3, [r3, #0]
 8002eb2:	681a      	ldr	r2, [r3, #0]
 8002eb4:	68fb      	ldr	r3, [r7, #12]
 8002eb6:	681b      	ldr	r3, [r3, #0]
 8002eb8:	f442 7200 	orr.w	r2, r2, #512	; 0x200
 8002ebc:	601a      	str	r2, [r3, #0]

        /* Clear ADDR Flag */
        __HAL_I2C_CLEAR_ADDRFLAG(hi2c);
 8002ebe:	2300      	movs	r3, #0
 8002ec0:	613b      	str	r3, [r7, #16]
 8002ec2:	68fb      	ldr	r3, [r7, #12]
 8002ec4:	681b      	ldr	r3, [r3, #0]
 8002ec6:	695b      	ldr	r3, [r3, #20]
 8002ec8:	613b      	str	r3, [r7, #16]
 8002eca:	68fb      	ldr	r3, [r7, #12]
 8002ecc:	681b      	ldr	r3, [r3, #0]
 8002ece:	699b      	ldr	r3, [r3, #24]
 8002ed0:	613b      	str	r3, [r7, #16]
 8002ed2:	693b      	ldr	r3, [r7, #16]

        /* Wait until BUSY flag is reset */
        if (I2C_WaitOnFlagUntilTimeout(hi2c, I2C_FLAG_BUSY, SET, I2C_TIMEOUT_BUSY_FLAG, tickstart) != HAL_OK)
 8002ed4:	69fb      	ldr	r3, [r7, #28]
 8002ed6:	9300      	str	r3, [sp, #0]
 8002ed8:	2319      	movs	r3, #25
 8002eda:	2201      	movs	r2, #1
 8002edc:	4921      	ldr	r1, [pc, #132]	; (8002f64 <HAL_I2C_IsDeviceReady+0x254>)
 8002ede:	68f8      	ldr	r0, [r7, #12]
 8002ee0:	f000 f8c6 	bl	8003070 <I2C_WaitOnFlagUntilTimeout>
 8002ee4:	4603      	mov	r3, r0
 8002ee6:	2b00      	cmp	r3, #0
 8002ee8:	d001      	beq.n	8002eee <HAL_I2C_IsDeviceReady+0x1de>
        {
          return HAL_ERROR;
 8002eea:	2301      	movs	r3, #1
 8002eec:	e036      	b.n	8002f5c <HAL_I2C_IsDeviceReady+0x24c>
        }

        hi2c->State = HAL_I2C_STATE_READY;
 8002eee:	68fb      	ldr	r3, [r7, #12]
 8002ef0:	2220      	movs	r2, #32
 8002ef2:	f883 203d 	strb.w	r2, [r3, #61]	; 0x3d

        /* Process Unlocked */
        __HAL_UNLOCK(hi2c);
 8002ef6:	68fb      	ldr	r3, [r7, #12]
 8002ef8:	2200      	movs	r2, #0
 8002efa:	f883 203c 	strb.w	r2, [r3, #60]	; 0x3c

        return HAL_OK;
 8002efe:	2300      	movs	r3, #0
 8002f00:	e02c      	b.n	8002f5c <HAL_I2C_IsDeviceReady+0x24c>
      }
      else
      {
        /* Generate Stop */
        SET_BIT(hi2c->Instance->CR1, I2C_CR1_STOP);
 8002f02:	68fb      	ldr	r3, [r7, #12]
 8002f04:	681b      	ldr	r3, [r3, #0]
 8002f06:	681a      	ldr	r2, [r3, #0]
 8002f08:	68fb      	ldr	r3, [r7, #12]
 8002f0a:	681b      	ldr	r3, [r3, #0]
 8002f0c:	f442 7200 	orr.w	r2, r2, #512	; 0x200
 8002f10:	601a      	str	r2, [r3, #0]

        /* Clear AF Flag */
        __HAL_I2C_CLEAR_FLAG(hi2c, I2C_FLAG_AF);
 8002f12:	68fb      	ldr	r3, [r7, #12]
 8002f14:	681b      	ldr	r3, [r3, #0]
 8002f16:	f46f 6280 	mvn.w	r2, #1024	; 0x400
 8002f1a:	615a      	str	r2, [r3, #20]

        /* Wait until BUSY flag is reset */
        if (I2C_WaitOnFlagUntilTimeout(hi2c, I2C_FLAG_BUSY, SET, I2C_TIMEOUT_BUSY_FLAG, tickstart) != HAL_OK)
 8002f1c:	69fb      	ldr	r3, [r7, #28]
 8002f1e:	9300      	str	r3, [sp, #0]
 8002f20:	2319      	movs	r3, #25
 8002f22:	2201      	movs	r2, #1
 8002f24:	490f      	ldr	r1, [pc, #60]	; (8002f64 <HAL_I2C_IsDeviceReady+0x254>)
 8002f26:	68f8      	ldr	r0, [r7, #12]
 8002f28:	f000 f8a2 	bl	8003070 <I2C_WaitOnFlagUntilTimeout>
 8002f2c:	4603      	mov	r3, r0
 8002f2e:	2b00      	cmp	r3, #0
 8002f30:	d001      	beq.n	8002f36 <HAL_I2C_IsDeviceReady+0x226>
        {
          return HAL_ERROR;
 8002f32:	2301      	movs	r3, #1
 8002f34:	e012      	b.n	8002f5c <HAL_I2C_IsDeviceReady+0x24c>
        }
      }

      /* Increment Trials */
      I2C_Trials++;
 8002f36:	69bb      	ldr	r3, [r7, #24]
 8002f38:	3301      	adds	r3, #1
 8002f3a:	61bb      	str	r3, [r7, #24]
    }
    while (I2C_Trials < Trials);
 8002f3c:	69ba      	ldr	r2, [r7, #24]
 8002f3e:	687b      	ldr	r3, [r7, #4]
 8002f40:	429a      	cmp	r2, r3
 8002f42:	f4ff af32 	bcc.w	8002daa <HAL_I2C_IsDeviceReady+0x9a>

    hi2c->State = HAL_I2C_STATE_READY;
 8002f46:	68fb      	ldr	r3, [r7, #12]
 8002f48:	2220      	movs	r2, #32
 8002f4a:	f883 203d 	strb.w	r2, [r3, #61]	; 0x3d

    /* Process Unlocked */
    __HAL_UNLOCK(hi2c);
 8002f4e:	68fb      	ldr	r3, [r7, #12]
 8002f50:	2200      	movs	r2, #0
 8002f52:	f883 203c 	strb.w	r2, [r3, #60]	; 0x3c

    return HAL_ERROR;
 8002f56:	2301      	movs	r3, #1
 8002f58:	e000      	b.n	8002f5c <HAL_I2C_IsDeviceReady+0x24c>
  }
  else
  {
    return HAL_BUSY;
 8002f5a:	2302      	movs	r3, #2
  }
}
 8002f5c:	4618      	mov	r0, r3
 8002f5e:	3720      	adds	r7, #32
 8002f60:	46bd      	mov	sp, r7
 8002f62:	bd80      	pop	{r7, pc}
 8002f64:	00100002 	.word	0x00100002
 8002f68:	ffff0000 	.word	0xffff0000

08002f6c <I2C_MasterRequestWrite>:
  * @param  Timeout Timeout duration
  * @param  Tickstart Tick start value
  * @retval HAL status
  */
static HAL_StatusTypeDef I2C_MasterRequestWrite(I2C_HandleTypeDef *hi2c, uint16_t DevAddress, uint32_t Timeout, uint32_t Tickstart)
{
 8002f6c:	b580      	push	{r7, lr}
 8002f6e:	b088      	sub	sp, #32
 8002f70:	af02      	add	r7, sp, #8
 8002f72:	60f8      	str	r0, [r7, #12]
 8002f74:	607a      	str	r2, [r7, #4]
 8002f76:	603b      	str	r3, [r7, #0]
 8002f78:	460b      	mov	r3, r1
 8002f7a:	817b      	strh	r3, [r7, #10]
  /* Declaration of temporary variable to prevent undefined behavior of volatile usage */
  uint32_t CurrentXferOptions = hi2c->XferOptions;
 8002f7c:	68fb      	ldr	r3, [r7, #12]
 8002f7e:	6adb      	ldr	r3, [r3, #44]	; 0x2c
 8002f80:	617b      	str	r3, [r7, #20]

  /* Generate Start condition if first transfer */
  if ((CurrentXferOptions == I2C_FIRST_AND_LAST_FRAME) || (CurrentXferOptions == I2C_FIRST_FRAME) || (CurrentXferOptions == I2C_NO_OPTION_FRAME))
 8002f82:	697b      	ldr	r3, [r7, #20]
 8002f84:	2b08      	cmp	r3, #8
 8002f86:	d006      	beq.n	8002f96 <I2C_MasterRequestWrite+0x2a>
 8002f88:	697b      	ldr	r3, [r7, #20]
 8002f8a:	2b01      	cmp	r3, #1
 8002f8c:	d003      	beq.n	8002f96 <I2C_MasterRequestWrite+0x2a>
 8002f8e:	697b      	ldr	r3, [r7, #20]
 8002f90:	f513 3f80 	cmn.w	r3, #65536	; 0x10000
 8002f94:	d108      	bne.n	8002fa8 <I2C_MasterRequestWrite+0x3c>
  {
    /* Generate Start */
    SET_BIT(hi2c->Instance->CR1, I2C_CR1_START);
 8002f96:	68fb      	ldr	r3, [r7, #12]
 8002f98:	681b      	ldr	r3, [r3, #0]
 8002f9a:	681a      	ldr	r2, [r3, #0]
 8002f9c:	68fb      	ldr	r3, [r7, #12]
 8002f9e:	681b      	ldr	r3, [r3, #0]
 8002fa0:	f442 7280 	orr.w	r2, r2, #256	; 0x100
 8002fa4:	601a      	str	r2, [r3, #0]
 8002fa6:	e00b      	b.n	8002fc0 <I2C_MasterRequestWrite+0x54>
  }
  else if (hi2c->PreviousState == I2C_STATE_MASTER_BUSY_RX)
 8002fa8:	68fb      	ldr	r3, [r7, #12]
 8002faa:	6b1b      	ldr	r3, [r3, #48]	; 0x30
 8002fac:	2b12      	cmp	r3, #18
 8002fae:	d107      	bne.n	8002fc0 <I2C_MasterRequestWrite+0x54>
  {
    /* Generate ReStart */
    SET_BIT(hi2c->Instance->CR1, I2C_CR1_START);
 8002fb0:	68fb      	ldr	r3, [r7, #12]
 8002fb2:	681b      	ldr	r3, [r3, #0]
 8002fb4:	681a      	ldr	r2, [r3, #0]
 8002fb6:	68fb      	ldr	r3, [r7, #12]
 8002fb8:	681b      	ldr	r3, [r3, #0]
 8002fba:	f442 7280 	orr.w	r2, r2, #256	; 0x100
 8002fbe:	601a      	str	r2, [r3, #0]
  {
    /* Do nothing */
  }

  /* Wait until SB flag is set */
  if (I2C_WaitOnFlagUntilTimeout(hi2c, I2C_FLAG_SB, RESET, Timeout, Tickstart) != HAL_OK)
 8002fc0:	683b      	ldr	r3, [r7, #0]
 8002fc2:	9300      	str	r3, [sp, #0]
 8002fc4:	687b      	ldr	r3, [r7, #4]
 8002fc6:	2200      	movs	r2, #0
 8002fc8:	f04f 1101 	mov.w	r1, #65537	; 0x10001
 8002fcc:	68f8      	ldr	r0, [r7, #12]
 8002fce:	f000 f84f 	bl	8003070 <I2C_WaitOnFlagUntilTimeout>
 8002fd2:	4603      	mov	r3, r0
 8002fd4:	2b00      	cmp	r3, #0
 8002fd6:	d00d      	beq.n	8002ff4 <I2C_MasterRequestWrite+0x88>
  {
    if (READ_BIT(hi2c->Instance->CR1, I2C_CR1_START) == I2C_CR1_START)
 8002fd8:	68fb      	ldr	r3, [r7, #12]
 8002fda:	681b      	ldr	r3, [r3, #0]
 8002fdc:	681b      	ldr	r3, [r3, #0]
 8002fde:	f403 7380 	and.w	r3, r3, #256	; 0x100
 8002fe2:	f5b3 7f80 	cmp.w	r3, #256	; 0x100
 8002fe6:	d103      	bne.n	8002ff0 <I2C_MasterRequestWrite+0x84>
    {
      hi2c->ErrorCode = HAL_I2C_WRONG_START;
 8002fe8:	68fb      	ldr	r3, [r7, #12]
 8002fea:	f44f 7200 	mov.w	r2, #512	; 0x200
 8002fee:	641a      	str	r2, [r3, #64]	; 0x40
    }
    return HAL_TIMEOUT;
 8002ff0:	2303      	movs	r3, #3
 8002ff2:	e035      	b.n	8003060 <I2C_MasterRequestWrite+0xf4>
  }

  if (hi2c->Init.AddressingMode == I2C_ADDRESSINGMODE_7BIT)
 8002ff4:	68fb      	ldr	r3, [r7, #12]
 8002ff6:	691b      	ldr	r3, [r3, #16]
 8002ff8:	f5b3 4f80 	cmp.w	r3, #16384	; 0x4000
 8002ffc:	d108      	bne.n	8003010 <I2C_MasterRequestWrite+0xa4>
  {
    /* Send slave address */
    hi2c->Instance->DR = I2C_7BIT_ADD_WRITE(DevAddress);
 8002ffe:	897b      	ldrh	r3, [r7, #10]
 8003000:	b2db      	uxtb	r3, r3
 8003002:	461a      	mov	r2, r3
 8003004:	68fb      	ldr	r3, [r7, #12]
 8003006:	681b      	ldr	r3, [r3, #0]
 8003008:	f002 02fe 	and.w	r2, r2, #254	; 0xfe
 800300c:	611a      	str	r2, [r3, #16]
 800300e:	e01b      	b.n	8003048 <I2C_MasterRequestWrite+0xdc>
  }
  else
  {
    /* Send header of slave address */
    hi2c->Instance->DR = I2C_10BIT_HEADER_WRITE(DevAddress);
 8003010:	897b      	ldrh	r3, [r7, #10]
 8003012:	11db      	asrs	r3, r3, #7
 8003014:	b2db      	uxtb	r3, r3
 8003016:	f003 0306 	and.w	r3, r3, #6
 800301a:	b2db      	uxtb	r3, r3
 800301c:	f063 030f 	orn	r3, r3, #15
 8003020:	b2da      	uxtb	r2, r3
 8003022:	68fb      	ldr	r3, [r7, #12]
 8003024:	681b      	ldr	r3, [r3, #0]
 8003026:	611a      	str	r2, [r3, #16]

    /* Wait until ADD10 flag is set */
    if (I2C_WaitOnMasterAddressFlagUntilTimeout(hi2c, I2C_FLAG_ADD10, Timeout, Tickstart) != HAL_OK)
 8003028:	683b      	ldr	r3, [r7, #0]
 800302a:	687a      	ldr	r2, [r7, #4]
 800302c:	490e      	ldr	r1, [pc, #56]	; (8003068 <I2C_MasterRequestWrite+0xfc>)
 800302e:	68f8      	ldr	r0, [r7, #12]
 8003030:	f000 f898 	bl	8003164 <I2C_WaitOnMasterAddressFlagUntilTimeout>
 8003034:	4603      	mov	r3, r0
 8003036:	2b00      	cmp	r3, #0
 8003038:	d001      	beq.n	800303e <I2C_MasterRequestWrite+0xd2>
    {
      return HAL_ERROR;
 800303a:	2301      	movs	r3, #1
 800303c:	e010      	b.n	8003060 <I2C_MasterRequestWrite+0xf4>
    }

    /* Send slave address */
    hi2c->Instance->DR = I2C_10BIT_ADDRESS(DevAddress);
 800303e:	897b      	ldrh	r3, [r7, #10]
 8003040:	b2da      	uxtb	r2, r3
 8003042:	68fb      	ldr	r3, [r7, #12]
 8003044:	681b      	ldr	r3, [r3, #0]
 8003046:	611a      	str	r2, [r3, #16]
  }

  /* Wait until ADDR flag is set */
  if (I2C_WaitOnMasterAddressFlagUntilTimeout(hi2c, I2C_FLAG_ADDR, Timeout, Tickstart) != HAL_OK)
 8003048:	683b      	ldr	r3, [r7, #0]
 800304a:	687a      	ldr	r2, [r7, #4]
 800304c:	4907      	ldr	r1, [pc, #28]	; (800306c <I2C_MasterRequestWrite+0x100>)
 800304e:	68f8      	ldr	r0, [r7, #12]
 8003050:	f000 f888 	bl	8003164 <I2C_WaitOnMasterAddressFlagUntilTimeout>
 8003054:	4603      	mov	r3, r0
 8003056:	2b00      	cmp	r3, #0
 8003058:	d001      	beq.n	800305e <I2C_MasterRequestWrite+0xf2>
  {
    return HAL_ERROR;
 800305a:	2301      	movs	r3, #1
 800305c:	e000      	b.n	8003060 <I2C_MasterRequestWrite+0xf4>
  }

  return HAL_OK;
 800305e:	2300      	movs	r3, #0
}
 8003060:	4618      	mov	r0, r3
 8003062:	3718      	adds	r7, #24
 8003064:	46bd      	mov	sp, r7
 8003066:	bd80      	pop	{r7, pc}
 8003068:	00010008 	.word	0x00010008
 800306c:	00010002 	.word	0x00010002

08003070 <I2C_WaitOnFlagUntilTimeout>:
  * @param  Timeout Timeout duration
  * @param  Tickstart Tick start value
  * @retval HAL status
  */
static HAL_StatusTypeDef I2C_WaitOnFlagUntilTimeout(I2C_HandleTypeDef *hi2c, uint32_t Flag, FlagStatus Status, uint32_t Timeout, uint32_t Tickstart)
{
 8003070:	b580      	push	{r7, lr}
 8003072:	b084      	sub	sp, #16
 8003074:	af00      	add	r7, sp, #0
 8003076:	60f8      	str	r0, [r7, #12]
 8003078:	60b9      	str	r1, [r7, #8]
 800307a:	603b      	str	r3, [r7, #0]
 800307c:	4613      	mov	r3, r2
 800307e:	71fb      	strb	r3, [r7, #7]
  /* Wait until flag is set */
  while (__HAL_I2C_GET_FLAG(hi2c, Flag) == Status)
 8003080:	e048      	b.n	8003114 <I2C_WaitOnFlagUntilTimeout+0xa4>
  {
    /* Check for the Timeout */
    if (Timeout != HAL_MAX_DELAY)
 8003082:	683b      	ldr	r3, [r7, #0]
 8003084:	f1b3 3fff 	cmp.w	r3, #4294967295
 8003088:	d044      	beq.n	8003114 <I2C_WaitOnFlagUntilTimeout+0xa4>
    {
      if (((HAL_GetTick() - Tickstart) > Timeout) || (Timeout == 0U))
 800308a:	f7ff f86d 	bl	8002168 <HAL_GetTick>
 800308e:	4602      	mov	r2, r0
 8003090:	69bb      	ldr	r3, [r7, #24]
 8003092:	1ad3      	subs	r3, r2, r3
 8003094:	683a      	ldr	r2, [r7, #0]
 8003096:	429a      	cmp	r2, r3
 8003098:	d302      	bcc.n	80030a0 <I2C_WaitOnFlagUntilTimeout+0x30>
 800309a:	683b      	ldr	r3, [r7, #0]
 800309c:	2b00      	cmp	r3, #0
 800309e:	d139      	bne.n	8003114 <I2C_WaitOnFlagUntilTimeout+0xa4>
      {
        if ((__HAL_I2C_GET_FLAG(hi2c, Flag) == Status))
 80030a0:	68bb      	ldr	r3, [r7, #8]
 80030a2:	0c1b      	lsrs	r3, r3, #16
 80030a4:	b2db      	uxtb	r3, r3
 80030a6:	2b01      	cmp	r3, #1
 80030a8:	d10d      	bne.n	80030c6 <I2C_WaitOnFlagUntilTimeout+0x56>
 80030aa:	68fb      	ldr	r3, [r7, #12]
 80030ac:	681b      	ldr	r3, [r3, #0]
 80030ae:	695b      	ldr	r3, [r3, #20]
 80030b0:	43da      	mvns	r2, r3
 80030b2:	68bb      	ldr	r3, [r7, #8]
 80030b4:	4013      	ands	r3, r2
 80030b6:	b29b      	uxth	r3, r3
 80030b8:	2b00      	cmp	r3, #0
 80030ba:	bf0c      	ite	eq
 80030bc:	2301      	moveq	r3, #1
 80030be:	2300      	movne	r3, #0
 80030c0:	b2db      	uxtb	r3, r3
 80030c2:	461a      	mov	r2, r3
 80030c4:	e00c      	b.n	80030e0 <I2C_WaitOnFlagUntilTimeout+0x70>
 80030c6:	68fb      	ldr	r3, [r7, #12]
 80030c8:	681b      	ldr	r3, [r3, #0]
 80030ca:	699b      	ldr	r3, [r3, #24]
 80030cc:	43da      	mvns	r2, r3
 80030ce:	68bb      	ldr	r3, [r7, #8]
 80030d0:	4013      	ands	r3, r2
 80030d2:	b29b      	uxth	r3, r3
 80030d4:	2b00      	cmp	r3, #0
 80030d6:	bf0c      	ite	eq
 80030d8:	2301      	moveq	r3, #1
 80030da:	2300      	movne	r3, #0
 80030dc:	b2db      	uxtb	r3, r3
 80030de:	461a      	mov	r2, r3
 80030e0:	79fb      	ldrb	r3, [r7, #7]
 80030e2:	429a      	cmp	r2, r3
 80030e4:	d116      	bne.n	8003114 <I2C_WaitOnFlagUntilTimeout+0xa4>
        {
          hi2c->PreviousState     = I2C_STATE_NONE;
 80030e6:	68fb      	ldr	r3, [r7, #12]
 80030e8:	2200      	movs	r2, #0
 80030ea:	631a      	str	r2, [r3, #48]	; 0x30
          hi2c->State             = HAL_I2C_STATE_READY;
 80030ec:	68fb      	ldr	r3, [r7, #12]
 80030ee:	2220      	movs	r2, #32
 80030f0:	f883 203d 	strb.w	r2, [r3, #61]	; 0x3d
          hi2c->Mode              = HAL_I2C_MODE_NONE;
 80030f4:	68fb      	ldr	r3, [r7, #12]
 80030f6:	2200      	movs	r2, #0
 80030f8:	f883 203e 	strb.w	r2, [r3, #62]	; 0x3e
          hi2c->ErrorCode         |= HAL_I2C_ERROR_TIMEOUT;
 80030fc:	68fb      	ldr	r3, [r7, #12]
 80030fe:	6c1b      	ldr	r3, [r3, #64]	; 0x40
 8003100:	f043 0220 	orr.w	r2, r3, #32
 8003104:	68fb      	ldr	r3, [r7, #12]
 8003106:	641a      	str	r2, [r3, #64]	; 0x40

          /* Process Unlocked */
          __HAL_UNLOCK(hi2c);
 8003108:	68fb      	ldr	r3, [r7, #12]
 800310a:	2200      	movs	r2, #0
 800310c:	f883 203c 	strb.w	r2, [r3, #60]	; 0x3c

          return HAL_ERROR;
 8003110:	2301      	movs	r3, #1
 8003112:	e023      	b.n	800315c <I2C_WaitOnFlagUntilTimeout+0xec>
  while (__HAL_I2C_GET_FLAG(hi2c, Flag) == Status)
 8003114:	68bb      	ldr	r3, [r7, #8]
 8003116:	0c1b      	lsrs	r3, r3, #16
 8003118:	b2db      	uxtb	r3, r3
 800311a:	2b01      	cmp	r3, #1
 800311c:	d10d      	bne.n	800313a <I2C_WaitOnFlagUntilTimeout+0xca>
 800311e:	68fb      	ldr	r3, [r7, #12]
 8003120:	681b      	ldr	r3, [r3, #0]
 8003122:	695b      	ldr	r3, [r3, #20]
 8003124:	43da      	mvns	r2, r3
 8003126:	68bb      	ldr	r3, [r7, #8]
 8003128:	4013      	ands	r3, r2
 800312a:	b29b      	uxth	r3, r3
 800312c:	2b00      	cmp	r3, #0
 800312e:	bf0c      	ite	eq
 8003130:	2301      	moveq	r3, #1
 8003132:	2300      	movne	r3, #0
 8003134:	b2db      	uxtb	r3, r3
 8003136:	461a      	mov	r2, r3
 8003138:	e00c      	b.n	8003154 <I2C_WaitOnFlagUntilTimeout+0xe4>
 800313a:	68fb      	ldr	r3, [r7, #12]
 800313c:	681b      	ldr	r3, [r3, #0]
 800313e:	699b      	ldr	r3, [r3, #24]
 8003140:	43da      	mvns	r2, r3
 8003142:	68bb      	ldr	r3, [r7, #8]
 8003144:	4013      	ands	r3, r2
 8003146:	b29b      	uxth	r3, r3
 8003148:	2b00      	cmp	r3, #0
 800314a:	bf0c      	ite	eq
 800314c:	2301      	moveq	r3, #1
 800314e:	2300      	movne	r3, #0
 8003150:	b2db      	uxtb	r3, r3
 8003152:	461a      	mov	r2, r3
 8003154:	79fb      	ldrb	r3, [r7, #7]
 8003156:	429a      	cmp	r2, r3
 8003158:	d093      	beq.n	8003082 <I2C_WaitOnFlagUntilTimeout+0x12>
        }
      }
    }
  }
  return HAL_OK;
 800315a:	2300      	movs	r3, #0
}
 800315c:	4618      	mov	r0, r3
 800315e:	3710      	adds	r7, #16
 8003160:	46bd      	mov	sp, r7
 8003162:	bd80      	pop	{r7, pc}

08003164 <I2C_WaitOnMasterAddressFlagUntilTimeout>:
  * @param  Timeout Timeout duration
  * @param  Tickstart Tick start value
  * @retval HAL status
  */
static HAL_StatusTypeDef I2C_WaitOnMasterAddressFlagUntilTimeout(I2C_HandleTypeDef *hi2c, uint32_t Flag, uint32_t Timeout, uint32_t Tickstart)
{
 8003164:	b580      	push	{r7, lr}
 8003166:	b084      	sub	sp, #16
 8003168:	af00      	add	r7, sp, #0
 800316a:	60f8      	str	r0, [r7, #12]
 800316c:	60b9      	str	r1, [r7, #8]
 800316e:	607a      	str	r2, [r7, #4]
 8003170:	603b      	str	r3, [r7, #0]
  while (__HAL_I2C_GET_FLAG(hi2c, Flag) == RESET)
 8003172:	e071      	b.n	8003258 <I2C_WaitOnMasterAddressFlagUntilTimeout+0xf4>
  {
    if (__HAL_I2C_GET_FLAG(hi2c, I2C_FLAG_AF) == SET)
 8003174:	68fb      	ldr	r3, [r7, #12]
 8003176:	681b      	ldr	r3, [r3, #0]
 8003178:	695b      	ldr	r3, [r3, #20]
 800317a:	f403 6380 	and.w	r3, r3, #1024	; 0x400
 800317e:	f5b3 6f80 	cmp.w	r3, #1024	; 0x400
 8003182:	d123      	bne.n	80031cc <I2C_WaitOnMasterAddressFlagUntilTimeout+0x68>
    {
      /* Generate Stop */
      SET_BIT(hi2c->Instance->CR1, I2C_CR1_STOP);
 8003184:	68fb      	ldr	r3, [r7, #12]
 8003186:	681b      	ldr	r3, [r3, #0]
 8003188:	681a      	ldr	r2, [r3, #0]
 800318a:	68fb      	ldr	r3, [r7, #12]
 800318c:	681b      	ldr	r3, [r3, #0]
 800318e:	f442 7200 	orr.w	r2, r2, #512	; 0x200
 8003192:	601a      	str	r2, [r3, #0]

      /* Clear AF Flag */
      __HAL_I2C_CLEAR_FLAG(hi2c, I2C_FLAG_AF);
 8003194:	68fb      	ldr	r3, [r7, #12]
 8003196:	681b      	ldr	r3, [r3, #0]
 8003198:	f46f 6280 	mvn.w	r2, #1024	; 0x400
 800319c:	615a      	str	r2, [r3, #20]

      hi2c->PreviousState       = I2C_STATE_NONE;
 800319e:	68fb      	ldr	r3, [r7, #12]
 80031a0:	2200      	movs	r2, #0
 80031a2:	631a      	str	r2, [r3, #48]	; 0x30
      hi2c->State               = HAL_I2C_STATE_READY;
 80031a4:	68fb      	ldr	r3, [r7, #12]
 80031a6:	2220      	movs	r2, #32
 80031a8:	f883 203d 	strb.w	r2, [r3, #61]	; 0x3d
      hi2c->Mode                = HAL_I2C_MODE_NONE;
 80031ac:	68fb      	ldr	r3, [r7, #12]
 80031ae:	2200      	movs	r2, #0
 80031b0:	f883 203e 	strb.w	r2, [r3, #62]	; 0x3e
      hi2c->ErrorCode           |= HAL_I2C_ERROR_AF;
 80031b4:	68fb      	ldr	r3, [r7, #12]
 80031b6:	6c1b      	ldr	r3, [r3, #64]	; 0x40
 80031b8:	f043 0204 	orr.w	r2, r3, #4
 80031bc:	68fb      	ldr	r3, [r7, #12]
 80031be:	641a      	str	r2, [r3, #64]	; 0x40

      /* Process Unlocked */
      __HAL_UNLOCK(hi2c);
 80031c0:	68fb      	ldr	r3, [r7, #12]
 80031c2:	2200      	movs	r2, #0
 80031c4:	f883 203c 	strb.w	r2, [r3, #60]	; 0x3c

      return HAL_ERROR;
 80031c8:	2301      	movs	r3, #1
 80031ca:	e067      	b.n	800329c <I2C_WaitOnMasterAddressFlagUntilTimeout+0x138>
    }

    /* Check for the Timeout */
    if (Timeout != HAL_MAX_DELAY)
 80031cc:	687b      	ldr	r3, [r7, #4]
 80031ce:	f1b3 3fff 	cmp.w	r3, #4294967295
 80031d2:	d041      	beq.n	8003258 <I2C_WaitOnMasterAddressFlagUntilTimeout+0xf4>
    {
      if (((HAL_GetTick() - Tickstart) > Timeout) || (Timeout == 0U))
 80031d4:	f7fe ffc8 	bl	8002168 <HAL_GetTick>
 80031d8:	4602      	mov	r2, r0
 80031da:	683b      	ldr	r3, [r7, #0]
 80031dc:	1ad3      	subs	r3, r2, r3
 80031de:	687a      	ldr	r2, [r7, #4]
 80031e0:	429a      	cmp	r2, r3
 80031e2:	d302      	bcc.n	80031ea <I2C_WaitOnMasterAddressFlagUntilTimeout+0x86>
 80031e4:	687b      	ldr	r3, [r7, #4]
 80031e6:	2b00      	cmp	r3, #0
 80031e8:	d136      	bne.n	8003258 <I2C_WaitOnMasterAddressFlagUntilTimeout+0xf4>
      {
        if ((__HAL_I2C_GET_FLAG(hi2c, Flag) == RESET))
 80031ea:	68bb      	ldr	r3, [r7, #8]
 80031ec:	0c1b      	lsrs	r3, r3, #16
 80031ee:	b2db      	uxtb	r3, r3
 80031f0:	2b01      	cmp	r3, #1
 80031f2:	d10c      	bne.n	800320e <I2C_WaitOnMasterAddressFlagUntilTimeout+0xaa>
 80031f4:	68fb      	ldr	r3, [r7, #12]
 80031f6:	681b      	ldr	r3, [r3, #0]
 80031f8:	695b      	ldr	r3, [r3, #20]
 80031fa:	43da      	mvns	r2, r3
 80031fc:	68bb      	ldr	r3, [r7, #8]
 80031fe:	4013      	ands	r3, r2
 8003200:	b29b      	uxth	r3, r3
 8003202:	2b00      	cmp	r3, #0
 8003204:	bf14      	ite	ne
 8003206:	2301      	movne	r3, #1
 8003208:	2300      	moveq	r3, #0
 800320a:	b2db      	uxtb	r3, r3
 800320c:	e00b      	b.n	8003226 <I2C_WaitOnMasterAddressFlagUntilTimeout+0xc2>
 800320e:	68fb      	ldr	r3, [r7, #12]
 8003210:	681b      	ldr	r3, [r3, #0]
 8003212:	699b      	ldr	r3, [r3, #24]
 8003214:	43da      	mvns	r2, r3
 8003216:	68bb      	ldr	r3, [r7, #8]
 8003218:	4013      	ands	r3, r2
 800321a:	b29b      	uxth	r3, r3
 800321c:	2b00      	cmp	r3, #0
 800321e:	bf14      	ite	ne
 8003220:	2301      	movne	r3, #1
 8003222:	2300      	moveq	r3, #0
 8003224:	b2db      	uxtb	r3, r3
 8003226:	2b00      	cmp	r3, #0
 8003228:	d016      	beq.n	8003258 <I2C_WaitOnMasterAddressFlagUntilTimeout+0xf4>
        {
          hi2c->PreviousState       = I2C_STATE_NONE;
 800322a:	68fb      	ldr	r3, [r7, #12]
 800322c:	2200      	movs	r2, #0
 800322e:	631a      	str	r2, [r3, #48]	; 0x30
          hi2c->State               = HAL_I2C_STATE_READY;
 8003230:	68fb      	ldr	r3, [r7, #12]
 8003232:	2220      	movs	r2, #32
 8003234:	f883 203d 	strb.w	r2, [r3, #61]	; 0x3d
          hi2c->Mode                = HAL_I2C_MODE_NONE;
 8003238:	68fb      	ldr	r3, [r7, #12]
 800323a:	2200      	movs	r2, #0
 800323c:	f883 203e 	strb.w	r2, [r3, #62]	; 0x3e
          hi2c->ErrorCode           |= HAL_I2C_ERROR_TIMEOUT;
 8003240:	68fb      	ldr	r3, [r7, #12]
 8003242:	6c1b      	ldr	r3, [r3, #64]	; 0x40
 8003244:	f043 0220 	orr.w	r2, r3, #32
 8003248:	68fb      	ldr	r3, [r7, #12]
 800324a:	641a      	str	r2, [r3, #64]	; 0x40

          /* Process Unlocked */
          __HAL_UNLOCK(hi2c);
 800324c:	68fb      	ldr	r3, [r7, #12]
 800324e:	2200      	movs	r2, #0
 8003250:	f883 203c 	strb.w	r2, [r3, #60]	; 0x3c

          return HAL_ERROR;
 8003254:	2301      	movs	r3, #1
 8003256:	e021      	b.n	800329c <I2C_WaitOnMasterAddressFlagUntilTimeout+0x138>
  while (__HAL_I2C_GET_FLAG(hi2c, Flag) == RESET)
 8003258:	68bb      	ldr	r3, [r7, #8]
 800325a:	0c1b      	lsrs	r3, r3, #16
 800325c:	b2db      	uxtb	r3, r3
 800325e:	2b01      	cmp	r3, #1
 8003260:	d10c      	bne.n	800327c <I2C_WaitOnMasterAddressFlagUntilTimeout+0x118>
 8003262:	68fb      	ldr	r3, [r7, #12]
 8003264:	681b      	ldr	r3, [r3, #0]
 8003266:	695b      	ldr	r3, [r3, #20]
 8003268:	43da      	mvns	r2, r3
 800326a:	68bb      	ldr	r3, [r7, #8]
 800326c:	4013      	ands	r3, r2
 800326e:	b29b      	uxth	r3, r3
 8003270:	2b00      	cmp	r3, #0
 8003272:	bf14      	ite	ne
 8003274:	2301      	movne	r3, #1
 8003276:	2300      	moveq	r3, #0
 8003278:	b2db      	uxtb	r3, r3
 800327a:	e00b      	b.n	8003294 <I2C_WaitOnMasterAddressFlagUntilTimeout+0x130>
 800327c:	68fb      	ldr	r3, [r7, #12]
 800327e:	681b      	ldr	r3, [r3, #0]
 8003280:	699b      	ldr	r3, [r3, #24]
 8003282:	43da      	mvns	r2, r3
 8003284:	68bb      	ldr	r3, [r7, #8]
 8003286:	4013      	ands	r3, r2
 8003288:	b29b      	uxth	r3, r3
 800328a:	2b00      	cmp	r3, #0
 800328c:	bf14      	ite	ne
 800328e:	2301      	movne	r3, #1
 8003290:	2300      	moveq	r3, #0
 8003292:	b2db      	uxtb	r3, r3
 8003294:	2b00      	cmp	r3, #0
 8003296:	f47f af6d 	bne.w	8003174 <I2C_WaitOnMasterAddressFlagUntilTimeout+0x10>
        }
      }
    }
  }
  return HAL_OK;
 800329a:	2300      	movs	r3, #0
}
 800329c:	4618      	mov	r0, r3
 800329e:	3710      	adds	r7, #16
 80032a0:	46bd      	mov	sp, r7
 80032a2:	bd80      	pop	{r7, pc}

080032a4 <I2C_WaitOnTXEFlagUntilTimeout>:
  * @param  Timeout Timeout duration
  * @param  Tickstart Tick start value
  * @retval HAL status
  */
static HAL_StatusTypeDef I2C_WaitOnTXEFlagUntilTimeout(I2C_HandleTypeDef *hi2c, uint32_t Timeout, uint32_t Tickstart)
{
 80032a4:	b580      	push	{r7, lr}
 80032a6:	b084      	sub	sp, #16
 80032a8:	af00      	add	r7, sp, #0
 80032aa:	60f8      	str	r0, [r7, #12]
 80032ac:	60b9      	str	r1, [r7, #8]
 80032ae:	607a      	str	r2, [r7, #4]
  while (__HAL_I2C_GET_FLAG(hi2c, I2C_FLAG_TXE) == RESET)
 80032b0:	e034      	b.n	800331c <I2C_WaitOnTXEFlagUntilTimeout+0x78>
  {
    /* Check if a NACK is detected */
    if (I2C_IsAcknowledgeFailed(hi2c) != HAL_OK)
 80032b2:	68f8      	ldr	r0, [r7, #12]
 80032b4:	f000 f886 	bl	80033c4 <I2C_IsAcknowledgeFailed>
 80032b8:	4603      	mov	r3, r0
 80032ba:	2b00      	cmp	r3, #0
 80032bc:	d001      	beq.n	80032c2 <I2C_WaitOnTXEFlagUntilTimeout+0x1e>
    {
      return HAL_ERROR;
 80032be:	2301      	movs	r3, #1
 80032c0:	e034      	b.n	800332c <I2C_WaitOnTXEFlagUntilTimeout+0x88>
    }

    /* Check for the Timeout */
    if (Timeout != HAL_MAX_DELAY)
 80032c2:	68bb      	ldr	r3, [r7, #8]
 80032c4:	f1b3 3fff 	cmp.w	r3, #4294967295
 80032c8:	d028      	beq.n	800331c <I2C_WaitOnTXEFlagUntilTimeout+0x78>
    {
      if (((HAL_GetTick() - Tickstart) > Timeout) || (Timeout == 0U))
 80032ca:	f7fe ff4d 	bl	8002168 <HAL_GetTick>
 80032ce:	4602      	mov	r2, r0
 80032d0:	687b      	ldr	r3, [r7, #4]
 80032d2:	1ad3      	subs	r3, r2, r3
 80032d4:	68ba      	ldr	r2, [r7, #8]
 80032d6:	429a      	cmp	r2, r3
 80032d8:	d302      	bcc.n	80032e0 <I2C_WaitOnTXEFlagUntilTimeout+0x3c>
 80032da:	68bb      	ldr	r3, [r7, #8]
 80032dc:	2b00      	cmp	r3, #0
 80032de:	d11d      	bne.n	800331c <I2C_WaitOnTXEFlagUntilTimeout+0x78>
      {
        if ((__HAL_I2C_GET_FLAG(hi2c, I2C_FLAG_TXE) == RESET))
 80032e0:	68fb      	ldr	r3, [r7, #12]
 80032e2:	681b      	ldr	r3, [r3, #0]
 80032e4:	695b      	ldr	r3, [r3, #20]
 80032e6:	f003 0380 	and.w	r3, r3, #128	; 0x80
 80032ea:	2b80      	cmp	r3, #128	; 0x80
 80032ec:	d016      	beq.n	800331c <I2C_WaitOnTXEFlagUntilTimeout+0x78>
        {
          hi2c->PreviousState       = I2C_STATE_NONE;
 80032ee:	68fb      	ldr	r3, [r7, #12]
 80032f0:	2200      	movs	r2, #0
 80032f2:	631a      	str	r2, [r3, #48]	; 0x30
          hi2c->State               = HAL_I2C_STATE_READY;
 80032f4:	68fb      	ldr	r3, [r7, #12]
 80032f6:	2220      	movs	r2, #32
 80032f8:	f883 203d 	strb.w	r2, [r3, #61]	; 0x3d
          hi2c->Mode                = HAL_I2C_MODE_NONE;
 80032fc:	68fb      	ldr	r3, [r7, #12]
 80032fe:	2200      	movs	r2, #0
 8003300:	f883 203e 	strb.w	r2, [r3, #62]	; 0x3e
          hi2c->ErrorCode           |= HAL_I2C_ERROR_TIMEOUT;
 8003304:	68fb      	ldr	r3, [r7, #12]
 8003306:	6c1b      	ldr	r3, [r3, #64]	; 0x40
 8003308:	f043 0220 	orr.w	r2, r3, #32
 800330c:	68fb      	ldr	r3, [r7, #12]
 800330e:	641a      	str	r2, [r3, #64]	; 0x40

          /* Process Unlocked */
          __HAL_UNLOCK(hi2c);
 8003310:	68fb      	ldr	r3, [r7, #12]
 8003312:	2200      	movs	r2, #0
 8003314:	f883 203c 	strb.w	r2, [r3, #60]	; 0x3c

          return HAL_ERROR;
 8003318:	2301      	movs	r3, #1
 800331a:	e007      	b.n	800332c <I2C_WaitOnTXEFlagUntilTimeout+0x88>
  while (__HAL_I2C_GET_FLAG(hi2c, I2C_FLAG_TXE) == RESET)
 800331c:	68fb      	ldr	r3, [r7, #12]
 800331e:	681b      	ldr	r3, [r3, #0]
 8003320:	695b      	ldr	r3, [r3, #20]
 8003322:	f003 0380 	and.w	r3, r3, #128	; 0x80
 8003326:	2b80      	cmp	r3, #128	; 0x80
 8003328:	d1c3      	bne.n	80032b2 <I2C_WaitOnTXEFlagUntilTimeout+0xe>
        }
      }
    }
  }
  return HAL_OK;
 800332a:	2300      	movs	r3, #0
}
 800332c:	4618      	mov	r0, r3
 800332e:	3710      	adds	r7, #16
 8003330:	46bd      	mov	sp, r7
 8003332:	bd80      	pop	{r7, pc}

08003334 <I2C_WaitOnBTFFlagUntilTimeout>:
  * @param  Timeout Timeout duration
  * @param  Tickstart Tick start value
  * @retval HAL status
  */
static HAL_StatusTypeDef I2C_WaitOnBTFFlagUntilTimeout(I2C_HandleTypeDef *hi2c, uint32_t Timeout, uint32_t Tickstart)
{
 8003334:	b580      	push	{r7, lr}
 8003336:	b084      	sub	sp, #16
 8003338:	af00      	add	r7, sp, #0
 800333a:	60f8      	str	r0, [r7, #12]
 800333c:	60b9      	str	r1, [r7, #8]
 800333e:	607a      	str	r2, [r7, #4]
  while (__HAL_I2C_GET_FLAG(hi2c, I2C_FLAG_BTF) == RESET)
 8003340:	e034      	b.n	80033ac <I2C_WaitOnBTFFlagUntilTimeout+0x78>
  {
    /* Check if a NACK is detected */
    if (I2C_IsAcknowledgeFailed(hi2c) != HAL_OK)
 8003342:	68f8      	ldr	r0, [r7, #12]
 8003344:	f000 f83e 	bl	80033c4 <I2C_IsAcknowledgeFailed>
 8003348:	4603      	mov	r3, r0
 800334a:	2b00      	cmp	r3, #0
 800334c:	d001      	beq.n	8003352 <I2C_WaitOnBTFFlagUntilTimeout+0x1e>
    {
      return HAL_ERROR;
 800334e:	2301      	movs	r3, #1
 8003350:	e034      	b.n	80033bc <I2C_WaitOnBTFFlagUntilTimeout+0x88>
    }

    /* Check for the Timeout */
    if (Timeout != HAL_MAX_DELAY)
 8003352:	68bb      	ldr	r3, [r7, #8]
 8003354:	f1b3 3fff 	cmp.w	r3, #4294967295
 8003358:	d028      	beq.n	80033ac <I2C_WaitOnBTFFlagUntilTimeout+0x78>
    {
      if (((HAL_GetTick() - Tickstart) > Timeout) || (Timeout == 0U))
 800335a:	f7fe ff05 	bl	8002168 <HAL_GetTick>
 800335e:	4602      	mov	r2, r0
 8003360:	687b      	ldr	r3, [r7, #4]
 8003362:	1ad3      	subs	r3, r2, r3
 8003364:	68ba      	ldr	r2, [r7, #8]
 8003366:	429a      	cmp	r2, r3
 8003368:	d302      	bcc.n	8003370 <I2C_WaitOnBTFFlagUntilTimeout+0x3c>
 800336a:	68bb      	ldr	r3, [r7, #8]
 800336c:	2b00      	cmp	r3, #0
 800336e:	d11d      	bne.n	80033ac <I2C_WaitOnBTFFlagUntilTimeout+0x78>
      {
        if ((__HAL_I2C_GET_FLAG(hi2c, I2C_FLAG_BTF) == RESET))
 8003370:	68fb      	ldr	r3, [r7, #12]
 8003372:	681b      	ldr	r3, [r3, #0]
 8003374:	695b      	ldr	r3, [r3, #20]
 8003376:	f003 0304 	and.w	r3, r3, #4
 800337a:	2b04      	cmp	r3, #4
 800337c:	d016      	beq.n	80033ac <I2C_WaitOnBTFFlagUntilTimeout+0x78>
        {
          hi2c->PreviousState       = I2C_STATE_NONE;
 800337e:	68fb      	ldr	r3, [r7, #12]
 8003380:	2200      	movs	r2, #0
 8003382:	631a      	str	r2, [r3, #48]	; 0x30
          hi2c->State               = HAL_I2C_STATE_READY;
 8003384:	68fb      	ldr	r3, [r7, #12]
 8003386:	2220      	movs	r2, #32
 8003388:	f883 203d 	strb.w	r2, [r3, #61]	; 0x3d
          hi2c->Mode                = HAL_I2C_MODE_NONE;
 800338c:	68fb      	ldr	r3, [r7, #12]
 800338e:	2200      	movs	r2, #0
 8003390:	f883 203e 	strb.w	r2, [r3, #62]	; 0x3e
          hi2c->ErrorCode           |= HAL_I2C_ERROR_TIMEOUT;
 8003394:	68fb      	ldr	r3, [r7, #12]
 8003396:	6c1b      	ldr	r3, [r3, #64]	; 0x40
 8003398:	f043 0220 	orr.w	r2, r3, #32
 800339c:	68fb      	ldr	r3, [r7, #12]
 800339e:	641a      	str	r2, [r3, #64]	; 0x40

          /* Process Unlocked */
          __HAL_UNLOCK(hi2c);
 80033a0:	68fb      	ldr	r3, [r7, #12]
 80033a2:	2200      	movs	r2, #0
 80033a4:	f883 203c 	strb.w	r2, [r3, #60]	; 0x3c

          return HAL_ERROR;
 80033a8:	2301      	movs	r3, #1
 80033aa:	e007      	b.n	80033bc <I2C_WaitOnBTFFlagUntilTimeout+0x88>
  while (__HAL_I2C_GET_FLAG(hi2c, I2C_FLAG_BTF) == RESET)
 80033ac:	68fb      	ldr	r3, [r7, #12]
 80033ae:	681b      	ldr	r3, [r3, #0]
 80033b0:	695b      	ldr	r3, [r3, #20]
 80033b2:	f003 0304 	and.w	r3, r3, #4
 80033b6:	2b04      	cmp	r3, #4
 80033b8:	d1c3      	bne.n	8003342 <I2C_WaitOnBTFFlagUntilTimeout+0xe>
        }
      }
    }
  }
  return HAL_OK;
 80033ba:	2300      	movs	r3, #0
}
 80033bc:	4618      	mov	r0, r3
 80033be:	3710      	adds	r7, #16
 80033c0:	46bd      	mov	sp, r7
 80033c2:	bd80      	pop	{r7, pc}

080033c4 <I2C_IsAcknowledgeFailed>:
  * @param  hi2c Pointer to a I2C_HandleTypeDef structure that contains
  *                the configuration information for the specified I2C.
  * @retval HAL status
  */
static HAL_StatusTypeDef I2C_IsAcknowledgeFailed(I2C_HandleTypeDef *hi2c)
{
 80033c4:	b480      	push	{r7}
 80033c6:	b083      	sub	sp, #12
 80033c8:	af00      	add	r7, sp, #0
 80033ca:	6078      	str	r0, [r7, #4]
  if (__HAL_I2C_GET_FLAG(hi2c, I2C_FLAG_AF) == SET)
 80033cc:	687b      	ldr	r3, [r7, #4]
 80033ce:	681b      	ldr	r3, [r3, #0]
 80033d0:	695b      	ldr	r3, [r3, #20]
 80033d2:	f403 6380 	and.w	r3, r3, #1024	; 0x400
 80033d6:	f5b3 6f80 	cmp.w	r3, #1024	; 0x400
 80033da:	d11b      	bne.n	8003414 <I2C_IsAcknowledgeFailed+0x50>
  {
    /* Clear NACKF Flag */
    __HAL_I2C_CLEAR_FLAG(hi2c, I2C_FLAG_AF);
 80033dc:	687b      	ldr	r3, [r7, #4]
 80033de:	681b      	ldr	r3, [r3, #0]
 80033e0:	f46f 6280 	mvn.w	r2, #1024	; 0x400
 80033e4:	615a      	str	r2, [r3, #20]

    hi2c->PreviousState       = I2C_STATE_NONE;
 80033e6:	687b      	ldr	r3, [r7, #4]
 80033e8:	2200      	movs	r2, #0
 80033ea:	631a      	str	r2, [r3, #48]	; 0x30
    hi2c->State               = HAL_I2C_STATE_READY;
 80033ec:	687b      	ldr	r3, [r7, #4]
 80033ee:	2220      	movs	r2, #32
 80033f0:	f883 203d 	strb.w	r2, [r3, #61]	; 0x3d
    hi2c->Mode                = HAL_I2C_MODE_NONE;
 80033f4:	687b      	ldr	r3, [r7, #4]
 80033f6:	2200      	movs	r2, #0
 80033f8:	f883 203e 	strb.w	r2, [r3, #62]	; 0x3e
    hi2c->ErrorCode           |= HAL_I2C_ERROR_AF;
 80033fc:	687b      	ldr	r3, [r7, #4]
 80033fe:	6c1b      	ldr	r3, [r3, #64]	; 0x40
 8003400:	f043 0204 	orr.w	r2, r3, #4
 8003404:	687b      	ldr	r3, [r7, #4]
 8003406:	641a      	str	r2, [r3, #64]	; 0x40

    /* Process Unlocked */
    __HAL_UNLOCK(hi2c);
 8003408:	687b      	ldr	r3, [r7, #4]
 800340a:	2200      	movs	r2, #0
 800340c:	f883 203c 	strb.w	r2, [r3, #60]	; 0x3c

    return HAL_ERROR;
 8003410:	2301      	movs	r3, #1
 8003412:	e000      	b.n	8003416 <I2C_IsAcknowledgeFailed+0x52>
  }
  return HAL_OK;
 8003414:	2300      	movs	r3, #0
}
 8003416:	4618      	mov	r0, r3
 8003418:	370c      	adds	r7, #12
 800341a:	46bd      	mov	sp, r7
 800341c:	bc80      	pop	{r7}
 800341e:	4770      	bx	lr

08003420 <HAL_RCC_OscConfig>:
  *         supported by this macro. User should request a transition to HSE Off
  *         first and then HSE On or HSE Bypass.
  * @retval HAL status
  */
HAL_StatusTypeDef HAL_RCC_OscConfig(RCC_OscInitTypeDef  *RCC_OscInitStruct)
{
 8003420:	b580      	push	{r7, lr}
 8003422:	b088      	sub	sp, #32
 8003424:	af00      	add	r7, sp, #0
 8003426:	6078      	str	r0, [r7, #4]
  uint32_t tickstart;
  HAL_StatusTypeDef status;
  uint32_t sysclk_source, pll_config;

  /* Check the parameters */
  if(RCC_OscInitStruct == NULL)
 8003428:	687b      	ldr	r3, [r7, #4]
 800342a:	2b00      	cmp	r3, #0
 800342c:	d101      	bne.n	8003432 <HAL_RCC_OscConfig+0x12>
  {
    return HAL_ERROR;
 800342e:	2301      	movs	r3, #1
 8003430:	e31d      	b.n	8003a6e <HAL_RCC_OscConfig+0x64e>
  }

  assert_param(IS_RCC_OSCILLATORTYPE(RCC_OscInitStruct->OscillatorType));

  sysclk_source = __HAL_RCC_GET_SYSCLK_SOURCE();
 8003432:	4b94      	ldr	r3, [pc, #592]	; (8003684 <HAL_RCC_OscConfig+0x264>)
 8003434:	689b      	ldr	r3, [r3, #8]
 8003436:	f003 030c 	and.w	r3, r3, #12
 800343a:	61bb      	str	r3, [r7, #24]
  pll_config = __HAL_RCC_GET_PLL_OSCSOURCE();
 800343c:	4b91      	ldr	r3, [pc, #580]	; (8003684 <HAL_RCC_OscConfig+0x264>)
 800343e:	689b      	ldr	r3, [r3, #8]
 8003440:	f403 3380 	and.w	r3, r3, #65536	; 0x10000
 8003444:	617b      	str	r3, [r7, #20]

  /*------------------------------- HSE Configuration ------------------------*/
  if(((RCC_OscInitStruct->OscillatorType) & RCC_OSCILLATORTYPE_HSE) == RCC_OSCILLATORTYPE_HSE)
 8003446:	687b      	ldr	r3, [r7, #4]
 8003448:	681b      	ldr	r3, [r3, #0]
 800344a:	f003 0301 	and.w	r3, r3, #1
 800344e:	2b00      	cmp	r3, #0
 8003450:	d07b      	beq.n	800354a <HAL_RCC_OscConfig+0x12a>
  {
    /* Check the parameters */
    assert_param(IS_RCC_HSE(RCC_OscInitStruct->HSEState));

    /* When the HSE is used as system clock or clock source for PLL in these cases it is not allowed to be disabled */
    if((sysclk_source == RCC_SYSCLKSOURCE_STATUS_HSE)
 8003452:	69bb      	ldr	r3, [r7, #24]
 8003454:	2b08      	cmp	r3, #8
 8003456:	d006      	beq.n	8003466 <HAL_RCC_OscConfig+0x46>
       || ((sysclk_source == RCC_SYSCLKSOURCE_STATUS_PLLCLK) && (pll_config == RCC_PLLSOURCE_HSE)))
 8003458:	69bb      	ldr	r3, [r7, #24]
 800345a:	2b0c      	cmp	r3, #12
 800345c:	d10f      	bne.n	800347e <HAL_RCC_OscConfig+0x5e>
 800345e:	697b      	ldr	r3, [r7, #20]
 8003460:	f5b3 3f80 	cmp.w	r3, #65536	; 0x10000
 8003464:	d10b      	bne.n	800347e <HAL_RCC_OscConfig+0x5e>
    {
      if((__HAL_RCC_GET_FLAG(RCC_FLAG_HSERDY) != 0U) && (RCC_OscInitStruct->HSEState == RCC_HSE_OFF))
 8003466:	4b87      	ldr	r3, [pc, #540]	; (8003684 <HAL_RCC_OscConfig+0x264>)
 8003468:	681b      	ldr	r3, [r3, #0]
 800346a:	f403 3300 	and.w	r3, r3, #131072	; 0x20000
 800346e:	2b00      	cmp	r3, #0
 8003470:	d06a      	beq.n	8003548 <HAL_RCC_OscConfig+0x128>
 8003472:	687b      	ldr	r3, [r7, #4]
 8003474:	685b      	ldr	r3, [r3, #4]
 8003476:	2b00      	cmp	r3, #0
 8003478:	d166      	bne.n	8003548 <HAL_RCC_OscConfig+0x128>
      {
        return HAL_ERROR;
 800347a:	2301      	movs	r3, #1
 800347c:	e2f7      	b.n	8003a6e <HAL_RCC_OscConfig+0x64e>
      }
    }
    else
    {
      /* Set the new HSE configuration ---------------------------------------*/
      __HAL_RCC_HSE_CONFIG(RCC_OscInitStruct->HSEState);
 800347e:	687b      	ldr	r3, [r7, #4]
 8003480:	685b      	ldr	r3, [r3, #4]
 8003482:	2b01      	cmp	r3, #1
 8003484:	d106      	bne.n	8003494 <HAL_RCC_OscConfig+0x74>
 8003486:	4b7f      	ldr	r3, [pc, #508]	; (8003684 <HAL_RCC_OscConfig+0x264>)
 8003488:	681b      	ldr	r3, [r3, #0]
 800348a:	4a7e      	ldr	r2, [pc, #504]	; (8003684 <HAL_RCC_OscConfig+0x264>)
 800348c:	f443 3380 	orr.w	r3, r3, #65536	; 0x10000
 8003490:	6013      	str	r3, [r2, #0]
 8003492:	e02d      	b.n	80034f0 <HAL_RCC_OscConfig+0xd0>
 8003494:	687b      	ldr	r3, [r7, #4]
 8003496:	685b      	ldr	r3, [r3, #4]
 8003498:	2b00      	cmp	r3, #0
 800349a:	d10c      	bne.n	80034b6 <HAL_RCC_OscConfig+0x96>
 800349c:	4b79      	ldr	r3, [pc, #484]	; (8003684 <HAL_RCC_OscConfig+0x264>)
 800349e:	681b      	ldr	r3, [r3, #0]
 80034a0:	4a78      	ldr	r2, [pc, #480]	; (8003684 <HAL_RCC_OscConfig+0x264>)
 80034a2:	f423 3380 	bic.w	r3, r3, #65536	; 0x10000
 80034a6:	6013      	str	r3, [r2, #0]
 80034a8:	4b76      	ldr	r3, [pc, #472]	; (8003684 <HAL_RCC_OscConfig+0x264>)
 80034aa:	681b      	ldr	r3, [r3, #0]
 80034ac:	4a75      	ldr	r2, [pc, #468]	; (8003684 <HAL_RCC_OscConfig+0x264>)
 80034ae:	f423 2380 	bic.w	r3, r3, #262144	; 0x40000
 80034b2:	6013      	str	r3, [r2, #0]
 80034b4:	e01c      	b.n	80034f0 <HAL_RCC_OscConfig+0xd0>
 80034b6:	687b      	ldr	r3, [r7, #4]
 80034b8:	685b      	ldr	r3, [r3, #4]
 80034ba:	2b05      	cmp	r3, #5
 80034bc:	d10c      	bne.n	80034d8 <HAL_RCC_OscConfig+0xb8>
 80034be:	4b71      	ldr	r3, [pc, #452]	; (8003684 <HAL_RCC_OscConfig+0x264>)
 80034c0:	681b      	ldr	r3, [r3, #0]
 80034c2:	4a70      	ldr	r2, [pc, #448]	; (8003684 <HAL_RCC_OscConfig+0x264>)
 80034c4:	f443 2380 	orr.w	r3, r3, #262144	; 0x40000
 80034c8:	6013      	str	r3, [r2, #0]
 80034ca:	4b6e      	ldr	r3, [pc, #440]	; (8003684 <HAL_RCC_OscConfig+0x264>)
 80034cc:	681b      	ldr	r3, [r3, #0]
 80034ce:	4a6d      	ldr	r2, [pc, #436]	; (8003684 <HAL_RCC_OscConfig+0x264>)
 80034d0:	f443 3380 	orr.w	r3, r3, #65536	; 0x10000
 80034d4:	6013      	str	r3, [r2, #0]
 80034d6:	e00b      	b.n	80034f0 <HAL_RCC_OscConfig+0xd0>
 80034d8:	4b6a      	ldr	r3, [pc, #424]	; (8003684 <HAL_RCC_OscConfig+0x264>)
 80034da:	681b      	ldr	r3, [r3, #0]
 80034dc:	4a69      	ldr	r2, [pc, #420]	; (8003684 <HAL_RCC_OscConfig+0x264>)
 80034de:	f423 3380 	bic.w	r3, r3, #65536	; 0x10000
 80034e2:	6013      	str	r3, [r2, #0]
 80034e4:	4b67      	ldr	r3, [pc, #412]	; (8003684 <HAL_RCC_OscConfig+0x264>)
 80034e6:	681b      	ldr	r3, [r3, #0]
 80034e8:	4a66      	ldr	r2, [pc, #408]	; (8003684 <HAL_RCC_OscConfig+0x264>)
 80034ea:	f423 2380 	bic.w	r3, r3, #262144	; 0x40000
 80034ee:	6013      	str	r3, [r2, #0]

      /* Check the HSE State */
      if(RCC_OscInitStruct->HSEState != RCC_HSE_OFF)
 80034f0:	687b      	ldr	r3, [r7, #4]
 80034f2:	685b      	ldr	r3, [r3, #4]
 80034f4:	2b00      	cmp	r3, #0
 80034f6:	d013      	beq.n	8003520 <HAL_RCC_OscConfig+0x100>
      {
        /* Get Start Tick */
        tickstart = HAL_GetTick();
 80034f8:	f7fe fe36 	bl	8002168 <HAL_GetTick>
 80034fc:	6138      	str	r0, [r7, #16]

        /* Wait till HSE is ready */
        while(__HAL_RCC_GET_FLAG(RCC_FLAG_HSERDY) == 0U)
 80034fe:	e008      	b.n	8003512 <HAL_RCC_OscConfig+0xf2>
        {
          if((HAL_GetTick() - tickstart ) > HSE_TIMEOUT_VALUE)
 8003500:	f7fe fe32 	bl	8002168 <HAL_GetTick>
 8003504:	4602      	mov	r2, r0
 8003506:	693b      	ldr	r3, [r7, #16]
 8003508:	1ad3      	subs	r3, r2, r3
 800350a:	2b64      	cmp	r3, #100	; 0x64
 800350c:	d901      	bls.n	8003512 <HAL_RCC_OscConfig+0xf2>
          {
            return HAL_TIMEOUT;
 800350e:	2303      	movs	r3, #3
 8003510:	e2ad      	b.n	8003a6e <HAL_RCC_OscConfig+0x64e>
        while(__HAL_RCC_GET_FLAG(RCC_FLAG_HSERDY) == 0U)
 8003512:	4b5c      	ldr	r3, [pc, #368]	; (8003684 <HAL_RCC_OscConfig+0x264>)
 8003514:	681b      	ldr	r3, [r3, #0]
 8003516:	f403 3300 	and.w	r3, r3, #131072	; 0x20000
 800351a:	2b00      	cmp	r3, #0
 800351c:	d0f0      	beq.n	8003500 <HAL_RCC_OscConfig+0xe0>
 800351e:	e014      	b.n	800354a <HAL_RCC_OscConfig+0x12a>
        }
      }
      else
      {
        /* Get Start Tick */
        tickstart = HAL_GetTick();
 8003520:	f7fe fe22 	bl	8002168 <HAL_GetTick>
 8003524:	6138      	str	r0, [r7, #16]

        /* Wait till HSE is disabled */
        while(__HAL_RCC_GET_FLAG(RCC_FLAG_HSERDY) != 0U)
 8003526:	e008      	b.n	800353a <HAL_RCC_OscConfig+0x11a>
        {
           if((HAL_GetTick() - tickstart ) > HSE_TIMEOUT_VALUE)
 8003528:	f7fe fe1e 	bl	8002168 <HAL_GetTick>
 800352c:	4602      	mov	r2, r0
 800352e:	693b      	ldr	r3, [r7, #16]
 8003530:	1ad3      	subs	r3, r2, r3
 8003532:	2b64      	cmp	r3, #100	; 0x64
 8003534:	d901      	bls.n	800353a <HAL_RCC_OscConfig+0x11a>
          {
            return HAL_TIMEOUT;
 8003536:	2303      	movs	r3, #3
 8003538:	e299      	b.n	8003a6e <HAL_RCC_OscConfig+0x64e>
        while(__HAL_RCC_GET_FLAG(RCC_FLAG_HSERDY) != 0U)
 800353a:	4b52      	ldr	r3, [pc, #328]	; (8003684 <HAL_RCC_OscConfig+0x264>)
 800353c:	681b      	ldr	r3, [r3, #0]
 800353e:	f403 3300 	and.w	r3, r3, #131072	; 0x20000
 8003542:	2b00      	cmp	r3, #0
 8003544:	d1f0      	bne.n	8003528 <HAL_RCC_OscConfig+0x108>
 8003546:	e000      	b.n	800354a <HAL_RCC_OscConfig+0x12a>
      if((__HAL_RCC_GET_FLAG(RCC_FLAG_HSERDY) != 0U) && (RCC_OscInitStruct->HSEState == RCC_HSE_OFF))
 8003548:	bf00      	nop
        }
      }
    }
  }
  /*----------------------------- HSI Configuration --------------------------*/
  if(((RCC_OscInitStruct->OscillatorType) & RCC_OSCILLATORTYPE_HSI) == RCC_OSCILLATORTYPE_HSI)
 800354a:	687b      	ldr	r3, [r7, #4]
 800354c:	681b      	ldr	r3, [r3, #0]
 800354e:	f003 0302 	and.w	r3, r3, #2
 8003552:	2b00      	cmp	r3, #0
 8003554:	d05a      	beq.n	800360c <HAL_RCC_OscConfig+0x1ec>
    /* Check the parameters */
    assert_param(IS_RCC_HSI(RCC_OscInitStruct->HSIState));
    assert_param(IS_RCC_CALIBRATION_VALUE(RCC_OscInitStruct->HSICalibrationValue));

    /* Check if HSI is used as system clock or as PLL source when PLL is selected as system clock */
    if((sysclk_source == RCC_SYSCLKSOURCE_STATUS_HSI)
 8003556:	69bb      	ldr	r3, [r7, #24]
 8003558:	2b04      	cmp	r3, #4
 800355a:	d005      	beq.n	8003568 <HAL_RCC_OscConfig+0x148>
       || ((sysclk_source == RCC_SYSCLKSOURCE_STATUS_PLLCLK) && (pll_config == RCC_PLLSOURCE_HSI)))
 800355c:	69bb      	ldr	r3, [r7, #24]
 800355e:	2b0c      	cmp	r3, #12
 8003560:	d119      	bne.n	8003596 <HAL_RCC_OscConfig+0x176>
 8003562:	697b      	ldr	r3, [r7, #20]
 8003564:	2b00      	cmp	r3, #0
 8003566:	d116      	bne.n	8003596 <HAL_RCC_OscConfig+0x176>
    {
      /* When HSI is used as system clock it will not disabled */
      if((__HAL_RCC_GET_FLAG(RCC_FLAG_HSIRDY) != 0U) && (RCC_OscInitStruct->HSIState != RCC_HSI_ON))
 8003568:	4b46      	ldr	r3, [pc, #280]	; (8003684 <HAL_RCC_OscConfig+0x264>)
 800356a:	681b      	ldr	r3, [r3, #0]
 800356c:	f003 0302 	and.w	r3, r3, #2
 8003570:	2b00      	cmp	r3, #0
 8003572:	d005      	beq.n	8003580 <HAL_RCC_OscConfig+0x160>
 8003574:	687b      	ldr	r3, [r7, #4]
 8003576:	68db      	ldr	r3, [r3, #12]
 8003578:	2b01      	cmp	r3, #1
 800357a:	d001      	beq.n	8003580 <HAL_RCC_OscConfig+0x160>
      {
        return HAL_ERROR;
 800357c:	2301      	movs	r3, #1
 800357e:	e276      	b.n	8003a6e <HAL_RCC_OscConfig+0x64e>
      }
      /* Otherwise, just the calibration is allowed */
      else
      {
        /* Adjusts the Internal High Speed oscillator (HSI) calibration value.*/
        __HAL_RCC_HSI_CALIBRATIONVALUE_ADJUST(RCC_OscInitStruct->HSICalibrationValue);
 8003580:	4b40      	ldr	r3, [pc, #256]	; (8003684 <HAL_RCC_OscConfig+0x264>)
 8003582:	685b      	ldr	r3, [r3, #4]
 8003584:	f423 52f8 	bic.w	r2, r3, #7936	; 0x1f00
 8003588:	687b      	ldr	r3, [r7, #4]
 800358a:	691b      	ldr	r3, [r3, #16]
 800358c:	021b      	lsls	r3, r3, #8
 800358e:	493d      	ldr	r1, [pc, #244]	; (8003684 <HAL_RCC_OscConfig+0x264>)
 8003590:	4313      	orrs	r3, r2
 8003592:	604b      	str	r3, [r1, #4]
      if((__HAL_RCC_GET_FLAG(RCC_FLAG_HSIRDY) != 0U) && (RCC_OscInitStruct->HSIState != RCC_HSI_ON))
 8003594:	e03a      	b.n	800360c <HAL_RCC_OscConfig+0x1ec>
      }
    }
    else
    {
      /* Check the HSI State */
      if(RCC_OscInitStruct->HSIState != RCC_HSI_OFF)
 8003596:	687b      	ldr	r3, [r7, #4]
 8003598:	68db      	ldr	r3, [r3, #12]
 800359a:	2b00      	cmp	r3, #0
 800359c:	d020      	beq.n	80035e0 <HAL_RCC_OscConfig+0x1c0>
      {
        /* Enable the Internal High Speed oscillator (HSI). */
        __HAL_RCC_HSI_ENABLE();
 800359e:	4b3a      	ldr	r3, [pc, #232]	; (8003688 <HAL_RCC_OscConfig+0x268>)
 80035a0:	2201      	movs	r2, #1
 80035a2:	601a      	str	r2, [r3, #0]

        /* Get Start Tick */
        tickstart = HAL_GetTick();
 80035a4:	f7fe fde0 	bl	8002168 <HAL_GetTick>
 80035a8:	6138      	str	r0, [r7, #16]

        /* Wait till HSI is ready */
        while(__HAL_RCC_GET_FLAG(RCC_FLAG_HSIRDY) == 0U)
 80035aa:	e008      	b.n	80035be <HAL_RCC_OscConfig+0x19e>
        {
          if((HAL_GetTick() - tickstart ) > HSI_TIMEOUT_VALUE)
 80035ac:	f7fe fddc 	bl	8002168 <HAL_GetTick>
 80035b0:	4602      	mov	r2, r0
 80035b2:	693b      	ldr	r3, [r7, #16]
 80035b4:	1ad3      	subs	r3, r2, r3
 80035b6:	2b02      	cmp	r3, #2
 80035b8:	d901      	bls.n	80035be <HAL_RCC_OscConfig+0x19e>
          {
            return HAL_TIMEOUT;
 80035ba:	2303      	movs	r3, #3
 80035bc:	e257      	b.n	8003a6e <HAL_RCC_OscConfig+0x64e>
        while(__HAL_RCC_GET_FLAG(RCC_FLAG_HSIRDY) == 0U)
 80035be:	4b31      	ldr	r3, [pc, #196]	; (8003684 <HAL_RCC_OscConfig+0x264>)
 80035c0:	681b      	ldr	r3, [r3, #0]
 80035c2:	f003 0302 	and.w	r3, r3, #2
 80035c6:	2b00      	cmp	r3, #0
 80035c8:	d0f0      	beq.n	80035ac <HAL_RCC_OscConfig+0x18c>
          }
        }

        /* Adjusts the Internal High Speed oscillator (HSI) calibration value.*/
        __HAL_RCC_HSI_CALIBRATIONVALUE_ADJUST(RCC_OscInitStruct->HSICalibrationValue);
 80035ca:	4b2e      	ldr	r3, [pc, #184]	; (8003684 <HAL_RCC_OscConfig+0x264>)
 80035cc:	685b      	ldr	r3, [r3, #4]
 80035ce:	f423 52f8 	bic.w	r2, r3, #7936	; 0x1f00
 80035d2:	687b      	ldr	r3, [r7, #4]
 80035d4:	691b      	ldr	r3, [r3, #16]
 80035d6:	021b      	lsls	r3, r3, #8
 80035d8:	492a      	ldr	r1, [pc, #168]	; (8003684 <HAL_RCC_OscConfig+0x264>)
 80035da:	4313      	orrs	r3, r2
 80035dc:	604b      	str	r3, [r1, #4]
 80035de:	e015      	b.n	800360c <HAL_RCC_OscConfig+0x1ec>
      }
      else
      {
        /* Disable the Internal High Speed oscillator (HSI). */
        __HAL_RCC_HSI_DISABLE();
 80035e0:	4b29      	ldr	r3, [pc, #164]	; (8003688 <HAL_RCC_OscConfig+0x268>)
 80035e2:	2200      	movs	r2, #0
 80035e4:	601a      	str	r2, [r3, #0]

        /* Get Start Tick */
        tickstart = HAL_GetTick();
 80035e6:	f7fe fdbf 	bl	8002168 <HAL_GetTick>
 80035ea:	6138      	str	r0, [r7, #16]

        /* Wait till HSI is disabled */
        while(__HAL_RCC_GET_FLAG(RCC_FLAG_HSIRDY) != 0U)
 80035ec:	e008      	b.n	8003600 <HAL_RCC_OscConfig+0x1e0>
        {
          if((HAL_GetTick() - tickstart ) > HSI_TIMEOUT_VALUE)
 80035ee:	f7fe fdbb 	bl	8002168 <HAL_GetTick>
 80035f2:	4602      	mov	r2, r0
 80035f4:	693b      	ldr	r3, [r7, #16]
 80035f6:	1ad3      	subs	r3, r2, r3
 80035f8:	2b02      	cmp	r3, #2
 80035fa:	d901      	bls.n	8003600 <HAL_RCC_OscConfig+0x1e0>
          {
            return HAL_TIMEOUT;
 80035fc:	2303      	movs	r3, #3
 80035fe:	e236      	b.n	8003a6e <HAL_RCC_OscConfig+0x64e>
        while(__HAL_RCC_GET_FLAG(RCC_FLAG_HSIRDY) != 0U)
 8003600:	4b20      	ldr	r3, [pc, #128]	; (8003684 <HAL_RCC_OscConfig+0x264>)
 8003602:	681b      	ldr	r3, [r3, #0]
 8003604:	f003 0302 	and.w	r3, r3, #2
 8003608:	2b00      	cmp	r3, #0
 800360a:	d1f0      	bne.n	80035ee <HAL_RCC_OscConfig+0x1ce>
        }
      }
    }
  }
  /*----------------------------- MSI Configuration --------------------------*/
  if(((RCC_OscInitStruct->OscillatorType) & RCC_OSCILLATORTYPE_MSI) == RCC_OSCILLATORTYPE_MSI)
 800360c:	687b      	ldr	r3, [r7, #4]
 800360e:	681b      	ldr	r3, [r3, #0]
 8003610:	f003 0310 	and.w	r3, r3, #16
 8003614:	2b00      	cmp	r3, #0
 8003616:	f000 80b8 	beq.w	800378a <HAL_RCC_OscConfig+0x36a>
  {
    /* When the MSI is used as system clock it will not be disabled */
    if(sysclk_source == RCC_CFGR_SWS_MSI)
 800361a:	69bb      	ldr	r3, [r7, #24]
 800361c:	2b00      	cmp	r3, #0
 800361e:	d170      	bne.n	8003702 <HAL_RCC_OscConfig+0x2e2>
    {
      if((__HAL_RCC_GET_FLAG(RCC_FLAG_MSIRDY) != 0U) && (RCC_OscInitStruct->MSIState == RCC_MSI_OFF))
 8003620:	4b18      	ldr	r3, [pc, #96]	; (8003684 <HAL_RCC_OscConfig+0x264>)
 8003622:	681b      	ldr	r3, [r3, #0]
 8003624:	f403 7300 	and.w	r3, r3, #512	; 0x200
 8003628:	2b00      	cmp	r3, #0
 800362a:	d005      	beq.n	8003638 <HAL_RCC_OscConfig+0x218>
 800362c:	687b      	ldr	r3, [r7, #4]
 800362e:	699b      	ldr	r3, [r3, #24]
 8003630:	2b00      	cmp	r3, #0
 8003632:	d101      	bne.n	8003638 <HAL_RCC_OscConfig+0x218>
      {
        return HAL_ERROR;
 8003634:	2301      	movs	r3, #1
 8003636:	e21a      	b.n	8003a6e <HAL_RCC_OscConfig+0x64e>
        assert_param(IS_RCC_MSI_CLOCK_RANGE(RCC_OscInitStruct->MSIClockRange));

        /* To correctly read data from FLASH memory, the number of wait states (LATENCY)
           must be correctly programmed according to the frequency of the CPU clock
           (HCLK) and the supply voltage of the device. */
        if(RCC_OscInitStruct->MSIClockRange > __HAL_RCC_GET_MSI_RANGE())
 8003638:	687b      	ldr	r3, [r7, #4]
 800363a:	6a1a      	ldr	r2, [r3, #32]
 800363c:	4b11      	ldr	r3, [pc, #68]	; (8003684 <HAL_RCC_OscConfig+0x264>)
 800363e:	685b      	ldr	r3, [r3, #4]
 8003640:	f403 4360 	and.w	r3, r3, #57344	; 0xe000
 8003644:	429a      	cmp	r2, r3
 8003646:	d921      	bls.n	800368c <HAL_RCC_OscConfig+0x26c>
        {
          /* First increase number of wait states update if necessary */
          if(RCC_SetFlashLatencyFromMSIRange(RCC_OscInitStruct->MSIClockRange) != HAL_OK)
 8003648:	687b      	ldr	r3, [r7, #4]
 800364a:	6a1b      	ldr	r3, [r3, #32]
 800364c:	4618      	mov	r0, r3
 800364e:	f000 fc4b 	bl	8003ee8 <RCC_SetFlashLatencyFromMSIRange>
 8003652:	4603      	mov	r3, r0
 8003654:	2b00      	cmp	r3, #0
 8003656:	d001      	beq.n	800365c <HAL_RCC_OscConfig+0x23c>
          {
            return HAL_ERROR;
 8003658:	2301      	movs	r3, #1
 800365a:	e208      	b.n	8003a6e <HAL_RCC_OscConfig+0x64e>
          }

          /* Selects the Multiple Speed oscillator (MSI) clock range .*/
          __HAL_RCC_MSI_RANGE_CONFIG(RCC_OscInitStruct->MSIClockRange);
 800365c:	4b09      	ldr	r3, [pc, #36]	; (8003684 <HAL_RCC_OscConfig+0x264>)
 800365e:	685b      	ldr	r3, [r3, #4]
 8003660:	f423 4260 	bic.w	r2, r3, #57344	; 0xe000
 8003664:	687b      	ldr	r3, [r7, #4]
 8003666:	6a1b      	ldr	r3, [r3, #32]
 8003668:	4906      	ldr	r1, [pc, #24]	; (8003684 <HAL_RCC_OscConfig+0x264>)
 800366a:	4313      	orrs	r3, r2
 800366c:	604b      	str	r3, [r1, #4]
          /* Adjusts the Multiple Speed oscillator (MSI) calibration value.*/
          __HAL_RCC_MSI_CALIBRATIONVALUE_ADJUST(RCC_OscInitStruct->MSICalibrationValue);
 800366e:	4b05      	ldr	r3, [pc, #20]	; (8003684 <HAL_RCC_OscConfig+0x264>)
 8003670:	685b      	ldr	r3, [r3, #4]
 8003672:	f023 427f 	bic.w	r2, r3, #4278190080	; 0xff000000
 8003676:	687b      	ldr	r3, [r7, #4]
 8003678:	69db      	ldr	r3, [r3, #28]
 800367a:	061b      	lsls	r3, r3, #24
 800367c:	4901      	ldr	r1, [pc, #4]	; (8003684 <HAL_RCC_OscConfig+0x264>)
 800367e:	4313      	orrs	r3, r2
 8003680:	604b      	str	r3, [r1, #4]
 8003682:	e020      	b.n	80036c6 <HAL_RCC_OscConfig+0x2a6>
 8003684:	40023800 	.word	0x40023800
 8003688:	42470000 	.word	0x42470000
        }
        else
        {
          /* Else, keep current flash latency while decreasing applies */
          /* Selects the Multiple Speed oscillator (MSI) clock range .*/
          __HAL_RCC_MSI_RANGE_CONFIG(RCC_OscInitStruct->MSIClockRange);
 800368c:	4ba4      	ldr	r3, [pc, #656]	; (8003920 <HAL_RCC_OscConfig+0x500>)
 800368e:	685b      	ldr	r3, [r3, #4]
 8003690:	f423 4260 	bic.w	r2, r3, #57344	; 0xe000
 8003694:	687b      	ldr	r3, [r7, #4]
 8003696:	6a1b      	ldr	r3, [r3, #32]
 8003698:	49a1      	ldr	r1, [pc, #644]	; (8003920 <HAL_RCC_OscConfig+0x500>)
 800369a:	4313      	orrs	r3, r2
 800369c:	604b      	str	r3, [r1, #4]
          /* Adjusts the Multiple Speed oscillator (MSI) calibration value.*/
          __HAL_RCC_MSI_CALIBRATIONVALUE_ADJUST(RCC_OscInitStruct->MSICalibrationValue);
 800369e:	4ba0      	ldr	r3, [pc, #640]	; (8003920 <HAL_RCC_OscConfig+0x500>)
 80036a0:	685b      	ldr	r3, [r3, #4]
 80036a2:	f023 427f 	bic.w	r2, r3, #4278190080	; 0xff000000
 80036a6:	687b      	ldr	r3, [r7, #4]
 80036a8:	69db      	ldr	r3, [r3, #28]
 80036aa:	061b      	lsls	r3, r3, #24
 80036ac:	499c      	ldr	r1, [pc, #624]	; (8003920 <HAL_RCC_OscConfig+0x500>)
 80036ae:	4313      	orrs	r3, r2
 80036b0:	604b      	str	r3, [r1, #4]

          /* Decrease number of wait states update if necessary */
          if(RCC_SetFlashLatencyFromMSIRange(RCC_OscInitStruct->MSIClockRange) != HAL_OK)
 80036b2:	687b      	ldr	r3, [r7, #4]
 80036b4:	6a1b      	ldr	r3, [r3, #32]
 80036b6:	4618      	mov	r0, r3
 80036b8:	f000 fc16 	bl	8003ee8 <RCC_SetFlashLatencyFromMSIRange>
 80036bc:	4603      	mov	r3, r0
 80036be:	2b00      	cmp	r3, #0
 80036c0:	d001      	beq.n	80036c6 <HAL_RCC_OscConfig+0x2a6>
          {
            return HAL_ERROR;
 80036c2:	2301      	movs	r3, #1
 80036c4:	e1d3      	b.n	8003a6e <HAL_RCC_OscConfig+0x64e>
          }
        }

        /* Update the SystemCoreClock global variable */
        SystemCoreClock =  (32768U * (1UL << ((RCC_OscInitStruct->MSIClockRange >> RCC_ICSCR_MSIRANGE_Pos) + 1U)))
 80036c6:	687b      	ldr	r3, [r7, #4]
 80036c8:	6a1b      	ldr	r3, [r3, #32]
 80036ca:	0b5b      	lsrs	r3, r3, #13
 80036cc:	3301      	adds	r3, #1
 80036ce:	f44f 4200 	mov.w	r2, #32768	; 0x8000
 80036d2:	fa02 f303 	lsl.w	r3, r2, r3
                           >> AHBPrescTable[((RCC->CFGR & RCC_CFGR_HPRE) >> RCC_CFGR_HPRE_Pos)];
 80036d6:	4a92      	ldr	r2, [pc, #584]	; (8003920 <HAL_RCC_OscConfig+0x500>)
 80036d8:	6892      	ldr	r2, [r2, #8]
 80036da:	0912      	lsrs	r2, r2, #4
 80036dc:	f002 020f 	and.w	r2, r2, #15
 80036e0:	4990      	ldr	r1, [pc, #576]	; (8003924 <HAL_RCC_OscConfig+0x504>)
 80036e2:	5c8a      	ldrb	r2, [r1, r2]
 80036e4:	40d3      	lsrs	r3, r2
        SystemCoreClock =  (32768U * (1UL << ((RCC_OscInitStruct->MSIClockRange >> RCC_ICSCR_MSIRANGE_Pos) + 1U)))
 80036e6:	4a90      	ldr	r2, [pc, #576]	; (8003928 <HAL_RCC_OscConfig+0x508>)
 80036e8:	6013      	str	r3, [r2, #0]

        /* Configure the source of time base considering new system clocks settings*/
        status = HAL_InitTick(uwTickPrio);
 80036ea:	4b90      	ldr	r3, [pc, #576]	; (800392c <HAL_RCC_OscConfig+0x50c>)
 80036ec:	681b      	ldr	r3, [r3, #0]
 80036ee:	4618      	mov	r0, r3
 80036f0:	f7fe fcee 	bl	80020d0 <HAL_InitTick>
 80036f4:	4603      	mov	r3, r0
 80036f6:	73fb      	strb	r3, [r7, #15]
        if(status != HAL_OK)
 80036f8:	7bfb      	ldrb	r3, [r7, #15]
 80036fa:	2b00      	cmp	r3, #0
 80036fc:	d045      	beq.n	800378a <HAL_RCC_OscConfig+0x36a>
        {
          return status;
 80036fe:	7bfb      	ldrb	r3, [r7, #15]
 8003700:	e1b5      	b.n	8003a6e <HAL_RCC_OscConfig+0x64e>
    {
      /* Check MSI State */
      assert_param(IS_RCC_MSI(RCC_OscInitStruct->MSIState));

      /* Check the MSI State */
      if(RCC_OscInitStruct->MSIState != RCC_MSI_OFF)
 8003702:	687b      	ldr	r3, [r7, #4]
 8003704:	699b      	ldr	r3, [r3, #24]
 8003706:	2b00      	cmp	r3, #0
 8003708:	d029      	beq.n	800375e <HAL_RCC_OscConfig+0x33e>
      {
        /* Enable the Multi Speed oscillator (MSI). */
        __HAL_RCC_MSI_ENABLE();
 800370a:	4b89      	ldr	r3, [pc, #548]	; (8003930 <HAL_RCC_OscConfig+0x510>)
 800370c:	2201      	movs	r2, #1
 800370e:	601a      	str	r2, [r3, #0]

        /* Get Start Tick */
        tickstart = HAL_GetTick();
 8003710:	f7fe fd2a 	bl	8002168 <HAL_GetTick>
 8003714:	6138      	str	r0, [r7, #16]

        /* Wait till MSI is ready */
        while(__HAL_RCC_GET_FLAG(RCC_FLAG_MSIRDY) == 0U)
 8003716:	e008      	b.n	800372a <HAL_RCC_OscConfig+0x30a>
        {
          if((HAL_GetTick() - tickstart) > MSI_TIMEOUT_VALUE)
 8003718:	f7fe fd26 	bl	8002168 <HAL_GetTick>
 800371c:	4602      	mov	r2, r0
 800371e:	693b      	ldr	r3, [r7, #16]
 8003720:	1ad3      	subs	r3, r2, r3
 8003722:	2b02      	cmp	r3, #2
 8003724:	d901      	bls.n	800372a <HAL_RCC_OscConfig+0x30a>
          {
            return HAL_TIMEOUT;
 8003726:	2303      	movs	r3, #3
 8003728:	e1a1      	b.n	8003a6e <HAL_RCC_OscConfig+0x64e>
        while(__HAL_RCC_GET_FLAG(RCC_FLAG_MSIRDY) == 0U)
 800372a:	4b7d      	ldr	r3, [pc, #500]	; (8003920 <HAL_RCC_OscConfig+0x500>)
 800372c:	681b      	ldr	r3, [r3, #0]
 800372e:	f403 7300 	and.w	r3, r3, #512	; 0x200
 8003732:	2b00      	cmp	r3, #0
 8003734:	d0f0      	beq.n	8003718 <HAL_RCC_OscConfig+0x2f8>
        /* Check MSICalibrationValue and MSIClockRange input parameters */
        assert_param(IS_RCC_MSICALIBRATION_VALUE(RCC_OscInitStruct->MSICalibrationValue));
        assert_param(IS_RCC_MSI_CLOCK_RANGE(RCC_OscInitStruct->MSIClockRange));

        /* Selects the Multiple Speed oscillator (MSI) clock range .*/
        __HAL_RCC_MSI_RANGE_CONFIG(RCC_OscInitStruct->MSIClockRange);
 8003736:	4b7a      	ldr	r3, [pc, #488]	; (8003920 <HAL_RCC_OscConfig+0x500>)
 8003738:	685b      	ldr	r3, [r3, #4]
 800373a:	f423 4260 	bic.w	r2, r3, #57344	; 0xe000
 800373e:	687b      	ldr	r3, [r7, #4]
 8003740:	6a1b      	ldr	r3, [r3, #32]
 8003742:	4977      	ldr	r1, [pc, #476]	; (8003920 <HAL_RCC_OscConfig+0x500>)
 8003744:	4313      	orrs	r3, r2
 8003746:	604b      	str	r3, [r1, #4]
         /* Adjusts the Multiple Speed oscillator (MSI) calibration value.*/
        __HAL_RCC_MSI_CALIBRATIONVALUE_ADJUST(RCC_OscInitStruct->MSICalibrationValue);
 8003748:	4b75      	ldr	r3, [pc, #468]	; (8003920 <HAL_RCC_OscConfig+0x500>)
 800374a:	685b      	ldr	r3, [r3, #4]
 800374c:	f023 427f 	bic.w	r2, r3, #4278190080	; 0xff000000
 8003750:	687b      	ldr	r3, [r7, #4]
 8003752:	69db      	ldr	r3, [r3, #28]
 8003754:	061b      	lsls	r3, r3, #24
 8003756:	4972      	ldr	r1, [pc, #456]	; (8003920 <HAL_RCC_OscConfig+0x500>)
 8003758:	4313      	orrs	r3, r2
 800375a:	604b      	str	r3, [r1, #4]
 800375c:	e015      	b.n	800378a <HAL_RCC_OscConfig+0x36a>

      }
      else
      {
        /* Disable the Multi Speed oscillator (MSI). */
        __HAL_RCC_MSI_DISABLE();
 800375e:	4b74      	ldr	r3, [pc, #464]	; (8003930 <HAL_RCC_OscConfig+0x510>)
 8003760:	2200      	movs	r2, #0
 8003762:	601a      	str	r2, [r3, #0]

        /* Get Start Tick */
        tickstart = HAL_GetTick();
 8003764:	f7fe fd00 	bl	8002168 <HAL_GetTick>
 8003768:	6138      	str	r0, [r7, #16]

        /* Wait till MSI is ready */
        while(__HAL_RCC_GET_FLAG(RCC_FLAG_MSIRDY) != 0U)
 800376a:	e008      	b.n	800377e <HAL_RCC_OscConfig+0x35e>
        {
          if((HAL_GetTick() - tickstart) > MSI_TIMEOUT_VALUE)
 800376c:	f7fe fcfc 	bl	8002168 <HAL_GetTick>
 8003770:	4602      	mov	r2, r0
 8003772:	693b      	ldr	r3, [r7, #16]
 8003774:	1ad3      	subs	r3, r2, r3
 8003776:	2b02      	cmp	r3, #2
 8003778:	d901      	bls.n	800377e <HAL_RCC_OscConfig+0x35e>
          {
            return HAL_TIMEOUT;
 800377a:	2303      	movs	r3, #3
 800377c:	e177      	b.n	8003a6e <HAL_RCC_OscConfig+0x64e>
        while(__HAL_RCC_GET_FLAG(RCC_FLAG_MSIRDY) != 0U)
 800377e:	4b68      	ldr	r3, [pc, #416]	; (8003920 <HAL_RCC_OscConfig+0x500>)
 8003780:	681b      	ldr	r3, [r3, #0]
 8003782:	f403 7300 	and.w	r3, r3, #512	; 0x200
 8003786:	2b00      	cmp	r3, #0
 8003788:	d1f0      	bne.n	800376c <HAL_RCC_OscConfig+0x34c>
        }
      }
    }
  }
  /*------------------------------ LSI Configuration -------------------------*/
  if(((RCC_OscInitStruct->OscillatorType) & RCC_OSCILLATORTYPE_LSI) == RCC_OSCILLATORTYPE_LSI)
 800378a:	687b      	ldr	r3, [r7, #4]
 800378c:	681b      	ldr	r3, [r3, #0]
 800378e:	f003 0308 	and.w	r3, r3, #8
 8003792:	2b00      	cmp	r3, #0
 8003794:	d030      	beq.n	80037f8 <HAL_RCC_OscConfig+0x3d8>
  {
    /* Check the parameters */
    assert_param(IS_RCC_LSI(RCC_OscInitStruct->LSIState));

    /* Check the LSI State */
    if(RCC_OscInitStruct->LSIState != RCC_LSI_OFF)
 8003796:	687b      	ldr	r3, [r7, #4]
 8003798:	695b      	ldr	r3, [r3, #20]
 800379a:	2b00      	cmp	r3, #0
 800379c:	d016      	beq.n	80037cc <HAL_RCC_OscConfig+0x3ac>
    {
      /* Enable the Internal Low Speed oscillator (LSI). */
      __HAL_RCC_LSI_ENABLE();
 800379e:	4b65      	ldr	r3, [pc, #404]	; (8003934 <HAL_RCC_OscConfig+0x514>)
 80037a0:	2201      	movs	r2, #1
 80037a2:	601a      	str	r2, [r3, #0]

      /* Get Start Tick */
      tickstart = HAL_GetTick();
 80037a4:	f7fe fce0 	bl	8002168 <HAL_GetTick>
 80037a8:	6138      	str	r0, [r7, #16]

      /* Wait till LSI is ready */
      while(__HAL_RCC_GET_FLAG(RCC_FLAG_LSIRDY) == 0U)
 80037aa:	e008      	b.n	80037be <HAL_RCC_OscConfig+0x39e>
      {
        if((HAL_GetTick() - tickstart ) > LSI_TIMEOUT_VALUE)
 80037ac:	f7fe fcdc 	bl	8002168 <HAL_GetTick>
 80037b0:	4602      	mov	r2, r0
 80037b2:	693b      	ldr	r3, [r7, #16]
 80037b4:	1ad3      	subs	r3, r2, r3
 80037b6:	2b02      	cmp	r3, #2
 80037b8:	d901      	bls.n	80037be <HAL_RCC_OscConfig+0x39e>
        {
          return HAL_TIMEOUT;
 80037ba:	2303      	movs	r3, #3
 80037bc:	e157      	b.n	8003a6e <HAL_RCC_OscConfig+0x64e>
      while(__HAL_RCC_GET_FLAG(RCC_FLAG_LSIRDY) == 0U)
 80037be:	4b58      	ldr	r3, [pc, #352]	; (8003920 <HAL_RCC_OscConfig+0x500>)
 80037c0:	6b5b      	ldr	r3, [r3, #52]	; 0x34
 80037c2:	f003 0302 	and.w	r3, r3, #2
 80037c6:	2b00      	cmp	r3, #0
 80037c8:	d0f0      	beq.n	80037ac <HAL_RCC_OscConfig+0x38c>
 80037ca:	e015      	b.n	80037f8 <HAL_RCC_OscConfig+0x3d8>
      }
    }
    else
    {
      /* Disable the Internal Low Speed oscillator (LSI). */
      __HAL_RCC_LSI_DISABLE();
 80037cc:	4b59      	ldr	r3, [pc, #356]	; (8003934 <HAL_RCC_OscConfig+0x514>)
 80037ce:	2200      	movs	r2, #0
 80037d0:	601a      	str	r2, [r3, #0]

      /* Get Start Tick */
      tickstart = HAL_GetTick();
 80037d2:	f7fe fcc9 	bl	8002168 <HAL_GetTick>
 80037d6:	6138      	str	r0, [r7, #16]

      /* Wait till LSI is disabled */
      while(__HAL_RCC_GET_FLAG(RCC_FLAG_LSIRDY) != 0U)
 80037d8:	e008      	b.n	80037ec <HAL_RCC_OscConfig+0x3cc>
      {
        if((HAL_GetTick() - tickstart ) > LSI_TIMEOUT_VALUE)
 80037da:	f7fe fcc5 	bl	8002168 <HAL_GetTick>
 80037de:	4602      	mov	r2, r0
 80037e0:	693b      	ldr	r3, [r7, #16]
 80037e2:	1ad3      	subs	r3, r2, r3
 80037e4:	2b02      	cmp	r3, #2
 80037e6:	d901      	bls.n	80037ec <HAL_RCC_OscConfig+0x3cc>
        {
          return HAL_TIMEOUT;
 80037e8:	2303      	movs	r3, #3
 80037ea:	e140      	b.n	8003a6e <HAL_RCC_OscConfig+0x64e>
      while(__HAL_RCC_GET_FLAG(RCC_FLAG_LSIRDY) != 0U)
 80037ec:	4b4c      	ldr	r3, [pc, #304]	; (8003920 <HAL_RCC_OscConfig+0x500>)
 80037ee:	6b5b      	ldr	r3, [r3, #52]	; 0x34
 80037f0:	f003 0302 	and.w	r3, r3, #2
 80037f4:	2b00      	cmp	r3, #0
 80037f6:	d1f0      	bne.n	80037da <HAL_RCC_OscConfig+0x3ba>
        }
      }
    }
  }
  /*------------------------------ LSE Configuration -------------------------*/
  if(((RCC_OscInitStruct->OscillatorType) & RCC_OSCILLATORTYPE_LSE) == RCC_OSCILLATORTYPE_LSE)
 80037f8:	687b      	ldr	r3, [r7, #4]
 80037fa:	681b      	ldr	r3, [r3, #0]
 80037fc:	f003 0304 	and.w	r3, r3, #4
 8003800:	2b00      	cmp	r3, #0
 8003802:	f000 80b5 	beq.w	8003970 <HAL_RCC_OscConfig+0x550>
  {
    FlagStatus       pwrclkchanged = RESET;
 8003806:	2300      	movs	r3, #0
 8003808:	77fb      	strb	r3, [r7, #31]
    /* Check the parameters */
    assert_param(IS_RCC_LSE(RCC_OscInitStruct->LSEState));

    /* Update LSE configuration in Backup Domain control register    */
    /* Requires to enable write access to Backup Domain of necessary */
    if(__HAL_RCC_PWR_IS_CLK_DISABLED())
 800380a:	4b45      	ldr	r3, [pc, #276]	; (8003920 <HAL_RCC_OscConfig+0x500>)
 800380c:	6a5b      	ldr	r3, [r3, #36]	; 0x24
 800380e:	f003 5380 	and.w	r3, r3, #268435456	; 0x10000000
 8003812:	2b00      	cmp	r3, #0
 8003814:	d10d      	bne.n	8003832 <HAL_RCC_OscConfig+0x412>
    {
      __HAL_RCC_PWR_CLK_ENABLE();
 8003816:	4b42      	ldr	r3, [pc, #264]	; (8003920 <HAL_RCC_OscConfig+0x500>)
 8003818:	6a5b      	ldr	r3, [r3, #36]	; 0x24
 800381a:	4a41      	ldr	r2, [pc, #260]	; (8003920 <HAL_RCC_OscConfig+0x500>)
 800381c:	f043 5380 	orr.w	r3, r3, #268435456	; 0x10000000
 8003820:	6253      	str	r3, [r2, #36]	; 0x24
 8003822:	4b3f      	ldr	r3, [pc, #252]	; (8003920 <HAL_RCC_OscConfig+0x500>)
 8003824:	6a5b      	ldr	r3, [r3, #36]	; 0x24
 8003826:	f003 5380 	and.w	r3, r3, #268435456	; 0x10000000
 800382a:	60bb      	str	r3, [r7, #8]
 800382c:	68bb      	ldr	r3, [r7, #8]
      pwrclkchanged = SET;
 800382e:	2301      	movs	r3, #1
 8003830:	77fb      	strb	r3, [r7, #31]
    }

    if(HAL_IS_BIT_CLR(PWR->CR, PWR_CR_DBP))
 8003832:	4b41      	ldr	r3, [pc, #260]	; (8003938 <HAL_RCC_OscConfig+0x518>)
 8003834:	681b      	ldr	r3, [r3, #0]
 8003836:	f403 7380 	and.w	r3, r3, #256	; 0x100
 800383a:	2b00      	cmp	r3, #0
 800383c:	d118      	bne.n	8003870 <HAL_RCC_OscConfig+0x450>
    {
      /* Enable write access to Backup domain */
      SET_BIT(PWR->CR, PWR_CR_DBP);
 800383e:	4b3e      	ldr	r3, [pc, #248]	; (8003938 <HAL_RCC_OscConfig+0x518>)
 8003840:	681b      	ldr	r3, [r3, #0]
 8003842:	4a3d      	ldr	r2, [pc, #244]	; (8003938 <HAL_RCC_OscConfig+0x518>)
 8003844:	f443 7380 	orr.w	r3, r3, #256	; 0x100
 8003848:	6013      	str	r3, [r2, #0]

      /* Wait for Backup domain Write protection disable */
      tickstart = HAL_GetTick();
 800384a:	f7fe fc8d 	bl	8002168 <HAL_GetTick>
 800384e:	6138      	str	r0, [r7, #16]

      while(HAL_IS_BIT_CLR(PWR->CR, PWR_CR_DBP))
 8003850:	e008      	b.n	8003864 <HAL_RCC_OscConfig+0x444>
      {
        if((HAL_GetTick() - tickstart) > RCC_DBP_TIMEOUT_VALUE)
 8003852:	f7fe fc89 	bl	8002168 <HAL_GetTick>
 8003856:	4602      	mov	r2, r0
 8003858:	693b      	ldr	r3, [r7, #16]
 800385a:	1ad3      	subs	r3, r2, r3
 800385c:	2b64      	cmp	r3, #100	; 0x64
 800385e:	d901      	bls.n	8003864 <HAL_RCC_OscConfig+0x444>
        {
          return HAL_TIMEOUT;
 8003860:	2303      	movs	r3, #3
 8003862:	e104      	b.n	8003a6e <HAL_RCC_OscConfig+0x64e>
      while(HAL_IS_BIT_CLR(PWR->CR, PWR_CR_DBP))
 8003864:	4b34      	ldr	r3, [pc, #208]	; (8003938 <HAL_RCC_OscConfig+0x518>)
 8003866:	681b      	ldr	r3, [r3, #0]
 8003868:	f403 7380 	and.w	r3, r3, #256	; 0x100
 800386c:	2b00      	cmp	r3, #0
 800386e:	d0f0      	beq.n	8003852 <HAL_RCC_OscConfig+0x432>
        }
      }
    }

    /* Set the new LSE configuration -----------------------------------------*/
    __HAL_RCC_LSE_CONFIG(RCC_OscInitStruct->LSEState);
 8003870:	687b      	ldr	r3, [r7, #4]
 8003872:	689b      	ldr	r3, [r3, #8]
 8003874:	2b01      	cmp	r3, #1
 8003876:	d106      	bne.n	8003886 <HAL_RCC_OscConfig+0x466>
 8003878:	4b29      	ldr	r3, [pc, #164]	; (8003920 <HAL_RCC_OscConfig+0x500>)
 800387a:	6b5b      	ldr	r3, [r3, #52]	; 0x34
 800387c:	4a28      	ldr	r2, [pc, #160]	; (8003920 <HAL_RCC_OscConfig+0x500>)
 800387e:	f443 7380 	orr.w	r3, r3, #256	; 0x100
 8003882:	6353      	str	r3, [r2, #52]	; 0x34
 8003884:	e02d      	b.n	80038e2 <HAL_RCC_OscConfig+0x4c2>
 8003886:	687b      	ldr	r3, [r7, #4]
 8003888:	689b      	ldr	r3, [r3, #8]
 800388a:	2b00      	cmp	r3, #0
 800388c:	d10c      	bne.n	80038a8 <HAL_RCC_OscConfig+0x488>
 800388e:	4b24      	ldr	r3, [pc, #144]	; (8003920 <HAL_RCC_OscConfig+0x500>)
 8003890:	6b5b      	ldr	r3, [r3, #52]	; 0x34
 8003892:	4a23      	ldr	r2, [pc, #140]	; (8003920 <HAL_RCC_OscConfig+0x500>)
 8003894:	f423 7380 	bic.w	r3, r3, #256	; 0x100
 8003898:	6353      	str	r3, [r2, #52]	; 0x34
 800389a:	4b21      	ldr	r3, [pc, #132]	; (8003920 <HAL_RCC_OscConfig+0x500>)
 800389c:	6b5b      	ldr	r3, [r3, #52]	; 0x34
 800389e:	4a20      	ldr	r2, [pc, #128]	; (8003920 <HAL_RCC_OscConfig+0x500>)
 80038a0:	f423 6380 	bic.w	r3, r3, #1024	; 0x400
 80038a4:	6353      	str	r3, [r2, #52]	; 0x34
 80038a6:	e01c      	b.n	80038e2 <HAL_RCC_OscConfig+0x4c2>
 80038a8:	687b      	ldr	r3, [r7, #4]
 80038aa:	689b      	ldr	r3, [r3, #8]
 80038ac:	2b05      	cmp	r3, #5
 80038ae:	d10c      	bne.n	80038ca <HAL_RCC_OscConfig+0x4aa>
 80038b0:	4b1b      	ldr	r3, [pc, #108]	; (8003920 <HAL_RCC_OscConfig+0x500>)
 80038b2:	6b5b      	ldr	r3, [r3, #52]	; 0x34
 80038b4:	4a1a      	ldr	r2, [pc, #104]	; (8003920 <HAL_RCC_OscConfig+0x500>)
 80038b6:	f443 6380 	orr.w	r3, r3, #1024	; 0x400
 80038ba:	6353      	str	r3, [r2, #52]	; 0x34
 80038bc:	4b18      	ldr	r3, [pc, #96]	; (8003920 <HAL_RCC_OscConfig+0x500>)
 80038be:	6b5b      	ldr	r3, [r3, #52]	; 0x34
 80038c0:	4a17      	ldr	r2, [pc, #92]	; (8003920 <HAL_RCC_OscConfig+0x500>)
 80038c2:	f443 7380 	orr.w	r3, r3, #256	; 0x100
 80038c6:	6353      	str	r3, [r2, #52]	; 0x34
 80038c8:	e00b      	b.n	80038e2 <HAL_RCC_OscConfig+0x4c2>
 80038ca:	4b15      	ldr	r3, [pc, #84]	; (8003920 <HAL_RCC_OscConfig+0x500>)
 80038cc:	6b5b      	ldr	r3, [r3, #52]	; 0x34
 80038ce:	4a14      	ldr	r2, [pc, #80]	; (8003920 <HAL_RCC_OscConfig+0x500>)
 80038d0:	f423 7380 	bic.w	r3, r3, #256	; 0x100
 80038d4:	6353      	str	r3, [r2, #52]	; 0x34
 80038d6:	4b12      	ldr	r3, [pc, #72]	; (8003920 <HAL_RCC_OscConfig+0x500>)
 80038d8:	6b5b      	ldr	r3, [r3, #52]	; 0x34
 80038da:	4a11      	ldr	r2, [pc, #68]	; (8003920 <HAL_RCC_OscConfig+0x500>)
 80038dc:	f423 6380 	bic.w	r3, r3, #1024	; 0x400
 80038e0:	6353      	str	r3, [r2, #52]	; 0x34
    /* Check the LSE State */
    if(RCC_OscInitStruct->LSEState != RCC_LSE_OFF)
 80038e2:	687b      	ldr	r3, [r7, #4]
 80038e4:	689b      	ldr	r3, [r3, #8]
 80038e6:	2b00      	cmp	r3, #0
 80038e8:	d015      	beq.n	8003916 <HAL_RCC_OscConfig+0x4f6>
    {
      /* Get Start Tick */
      tickstart = HAL_GetTick();
 80038ea:	f7fe fc3d 	bl	8002168 <HAL_GetTick>
 80038ee:	6138      	str	r0, [r7, #16]

      /* Wait till LSE is ready */
      while(__HAL_RCC_GET_FLAG(RCC_FLAG_LSERDY) == 0U)
 80038f0:	e00a      	b.n	8003908 <HAL_RCC_OscConfig+0x4e8>
      {
        if((HAL_GetTick() - tickstart ) > RCC_LSE_TIMEOUT_VALUE)
 80038f2:	f7fe fc39 	bl	8002168 <HAL_GetTick>
 80038f6:	4602      	mov	r2, r0
 80038f8:	693b      	ldr	r3, [r7, #16]
 80038fa:	1ad3      	subs	r3, r2, r3
 80038fc:	f241 3288 	movw	r2, #5000	; 0x1388
 8003900:	4293      	cmp	r3, r2
 8003902:	d901      	bls.n	8003908 <HAL_RCC_OscConfig+0x4e8>
        {
          return HAL_TIMEOUT;
 8003904:	2303      	movs	r3, #3
 8003906:	e0b2      	b.n	8003a6e <HAL_RCC_OscConfig+0x64e>
      while(__HAL_RCC_GET_FLAG(RCC_FLAG_LSERDY) == 0U)
 8003908:	4b05      	ldr	r3, [pc, #20]	; (8003920 <HAL_RCC_OscConfig+0x500>)
 800390a:	6b5b      	ldr	r3, [r3, #52]	; 0x34
 800390c:	f403 7300 	and.w	r3, r3, #512	; 0x200
 8003910:	2b00      	cmp	r3, #0
 8003912:	d0ee      	beq.n	80038f2 <HAL_RCC_OscConfig+0x4d2>
 8003914:	e023      	b.n	800395e <HAL_RCC_OscConfig+0x53e>
      }
    }
    else
    {
      /* Get Start Tick */
      tickstart = HAL_GetTick();
 8003916:	f7fe fc27 	bl	8002168 <HAL_GetTick>
 800391a:	6138      	str	r0, [r7, #16]

      /* Wait till LSE is disabled */
      while(__HAL_RCC_GET_FLAG(RCC_FLAG_LSERDY) != 0U)
 800391c:	e019      	b.n	8003952 <HAL_RCC_OscConfig+0x532>
 800391e:	bf00      	nop
 8003920:	40023800 	.word	0x40023800
 8003924:	08007908 	.word	0x08007908
 8003928:	20000014 	.word	0x20000014
 800392c:	20000044 	.word	0x20000044
 8003930:	42470020 	.word	0x42470020
 8003934:	42470680 	.word	0x42470680
 8003938:	40007000 	.word	0x40007000
      {
        if((HAL_GetTick() - tickstart ) > RCC_LSE_TIMEOUT_VALUE)
 800393c:	f7fe fc14 	bl	8002168 <HAL_GetTick>
 8003940:	4602      	mov	r2, r0
 8003942:	693b      	ldr	r3, [r7, #16]
 8003944:	1ad3      	subs	r3, r2, r3
 8003946:	f241 3288 	movw	r2, #5000	; 0x1388
 800394a:	4293      	cmp	r3, r2
 800394c:	d901      	bls.n	8003952 <HAL_RCC_OscConfig+0x532>
        {
          return HAL_TIMEOUT;
 800394e:	2303      	movs	r3, #3
 8003950:	e08d      	b.n	8003a6e <HAL_RCC_OscConfig+0x64e>
      while(__HAL_RCC_GET_FLAG(RCC_FLAG_LSERDY) != 0U)
 8003952:	4b49      	ldr	r3, [pc, #292]	; (8003a78 <HAL_RCC_OscConfig+0x658>)
 8003954:	6b5b      	ldr	r3, [r3, #52]	; 0x34
 8003956:	f403 7300 	and.w	r3, r3, #512	; 0x200
 800395a:	2b00      	cmp	r3, #0
 800395c:	d1ee      	bne.n	800393c <HAL_RCC_OscConfig+0x51c>
        }
      }
    }

    /* Require to disable power clock if necessary */
    if(pwrclkchanged == SET)
 800395e:	7ffb      	ldrb	r3, [r7, #31]
 8003960:	2b01      	cmp	r3, #1
 8003962:	d105      	bne.n	8003970 <HAL_RCC_OscConfig+0x550>
    {
      __HAL_RCC_PWR_CLK_DISABLE();
 8003964:	4b44      	ldr	r3, [pc, #272]	; (8003a78 <HAL_RCC_OscConfig+0x658>)
 8003966:	6a5b      	ldr	r3, [r3, #36]	; 0x24
 8003968:	4a43      	ldr	r2, [pc, #268]	; (8003a78 <HAL_RCC_OscConfig+0x658>)
 800396a:	f023 5380 	bic.w	r3, r3, #268435456	; 0x10000000
 800396e:	6253      	str	r3, [r2, #36]	; 0x24
  }

  /*-------------------------------- PLL Configuration -----------------------*/
  /* Check the parameters */
  assert_param(IS_RCC_PLL(RCC_OscInitStruct->PLL.PLLState));
  if ((RCC_OscInitStruct->PLL.PLLState) != RCC_PLL_NONE)
 8003970:	687b      	ldr	r3, [r7, #4]
 8003972:	6a5b      	ldr	r3, [r3, #36]	; 0x24
 8003974:	2b00      	cmp	r3, #0
 8003976:	d079      	beq.n	8003a6c <HAL_RCC_OscConfig+0x64c>
  {
    /* Check if the PLL is used as system clock or not */
    if(sysclk_source != RCC_SYSCLKSOURCE_STATUS_PLLCLK)
 8003978:	69bb      	ldr	r3, [r7, #24]
 800397a:	2b0c      	cmp	r3, #12
 800397c:	d056      	beq.n	8003a2c <HAL_RCC_OscConfig+0x60c>
    {
      if((RCC_OscInitStruct->PLL.PLLState) == RCC_PLL_ON)
 800397e:	687b      	ldr	r3, [r7, #4]
 8003980:	6a5b      	ldr	r3, [r3, #36]	; 0x24
 8003982:	2b02      	cmp	r3, #2
 8003984:	d13b      	bne.n	80039fe <HAL_RCC_OscConfig+0x5de>
        assert_param(IS_RCC_PLLSOURCE(RCC_OscInitStruct->PLL.PLLSource));
        assert_param(IS_RCC_PLL_MUL(RCC_OscInitStruct->PLL.PLLMUL));
        assert_param(IS_RCC_PLL_DIV(RCC_OscInitStruct->PLL.PLLDIV));

        /* Disable the main PLL. */
        __HAL_RCC_PLL_DISABLE();
 8003986:	4b3d      	ldr	r3, [pc, #244]	; (8003a7c <HAL_RCC_OscConfig+0x65c>)
 8003988:	2200      	movs	r2, #0
 800398a:	601a      	str	r2, [r3, #0]

        /* Get Start Tick */
        tickstart = HAL_GetTick();
 800398c:	f7fe fbec 	bl	8002168 <HAL_GetTick>
 8003990:	6138      	str	r0, [r7, #16]

        /* Wait till PLL is disabled */
        while(__HAL_RCC_GET_FLAG(RCC_FLAG_PLLRDY) != 0U)
 8003992:	e008      	b.n	80039a6 <HAL_RCC_OscConfig+0x586>
        {
          if((HAL_GetTick() - tickstart ) > PLL_TIMEOUT_VALUE)
 8003994:	f7fe fbe8 	bl	8002168 <HAL_GetTick>
 8003998:	4602      	mov	r2, r0
 800399a:	693b      	ldr	r3, [r7, #16]
 800399c:	1ad3      	subs	r3, r2, r3
 800399e:	2b02      	cmp	r3, #2
 80039a0:	d901      	bls.n	80039a6 <HAL_RCC_OscConfig+0x586>
          {
            return HAL_TIMEOUT;
 80039a2:	2303      	movs	r3, #3
 80039a4:	e063      	b.n	8003a6e <HAL_RCC_OscConfig+0x64e>
        while(__HAL_RCC_GET_FLAG(RCC_FLAG_PLLRDY) != 0U)
 80039a6:	4b34      	ldr	r3, [pc, #208]	; (8003a78 <HAL_RCC_OscConfig+0x658>)
 80039a8:	681b      	ldr	r3, [r3, #0]
 80039aa:	f003 7300 	and.w	r3, r3, #33554432	; 0x2000000
 80039ae:	2b00      	cmp	r3, #0
 80039b0:	d1f0      	bne.n	8003994 <HAL_RCC_OscConfig+0x574>
          }
        }

        /* Configure the main PLL clock source, multiplication and division factors. */
        __HAL_RCC_PLL_CONFIG(RCC_OscInitStruct->PLL.PLLSource,
 80039b2:	4b31      	ldr	r3, [pc, #196]	; (8003a78 <HAL_RCC_OscConfig+0x658>)
 80039b4:	689b      	ldr	r3, [r3, #8]
 80039b6:	f423 027d 	bic.w	r2, r3, #16580608	; 0xfd0000
 80039ba:	687b      	ldr	r3, [r7, #4]
 80039bc:	6a99      	ldr	r1, [r3, #40]	; 0x28
 80039be:	687b      	ldr	r3, [r7, #4]
 80039c0:	6adb      	ldr	r3, [r3, #44]	; 0x2c
 80039c2:	4319      	orrs	r1, r3
 80039c4:	687b      	ldr	r3, [r7, #4]
 80039c6:	6b1b      	ldr	r3, [r3, #48]	; 0x30
 80039c8:	430b      	orrs	r3, r1
 80039ca:	492b      	ldr	r1, [pc, #172]	; (8003a78 <HAL_RCC_OscConfig+0x658>)
 80039cc:	4313      	orrs	r3, r2
 80039ce:	608b      	str	r3, [r1, #8]
                             RCC_OscInitStruct->PLL.PLLMUL,
                             RCC_OscInitStruct->PLL.PLLDIV);
        /* Enable the main PLL. */
        __HAL_RCC_PLL_ENABLE();
 80039d0:	4b2a      	ldr	r3, [pc, #168]	; (8003a7c <HAL_RCC_OscConfig+0x65c>)
 80039d2:	2201      	movs	r2, #1
 80039d4:	601a      	str	r2, [r3, #0]

        /* Get Start Tick */
        tickstart = HAL_GetTick();
 80039d6:	f7fe fbc7 	bl	8002168 <HAL_GetTick>
 80039da:	6138      	str	r0, [r7, #16]

        /* Wait till PLL is ready */
        while(__HAL_RCC_GET_FLAG(RCC_FLAG_PLLRDY) == 0U)
 80039dc:	e008      	b.n	80039f0 <HAL_RCC_OscConfig+0x5d0>
        {
          if((HAL_GetTick() - tickstart ) > PLL_TIMEOUT_VALUE)
 80039de:	f7fe fbc3 	bl	8002168 <HAL_GetTick>
 80039e2:	4602      	mov	r2, r0
 80039e4:	693b      	ldr	r3, [r7, #16]
 80039e6:	1ad3      	subs	r3, r2, r3
 80039e8:	2b02      	cmp	r3, #2
 80039ea:	d901      	bls.n	80039f0 <HAL_RCC_OscConfig+0x5d0>
          {
            return HAL_TIMEOUT;
 80039ec:	2303      	movs	r3, #3
 80039ee:	e03e      	b.n	8003a6e <HAL_RCC_OscConfig+0x64e>
        while(__HAL_RCC_GET_FLAG(RCC_FLAG_PLLRDY) == 0U)
 80039f0:	4b21      	ldr	r3, [pc, #132]	; (8003a78 <HAL_RCC_OscConfig+0x658>)
 80039f2:	681b      	ldr	r3, [r3, #0]
 80039f4:	f003 7300 	and.w	r3, r3, #33554432	; 0x2000000
 80039f8:	2b00      	cmp	r3, #0
 80039fa:	d0f0      	beq.n	80039de <HAL_RCC_OscConfig+0x5be>
 80039fc:	e036      	b.n	8003a6c <HAL_RCC_OscConfig+0x64c>
        }
      }
      else
      {
        /* Disable the main PLL. */
        __HAL_RCC_PLL_DISABLE();
 80039fe:	4b1f      	ldr	r3, [pc, #124]	; (8003a7c <HAL_RCC_OscConfig+0x65c>)
 8003a00:	2200      	movs	r2, #0
 8003a02:	601a      	str	r2, [r3, #0]

        /* Get Start Tick */
        tickstart = HAL_GetTick();
 8003a04:	f7fe fbb0 	bl	8002168 <HAL_GetTick>
 8003a08:	6138      	str	r0, [r7, #16]

        /* Wait till PLL is disabled */
        while(__HAL_RCC_GET_FLAG(RCC_FLAG_PLLRDY) != 0U)
 8003a0a:	e008      	b.n	8003a1e <HAL_RCC_OscConfig+0x5fe>
        {
          if((HAL_GetTick() - tickstart ) > PLL_TIMEOUT_VALUE)
 8003a0c:	f7fe fbac 	bl	8002168 <HAL_GetTick>
 8003a10:	4602      	mov	r2, r0
 8003a12:	693b      	ldr	r3, [r7, #16]
 8003a14:	1ad3      	subs	r3, r2, r3
 8003a16:	2b02      	cmp	r3, #2
 8003a18:	d901      	bls.n	8003a1e <HAL_RCC_OscConfig+0x5fe>
          {
            return HAL_TIMEOUT;
 8003a1a:	2303      	movs	r3, #3
 8003a1c:	e027      	b.n	8003a6e <HAL_RCC_OscConfig+0x64e>
        while(__HAL_RCC_GET_FLAG(RCC_FLAG_PLLRDY) != 0U)
 8003a1e:	4b16      	ldr	r3, [pc, #88]	; (8003a78 <HAL_RCC_OscConfig+0x658>)
 8003a20:	681b      	ldr	r3, [r3, #0]
 8003a22:	f003 7300 	and.w	r3, r3, #33554432	; 0x2000000
 8003a26:	2b00      	cmp	r3, #0
 8003a28:	d1f0      	bne.n	8003a0c <HAL_RCC_OscConfig+0x5ec>
 8003a2a:	e01f      	b.n	8003a6c <HAL_RCC_OscConfig+0x64c>
      }
    }
    else
    {
      /* Check if there is a request to disable the PLL used as System clock source */
      if((RCC_OscInitStruct->PLL.PLLState) == RCC_PLL_OFF)
 8003a2c:	687b      	ldr	r3, [r7, #4]
 8003a2e:	6a5b      	ldr	r3, [r3, #36]	; 0x24
 8003a30:	2b01      	cmp	r3, #1
 8003a32:	d101      	bne.n	8003a38 <HAL_RCC_OscConfig+0x618>
      {
        return HAL_ERROR;
 8003a34:	2301      	movs	r3, #1
 8003a36:	e01a      	b.n	8003a6e <HAL_RCC_OscConfig+0x64e>
      }
      else
      {
        /* Do not return HAL_ERROR if request repeats the current configuration */
        pll_config = RCC->CFGR;
 8003a38:	4b0f      	ldr	r3, [pc, #60]	; (8003a78 <HAL_RCC_OscConfig+0x658>)
 8003a3a:	689b      	ldr	r3, [r3, #8]
 8003a3c:	617b      	str	r3, [r7, #20]
        if((READ_BIT(pll_config, RCC_CFGR_PLLSRC) != RCC_OscInitStruct->PLL.PLLSource) ||
 8003a3e:	697b      	ldr	r3, [r7, #20]
 8003a40:	f403 3280 	and.w	r2, r3, #65536	; 0x10000
 8003a44:	687b      	ldr	r3, [r7, #4]
 8003a46:	6a9b      	ldr	r3, [r3, #40]	; 0x28
 8003a48:	429a      	cmp	r2, r3
 8003a4a:	d10d      	bne.n	8003a68 <HAL_RCC_OscConfig+0x648>
           (READ_BIT(pll_config, RCC_CFGR_PLLMUL) != RCC_OscInitStruct->PLL.PLLMUL) ||
 8003a4c:	697b      	ldr	r3, [r7, #20]
 8003a4e:	f403 1270 	and.w	r2, r3, #3932160	; 0x3c0000
 8003a52:	687b      	ldr	r3, [r7, #4]
 8003a54:	6adb      	ldr	r3, [r3, #44]	; 0x2c
        if((READ_BIT(pll_config, RCC_CFGR_PLLSRC) != RCC_OscInitStruct->PLL.PLLSource) ||
 8003a56:	429a      	cmp	r2, r3
 8003a58:	d106      	bne.n	8003a68 <HAL_RCC_OscConfig+0x648>
           (READ_BIT(pll_config, RCC_CFGR_PLLDIV) != RCC_OscInitStruct->PLL.PLLDIV))
 8003a5a:	697b      	ldr	r3, [r7, #20]
 8003a5c:	f403 0240 	and.w	r2, r3, #12582912	; 0xc00000
 8003a60:	687b      	ldr	r3, [r7, #4]
 8003a62:	6b1b      	ldr	r3, [r3, #48]	; 0x30
           (READ_BIT(pll_config, RCC_CFGR_PLLMUL) != RCC_OscInitStruct->PLL.PLLMUL) ||
 8003a64:	429a      	cmp	r2, r3
 8003a66:	d001      	beq.n	8003a6c <HAL_RCC_OscConfig+0x64c>
        {
          return HAL_ERROR;
 8003a68:	2301      	movs	r3, #1
 8003a6a:	e000      	b.n	8003a6e <HAL_RCC_OscConfig+0x64e>
        }
      }
    }
  }

  return HAL_OK;
 8003a6c:	2300      	movs	r3, #0
}
 8003a6e:	4618      	mov	r0, r3
 8003a70:	3720      	adds	r7, #32
 8003a72:	46bd      	mov	sp, r7
 8003a74:	bd80      	pop	{r7, pc}
 8003a76:	bf00      	nop
 8003a78:	40023800 	.word	0x40023800
 8003a7c:	42470060 	.word	0x42470060

08003a80 <HAL_RCC_ClockConfig>:
  *         HPRE[3:0] bits to ensure that HCLK not exceed the maximum allowed frequency
  *         (for more details refer to section above "Initialization/de-initialization functions")
  * @retval HAL status
  */
HAL_StatusTypeDef HAL_RCC_ClockConfig(RCC_ClkInitTypeDef  *RCC_ClkInitStruct, uint32_t FLatency)
{
 8003a80:	b580      	push	{r7, lr}
 8003a82:	b084      	sub	sp, #16
 8003a84:	af00      	add	r7, sp, #0
 8003a86:	6078      	str	r0, [r7, #4]
 8003a88:	6039      	str	r1, [r7, #0]
  uint32_t tickstart;
  HAL_StatusTypeDef status;

  /* Check the parameters */
  if(RCC_ClkInitStruct == NULL)
 8003a8a:	687b      	ldr	r3, [r7, #4]
 8003a8c:	2b00      	cmp	r3, #0
 8003a8e:	d101      	bne.n	8003a94 <HAL_RCC_ClockConfig+0x14>
  {
    return HAL_ERROR;
 8003a90:	2301      	movs	r3, #1
 8003a92:	e11a      	b.n	8003cca <HAL_RCC_ClockConfig+0x24a>
  /* To correctly read data from FLASH memory, the number of wait states (LATENCY)
  must be correctly programmed according to the frequency of the CPU clock
  (HCLK) and the supply voltage of the device. */

  /* Increasing the number of wait states because of higher CPU frequency */
  if(FLatency > __HAL_FLASH_GET_LATENCY())
 8003a94:	4b8f      	ldr	r3, [pc, #572]	; (8003cd4 <HAL_RCC_ClockConfig+0x254>)
 8003a96:	681b      	ldr	r3, [r3, #0]
 8003a98:	f003 0301 	and.w	r3, r3, #1
 8003a9c:	683a      	ldr	r2, [r7, #0]
 8003a9e:	429a      	cmp	r2, r3
 8003aa0:	d919      	bls.n	8003ad6 <HAL_RCC_ClockConfig+0x56>
  {
    /* Program the new number of wait states to the LATENCY bits in the FLASH_ACR register */
    __HAL_FLASH_SET_LATENCY(FLatency);
 8003aa2:	683b      	ldr	r3, [r7, #0]
 8003aa4:	2b01      	cmp	r3, #1
 8003aa6:	d105      	bne.n	8003ab4 <HAL_RCC_ClockConfig+0x34>
 8003aa8:	4b8a      	ldr	r3, [pc, #552]	; (8003cd4 <HAL_RCC_ClockConfig+0x254>)
 8003aaa:	681b      	ldr	r3, [r3, #0]
 8003aac:	4a89      	ldr	r2, [pc, #548]	; (8003cd4 <HAL_RCC_ClockConfig+0x254>)
 8003aae:	f043 0304 	orr.w	r3, r3, #4
 8003ab2:	6013      	str	r3, [r2, #0]
 8003ab4:	4b87      	ldr	r3, [pc, #540]	; (8003cd4 <HAL_RCC_ClockConfig+0x254>)
 8003ab6:	681b      	ldr	r3, [r3, #0]
 8003ab8:	f023 0201 	bic.w	r2, r3, #1
 8003abc:	4985      	ldr	r1, [pc, #532]	; (8003cd4 <HAL_RCC_ClockConfig+0x254>)
 8003abe:	683b      	ldr	r3, [r7, #0]
 8003ac0:	4313      	orrs	r3, r2
 8003ac2:	600b      	str	r3, [r1, #0]

    /* Check that the new number of wait states is taken into account to access the Flash
    memory by reading the FLASH_ACR register */
    if(__HAL_FLASH_GET_LATENCY() != FLatency)
 8003ac4:	4b83      	ldr	r3, [pc, #524]	; (8003cd4 <HAL_RCC_ClockConfig+0x254>)
 8003ac6:	681b      	ldr	r3, [r3, #0]
 8003ac8:	f003 0301 	and.w	r3, r3, #1
 8003acc:	683a      	ldr	r2, [r7, #0]
 8003ace:	429a      	cmp	r2, r3
 8003ad0:	d001      	beq.n	8003ad6 <HAL_RCC_ClockConfig+0x56>
    {
      return HAL_ERROR;
 8003ad2:	2301      	movs	r3, #1
 8003ad4:	e0f9      	b.n	8003cca <HAL_RCC_ClockConfig+0x24a>
    }
  }

  /*-------------------------- HCLK Configuration --------------------------*/
  if(((RCC_ClkInitStruct->ClockType) & RCC_CLOCKTYPE_HCLK) == RCC_CLOCKTYPE_HCLK)
 8003ad6:	687b      	ldr	r3, [r7, #4]
 8003ad8:	681b      	ldr	r3, [r3, #0]
 8003ada:	f003 0302 	and.w	r3, r3, #2
 8003ade:	2b00      	cmp	r3, #0
 8003ae0:	d008      	beq.n	8003af4 <HAL_RCC_ClockConfig+0x74>
  {
    assert_param(IS_RCC_HCLK(RCC_ClkInitStruct->AHBCLKDivider));
    MODIFY_REG(RCC->CFGR, RCC_CFGR_HPRE, RCC_ClkInitStruct->AHBCLKDivider);
 8003ae2:	4b7d      	ldr	r3, [pc, #500]	; (8003cd8 <HAL_RCC_ClockConfig+0x258>)
 8003ae4:	689b      	ldr	r3, [r3, #8]
 8003ae6:	f023 02f0 	bic.w	r2, r3, #240	; 0xf0
 8003aea:	687b      	ldr	r3, [r7, #4]
 8003aec:	689b      	ldr	r3, [r3, #8]
 8003aee:	497a      	ldr	r1, [pc, #488]	; (8003cd8 <HAL_RCC_ClockConfig+0x258>)
 8003af0:	4313      	orrs	r3, r2
 8003af2:	608b      	str	r3, [r1, #8]
  }

  /*------------------------- SYSCLK Configuration ---------------------------*/
  if(((RCC_ClkInitStruct->ClockType) & RCC_CLOCKTYPE_SYSCLK) == RCC_CLOCKTYPE_SYSCLK)
 8003af4:	687b      	ldr	r3, [r7, #4]
 8003af6:	681b      	ldr	r3, [r3, #0]
 8003af8:	f003 0301 	and.w	r3, r3, #1
 8003afc:	2b00      	cmp	r3, #0
 8003afe:	f000 808e 	beq.w	8003c1e <HAL_RCC_ClockConfig+0x19e>
  {
    assert_param(IS_RCC_SYSCLKSOURCE(RCC_ClkInitStruct->SYSCLKSource));

    /* HSE is selected as System Clock Source */
    if(RCC_ClkInitStruct->SYSCLKSource == RCC_SYSCLKSOURCE_HSE)
 8003b02:	687b      	ldr	r3, [r7, #4]
 8003b04:	685b      	ldr	r3, [r3, #4]
 8003b06:	2b02      	cmp	r3, #2
 8003b08:	d107      	bne.n	8003b1a <HAL_RCC_ClockConfig+0x9a>
    {
      /* Check the HSE ready flag */
      if(__HAL_RCC_GET_FLAG(RCC_FLAG_HSERDY) == 0U)
 8003b0a:	4b73      	ldr	r3, [pc, #460]	; (8003cd8 <HAL_RCC_ClockConfig+0x258>)
 8003b0c:	681b      	ldr	r3, [r3, #0]
 8003b0e:	f403 3300 	and.w	r3, r3, #131072	; 0x20000
 8003b12:	2b00      	cmp	r3, #0
 8003b14:	d121      	bne.n	8003b5a <HAL_RCC_ClockConfig+0xda>
      {
        return HAL_ERROR;
 8003b16:	2301      	movs	r3, #1
 8003b18:	e0d7      	b.n	8003cca <HAL_RCC_ClockConfig+0x24a>
      }
    }
    /* PLL is selected as System Clock Source */
    else if(RCC_ClkInitStruct->SYSCLKSource == RCC_SYSCLKSOURCE_PLLCLK)
 8003b1a:	687b      	ldr	r3, [r7, #4]
 8003b1c:	685b      	ldr	r3, [r3, #4]
 8003b1e:	2b03      	cmp	r3, #3
 8003b20:	d107      	bne.n	8003b32 <HAL_RCC_ClockConfig+0xb2>
    {
      /* Check the PLL ready flag */
      if(__HAL_RCC_GET_FLAG(RCC_FLAG_PLLRDY) == 0U)
 8003b22:	4b6d      	ldr	r3, [pc, #436]	; (8003cd8 <HAL_RCC_ClockConfig+0x258>)
 8003b24:	681b      	ldr	r3, [r3, #0]
 8003b26:	f003 7300 	and.w	r3, r3, #33554432	; 0x2000000
 8003b2a:	2b00      	cmp	r3, #0
 8003b2c:	d115      	bne.n	8003b5a <HAL_RCC_ClockConfig+0xda>
      {
        return HAL_ERROR;
 8003b2e:	2301      	movs	r3, #1
 8003b30:	e0cb      	b.n	8003cca <HAL_RCC_ClockConfig+0x24a>
      }
    }
    /* HSI is selected as System Clock Source */
    else if(RCC_ClkInitStruct->SYSCLKSource == RCC_SYSCLKSOURCE_HSI)
 8003b32:	687b      	ldr	r3, [r7, #4]
 8003b34:	685b      	ldr	r3, [r3, #4]
 8003b36:	2b01      	cmp	r3, #1
 8003b38:	d107      	bne.n	8003b4a <HAL_RCC_ClockConfig+0xca>
    {
      /* Check the HSI ready flag */
      if(__HAL_RCC_GET_FLAG(RCC_FLAG_HSIRDY) == 0U)
 8003b3a:	4b67      	ldr	r3, [pc, #412]	; (8003cd8 <HAL_RCC_ClockConfig+0x258>)
 8003b3c:	681b      	ldr	r3, [r3, #0]
 8003b3e:	f003 0302 	and.w	r3, r3, #2
 8003b42:	2b00      	cmp	r3, #0
 8003b44:	d109      	bne.n	8003b5a <HAL_RCC_ClockConfig+0xda>
      {
        return HAL_ERROR;
 8003b46:	2301      	movs	r3, #1
 8003b48:	e0bf      	b.n	8003cca <HAL_RCC_ClockConfig+0x24a>
    }
    /* MSI is selected as System Clock Source */
    else
    {
      /* Check the MSI ready flag */
      if(__HAL_RCC_GET_FLAG(RCC_FLAG_MSIRDY) == 0U)
 8003b4a:	4b63      	ldr	r3, [pc, #396]	; (8003cd8 <HAL_RCC_ClockConfig+0x258>)
 8003b4c:	681b      	ldr	r3, [r3, #0]
 8003b4e:	f403 7300 	and.w	r3, r3, #512	; 0x200
 8003b52:	2b00      	cmp	r3, #0
 8003b54:	d101      	bne.n	8003b5a <HAL_RCC_ClockConfig+0xda>
      {
        return HAL_ERROR;
 8003b56:	2301      	movs	r3, #1
 8003b58:	e0b7      	b.n	8003cca <HAL_RCC_ClockConfig+0x24a>
      }
    }
    __HAL_RCC_SYSCLK_CONFIG(RCC_ClkInitStruct->SYSCLKSource);
 8003b5a:	4b5f      	ldr	r3, [pc, #380]	; (8003cd8 <HAL_RCC_ClockConfig+0x258>)
 8003b5c:	689b      	ldr	r3, [r3, #8]
 8003b5e:	f023 0203 	bic.w	r2, r3, #3
 8003b62:	687b      	ldr	r3, [r7, #4]
 8003b64:	685b      	ldr	r3, [r3, #4]
 8003b66:	495c      	ldr	r1, [pc, #368]	; (8003cd8 <HAL_RCC_ClockConfig+0x258>)
 8003b68:	4313      	orrs	r3, r2
 8003b6a:	608b      	str	r3, [r1, #8]

    /* Get Start Tick */
    tickstart = HAL_GetTick();
 8003b6c:	f7fe fafc 	bl	8002168 <HAL_GetTick>
 8003b70:	60f8      	str	r0, [r7, #12]

    if(RCC_ClkInitStruct->SYSCLKSource == RCC_SYSCLKSOURCE_HSE)
 8003b72:	687b      	ldr	r3, [r7, #4]
 8003b74:	685b      	ldr	r3, [r3, #4]
 8003b76:	2b02      	cmp	r3, #2
 8003b78:	d112      	bne.n	8003ba0 <HAL_RCC_ClockConfig+0x120>
    {
      while (__HAL_RCC_GET_SYSCLK_SOURCE() != RCC_SYSCLKSOURCE_STATUS_HSE)
 8003b7a:	e00a      	b.n	8003b92 <HAL_RCC_ClockConfig+0x112>
      {
        if((HAL_GetTick() - tickstart ) > CLOCKSWITCH_TIMEOUT_VALUE)
 8003b7c:	f7fe faf4 	bl	8002168 <HAL_GetTick>
 8003b80:	4602      	mov	r2, r0
 8003b82:	68fb      	ldr	r3, [r7, #12]
 8003b84:	1ad3      	subs	r3, r2, r3
 8003b86:	f241 3288 	movw	r2, #5000	; 0x1388
 8003b8a:	4293      	cmp	r3, r2
 8003b8c:	d901      	bls.n	8003b92 <HAL_RCC_ClockConfig+0x112>
        {
          return HAL_TIMEOUT;
 8003b8e:	2303      	movs	r3, #3
 8003b90:	e09b      	b.n	8003cca <HAL_RCC_ClockConfig+0x24a>
      while (__HAL_RCC_GET_SYSCLK_SOURCE() != RCC_SYSCLKSOURCE_STATUS_HSE)
 8003b92:	4b51      	ldr	r3, [pc, #324]	; (8003cd8 <HAL_RCC_ClockConfig+0x258>)
 8003b94:	689b      	ldr	r3, [r3, #8]
 8003b96:	f003 030c 	and.w	r3, r3, #12
 8003b9a:	2b08      	cmp	r3, #8
 8003b9c:	d1ee      	bne.n	8003b7c <HAL_RCC_ClockConfig+0xfc>
 8003b9e:	e03e      	b.n	8003c1e <HAL_RCC_ClockConfig+0x19e>
        }
      }
    }
    else if(RCC_ClkInitStruct->SYSCLKSource == RCC_SYSCLKSOURCE_PLLCLK)
 8003ba0:	687b      	ldr	r3, [r7, #4]
 8003ba2:	685b      	ldr	r3, [r3, #4]
 8003ba4:	2b03      	cmp	r3, #3
 8003ba6:	d112      	bne.n	8003bce <HAL_RCC_ClockConfig+0x14e>
    {
      while (__HAL_RCC_GET_SYSCLK_SOURCE() != RCC_SYSCLKSOURCE_STATUS_PLLCLK)
 8003ba8:	e00a      	b.n	8003bc0 <HAL_RCC_ClockConfig+0x140>
      {
        if((HAL_GetTick() - tickstart ) > CLOCKSWITCH_TIMEOUT_VALUE)
 8003baa:	f7fe fadd 	bl	8002168 <HAL_GetTick>
 8003bae:	4602      	mov	r2, r0
 8003bb0:	68fb      	ldr	r3, [r7, #12]
 8003bb2:	1ad3      	subs	r3, r2, r3
 8003bb4:	f241 3288 	movw	r2, #5000	; 0x1388
 8003bb8:	4293      	cmp	r3, r2
 8003bba:	d901      	bls.n	8003bc0 <HAL_RCC_ClockConfig+0x140>
        {
          return HAL_TIMEOUT;
 8003bbc:	2303      	movs	r3, #3
 8003bbe:	e084      	b.n	8003cca <HAL_RCC_ClockConfig+0x24a>
      while (__HAL_RCC_GET_SYSCLK_SOURCE() != RCC_SYSCLKSOURCE_STATUS_PLLCLK)
 8003bc0:	4b45      	ldr	r3, [pc, #276]	; (8003cd8 <HAL_RCC_ClockConfig+0x258>)
 8003bc2:	689b      	ldr	r3, [r3, #8]
 8003bc4:	f003 030c 	and.w	r3, r3, #12
 8003bc8:	2b0c      	cmp	r3, #12
 8003bca:	d1ee      	bne.n	8003baa <HAL_RCC_ClockConfig+0x12a>
 8003bcc:	e027      	b.n	8003c1e <HAL_RCC_ClockConfig+0x19e>
        }
      }
    }
    else if(RCC_ClkInitStruct->SYSCLKSource == RCC_SYSCLKSOURCE_HSI)
 8003bce:	687b      	ldr	r3, [r7, #4]
 8003bd0:	685b      	ldr	r3, [r3, #4]
 8003bd2:	2b01      	cmp	r3, #1
 8003bd4:	d11d      	bne.n	8003c12 <HAL_RCC_ClockConfig+0x192>
    {
      while (__HAL_RCC_GET_SYSCLK_SOURCE() != RCC_SYSCLKSOURCE_STATUS_HSI)
 8003bd6:	e00a      	b.n	8003bee <HAL_RCC_ClockConfig+0x16e>
      {
        if((HAL_GetTick() - tickstart ) > CLOCKSWITCH_TIMEOUT_VALUE)
 8003bd8:	f7fe fac6 	bl	8002168 <HAL_GetTick>
 8003bdc:	4602      	mov	r2, r0
 8003bde:	68fb      	ldr	r3, [r7, #12]
 8003be0:	1ad3      	subs	r3, r2, r3
 8003be2:	f241 3288 	movw	r2, #5000	; 0x1388
 8003be6:	4293      	cmp	r3, r2
 8003be8:	d901      	bls.n	8003bee <HAL_RCC_ClockConfig+0x16e>
        {
          return HAL_TIMEOUT;
 8003bea:	2303      	movs	r3, #3
 8003bec:	e06d      	b.n	8003cca <HAL_RCC_ClockConfig+0x24a>
      while (__HAL_RCC_GET_SYSCLK_SOURCE() != RCC_SYSCLKSOURCE_STATUS_HSI)
 8003bee:	4b3a      	ldr	r3, [pc, #232]	; (8003cd8 <HAL_RCC_ClockConfig+0x258>)
 8003bf0:	689b      	ldr	r3, [r3, #8]
 8003bf2:	f003 030c 	and.w	r3, r3, #12
 8003bf6:	2b04      	cmp	r3, #4
 8003bf8:	d1ee      	bne.n	8003bd8 <HAL_RCC_ClockConfig+0x158>
 8003bfa:	e010      	b.n	8003c1e <HAL_RCC_ClockConfig+0x19e>
    }
    else
    {
      while(__HAL_RCC_GET_SYSCLK_SOURCE() != RCC_SYSCLKSOURCE_STATUS_MSI)
      {
        if((HAL_GetTick() - tickstart ) > CLOCKSWITCH_TIMEOUT_VALUE)
 8003bfc:	f7fe fab4 	bl	8002168 <HAL_GetTick>
 8003c00:	4602      	mov	r2, r0
 8003c02:	68fb      	ldr	r3, [r7, #12]
 8003c04:	1ad3      	subs	r3, r2, r3
 8003c06:	f241 3288 	movw	r2, #5000	; 0x1388
 8003c0a:	4293      	cmp	r3, r2
 8003c0c:	d901      	bls.n	8003c12 <HAL_RCC_ClockConfig+0x192>
        {
          return HAL_TIMEOUT;
 8003c0e:	2303      	movs	r3, #3
 8003c10:	e05b      	b.n	8003cca <HAL_RCC_ClockConfig+0x24a>
      while(__HAL_RCC_GET_SYSCLK_SOURCE() != RCC_SYSCLKSOURCE_STATUS_MSI)
 8003c12:	4b31      	ldr	r3, [pc, #196]	; (8003cd8 <HAL_RCC_ClockConfig+0x258>)
 8003c14:	689b      	ldr	r3, [r3, #8]
 8003c16:	f003 030c 	and.w	r3, r3, #12
 8003c1a:	2b00      	cmp	r3, #0
 8003c1c:	d1ee      	bne.n	8003bfc <HAL_RCC_ClockConfig+0x17c>
        }
      }
    }
  }
  /* Decreasing the number of wait states because of lower CPU frequency */
  if(FLatency < __HAL_FLASH_GET_LATENCY())
 8003c1e:	4b2d      	ldr	r3, [pc, #180]	; (8003cd4 <HAL_RCC_ClockConfig+0x254>)
 8003c20:	681b      	ldr	r3, [r3, #0]
 8003c22:	f003 0301 	and.w	r3, r3, #1
 8003c26:	683a      	ldr	r2, [r7, #0]
 8003c28:	429a      	cmp	r2, r3
 8003c2a:	d219      	bcs.n	8003c60 <HAL_RCC_ClockConfig+0x1e0>
  {
    /* Program the new number of wait states to the LATENCY bits in the FLASH_ACR register */
    __HAL_FLASH_SET_LATENCY(FLatency);
 8003c2c:	683b      	ldr	r3, [r7, #0]
 8003c2e:	2b01      	cmp	r3, #1
 8003c30:	d105      	bne.n	8003c3e <HAL_RCC_ClockConfig+0x1be>
 8003c32:	4b28      	ldr	r3, [pc, #160]	; (8003cd4 <HAL_RCC_ClockConfig+0x254>)
 8003c34:	681b      	ldr	r3, [r3, #0]
 8003c36:	4a27      	ldr	r2, [pc, #156]	; (8003cd4 <HAL_RCC_ClockConfig+0x254>)
 8003c38:	f043 0304 	orr.w	r3, r3, #4
 8003c3c:	6013      	str	r3, [r2, #0]
 8003c3e:	4b25      	ldr	r3, [pc, #148]	; (8003cd4 <HAL_RCC_ClockConfig+0x254>)
 8003c40:	681b      	ldr	r3, [r3, #0]
 8003c42:	f023 0201 	bic.w	r2, r3, #1
 8003c46:	4923      	ldr	r1, [pc, #140]	; (8003cd4 <HAL_RCC_ClockConfig+0x254>)
 8003c48:	683b      	ldr	r3, [r7, #0]
 8003c4a:	4313      	orrs	r3, r2
 8003c4c:	600b      	str	r3, [r1, #0]

    /* Check that the new number of wait states is taken into account to access the Flash
    memory by reading the FLASH_ACR register */
    if(__HAL_FLASH_GET_LATENCY() != FLatency)
 8003c4e:	4b21      	ldr	r3, [pc, #132]	; (8003cd4 <HAL_RCC_ClockConfig+0x254>)
 8003c50:	681b      	ldr	r3, [r3, #0]
 8003c52:	f003 0301 	and.w	r3, r3, #1
 8003c56:	683a      	ldr	r2, [r7, #0]
 8003c58:	429a      	cmp	r2, r3
 8003c5a:	d001      	beq.n	8003c60 <HAL_RCC_ClockConfig+0x1e0>
    {
      return HAL_ERROR;
 8003c5c:	2301      	movs	r3, #1
 8003c5e:	e034      	b.n	8003cca <HAL_RCC_ClockConfig+0x24a>
    }
  }

  /*-------------------------- PCLK1 Configuration ---------------------------*/
  if(((RCC_ClkInitStruct->ClockType) & RCC_CLOCKTYPE_PCLK1) == RCC_CLOCKTYPE_PCLK1)
 8003c60:	687b      	ldr	r3, [r7, #4]
 8003c62:	681b      	ldr	r3, [r3, #0]
 8003c64:	f003 0304 	and.w	r3, r3, #4
 8003c68:	2b00      	cmp	r3, #0
 8003c6a:	d008      	beq.n	8003c7e <HAL_RCC_ClockConfig+0x1fe>
  {
    assert_param(IS_RCC_PCLK(RCC_ClkInitStruct->APB1CLKDivider));
    MODIFY_REG(RCC->CFGR, RCC_CFGR_PPRE1, RCC_ClkInitStruct->APB1CLKDivider);
 8003c6c:	4b1a      	ldr	r3, [pc, #104]	; (8003cd8 <HAL_RCC_ClockConfig+0x258>)
 8003c6e:	689b      	ldr	r3, [r3, #8]
 8003c70:	f423 62e0 	bic.w	r2, r3, #1792	; 0x700
 8003c74:	687b      	ldr	r3, [r7, #4]
 8003c76:	68db      	ldr	r3, [r3, #12]
 8003c78:	4917      	ldr	r1, [pc, #92]	; (8003cd8 <HAL_RCC_ClockConfig+0x258>)
 8003c7a:	4313      	orrs	r3, r2
 8003c7c:	608b      	str	r3, [r1, #8]
  }

  /*-------------------------- PCLK2 Configuration ---------------------------*/
  if(((RCC_ClkInitStruct->ClockType) & RCC_CLOCKTYPE_PCLK2) == RCC_CLOCKTYPE_PCLK2)
 8003c7e:	687b      	ldr	r3, [r7, #4]
 8003c80:	681b      	ldr	r3, [r3, #0]
 8003c82:	f003 0308 	and.w	r3, r3, #8
 8003c86:	2b00      	cmp	r3, #0
 8003c88:	d009      	beq.n	8003c9e <HAL_RCC_ClockConfig+0x21e>
  {
    assert_param(IS_RCC_PCLK(RCC_ClkInitStruct->APB2CLKDivider));
    MODIFY_REG(RCC->CFGR, RCC_CFGR_PPRE2, ((RCC_ClkInitStruct->APB2CLKDivider) << 3U));
 8003c8a:	4b13      	ldr	r3, [pc, #76]	; (8003cd8 <HAL_RCC_ClockConfig+0x258>)
 8003c8c:	689b      	ldr	r3, [r3, #8]
 8003c8e:	f423 5260 	bic.w	r2, r3, #14336	; 0x3800
 8003c92:	687b      	ldr	r3, [r7, #4]
 8003c94:	691b      	ldr	r3, [r3, #16]
 8003c96:	00db      	lsls	r3, r3, #3
 8003c98:	490f      	ldr	r1, [pc, #60]	; (8003cd8 <HAL_RCC_ClockConfig+0x258>)
 8003c9a:	4313      	orrs	r3, r2
 8003c9c:	608b      	str	r3, [r1, #8]
  }

  /* Update the SystemCoreClock global variable */
  SystemCoreClock = HAL_RCC_GetSysClockFreq() >> AHBPrescTable[(RCC->CFGR & RCC_CFGR_HPRE)>> RCC_CFGR_HPRE_Pos];
 8003c9e:	f000 f823 	bl	8003ce8 <HAL_RCC_GetSysClockFreq>
 8003ca2:	4602      	mov	r2, r0
 8003ca4:	4b0c      	ldr	r3, [pc, #48]	; (8003cd8 <HAL_RCC_ClockConfig+0x258>)
 8003ca6:	689b      	ldr	r3, [r3, #8]
 8003ca8:	091b      	lsrs	r3, r3, #4
 8003caa:	f003 030f 	and.w	r3, r3, #15
 8003cae:	490b      	ldr	r1, [pc, #44]	; (8003cdc <HAL_RCC_ClockConfig+0x25c>)
 8003cb0:	5ccb      	ldrb	r3, [r1, r3]
 8003cb2:	fa22 f303 	lsr.w	r3, r2, r3
 8003cb6:	4a0a      	ldr	r2, [pc, #40]	; (8003ce0 <HAL_RCC_ClockConfig+0x260>)
 8003cb8:	6013      	str	r3, [r2, #0]

  /* Configure the source of time base considering new system clocks settings*/
  status = HAL_InitTick(uwTickPrio);
 8003cba:	4b0a      	ldr	r3, [pc, #40]	; (8003ce4 <HAL_RCC_ClockConfig+0x264>)
 8003cbc:	681b      	ldr	r3, [r3, #0]
 8003cbe:	4618      	mov	r0, r3
 8003cc0:	f7fe fa06 	bl	80020d0 <HAL_InitTick>
 8003cc4:	4603      	mov	r3, r0
 8003cc6:	72fb      	strb	r3, [r7, #11]

  return status;
 8003cc8:	7afb      	ldrb	r3, [r7, #11]
}
 8003cca:	4618      	mov	r0, r3
 8003ccc:	3710      	adds	r7, #16
 8003cce:	46bd      	mov	sp, r7
 8003cd0:	bd80      	pop	{r7, pc}
 8003cd2:	bf00      	nop
 8003cd4:	40023c00 	.word	0x40023c00
 8003cd8:	40023800 	.word	0x40023800
 8003cdc:	08007908 	.word	0x08007908
 8003ce0:	20000014 	.word	0x20000014
 8003ce4:	20000044 	.word	0x20000044

08003ce8 <HAL_RCC_GetSysClockFreq>:
  *         right SYSCLK value. Otherwise, any configuration based on this function will be incorrect.
  *
  * @retval SYSCLK frequency
  */
uint32_t HAL_RCC_GetSysClockFreq(void)
{
 8003ce8:	b5b0      	push	{r4, r5, r7, lr}
 8003cea:	b086      	sub	sp, #24
 8003cec:	af00      	add	r7, sp, #0
  uint32_t tmpreg, pllm, plld, pllvco, msiclkrange, sysclockfreq;

  tmpreg = RCC->CFGR;
 8003cee:	4b61      	ldr	r3, [pc, #388]	; (8003e74 <HAL_RCC_GetSysClockFreq+0x18c>)
 8003cf0:	689b      	ldr	r3, [r3, #8]
 8003cf2:	60fb      	str	r3, [r7, #12]

  /* Get SYSCLK source -------------------------------------------------------*/
  switch (tmpreg & RCC_CFGR_SWS)
 8003cf4:	68fb      	ldr	r3, [r7, #12]
 8003cf6:	f003 030c 	and.w	r3, r3, #12
 8003cfa:	2b0c      	cmp	r3, #12
 8003cfc:	d00d      	beq.n	8003d1a <HAL_RCC_GetSysClockFreq+0x32>
 8003cfe:	2b0c      	cmp	r3, #12
 8003d00:	f200 80a4 	bhi.w	8003e4c <HAL_RCC_GetSysClockFreq+0x164>
 8003d04:	2b04      	cmp	r3, #4
 8003d06:	d002      	beq.n	8003d0e <HAL_RCC_GetSysClockFreq+0x26>
 8003d08:	2b08      	cmp	r3, #8
 8003d0a:	d003      	beq.n	8003d14 <HAL_RCC_GetSysClockFreq+0x2c>
 8003d0c:	e09e      	b.n	8003e4c <HAL_RCC_GetSysClockFreq+0x164>
  {
    case RCC_SYSCLKSOURCE_STATUS_HSI:  /* HSI used as system clock source */
    {
      sysclockfreq = HSI_VALUE;
 8003d0e:	4b5a      	ldr	r3, [pc, #360]	; (8003e78 <HAL_RCC_GetSysClockFreq+0x190>)
 8003d10:	613b      	str	r3, [r7, #16]
      break;
 8003d12:	e0a9      	b.n	8003e68 <HAL_RCC_GetSysClockFreq+0x180>
    }
    case RCC_SYSCLKSOURCE_STATUS_HSE:  /* HSE used as system clock */
    {
      sysclockfreq = HSE_VALUE;
 8003d14:	4b59      	ldr	r3, [pc, #356]	; (8003e7c <HAL_RCC_GetSysClockFreq+0x194>)
 8003d16:	613b      	str	r3, [r7, #16]
      break;
 8003d18:	e0a6      	b.n	8003e68 <HAL_RCC_GetSysClockFreq+0x180>
    }
    case RCC_SYSCLKSOURCE_STATUS_PLLCLK:  /* PLL used as system clock */
    {
      pllm = PLLMulTable[(uint32_t)(tmpreg & RCC_CFGR_PLLMUL) >> RCC_CFGR_PLLMUL_Pos];
 8003d1a:	68fb      	ldr	r3, [r7, #12]
 8003d1c:	0c9b      	lsrs	r3, r3, #18
 8003d1e:	f003 030f 	and.w	r3, r3, #15
 8003d22:	4a57      	ldr	r2, [pc, #348]	; (8003e80 <HAL_RCC_GetSysClockFreq+0x198>)
 8003d24:	5cd3      	ldrb	r3, [r2, r3]
 8003d26:	60bb      	str	r3, [r7, #8]
      plld = ((uint32_t)(tmpreg & RCC_CFGR_PLLDIV) >> RCC_CFGR_PLLDIV_Pos) + 1U;
 8003d28:	68fb      	ldr	r3, [r7, #12]
 8003d2a:	0d9b      	lsrs	r3, r3, #22
 8003d2c:	f003 0303 	and.w	r3, r3, #3
 8003d30:	3301      	adds	r3, #1
 8003d32:	607b      	str	r3, [r7, #4]
      if (__HAL_RCC_GET_PLL_OSCSOURCE() != RCC_PLLSOURCE_HSI)
 8003d34:	4b4f      	ldr	r3, [pc, #316]	; (8003e74 <HAL_RCC_GetSysClockFreq+0x18c>)
 8003d36:	689b      	ldr	r3, [r3, #8]
 8003d38:	f403 3380 	and.w	r3, r3, #65536	; 0x10000
 8003d3c:	2b00      	cmp	r3, #0
 8003d3e:	d041      	beq.n	8003dc4 <HAL_RCC_GetSysClockFreq+0xdc>
      {
        /* HSE used as PLL clock source */
        pllvco = (uint32_t)(((uint64_t)HSE_VALUE * (uint64_t)pllm) / (uint64_t)plld);
 8003d40:	68bb      	ldr	r3, [r7, #8]
 8003d42:	461c      	mov	r4, r3
 8003d44:	f04f 0500 	mov.w	r5, #0
 8003d48:	4620      	mov	r0, r4
 8003d4a:	4629      	mov	r1, r5
 8003d4c:	f04f 0200 	mov.w	r2, #0
 8003d50:	f04f 0300 	mov.w	r3, #0
 8003d54:	014b      	lsls	r3, r1, #5
 8003d56:	ea43 63d0 	orr.w	r3, r3, r0, lsr #27
 8003d5a:	0142      	lsls	r2, r0, #5
 8003d5c:	4610      	mov	r0, r2
 8003d5e:	4619      	mov	r1, r3
 8003d60:	1b00      	subs	r0, r0, r4
 8003d62:	eb61 0105 	sbc.w	r1, r1, r5
 8003d66:	f04f 0200 	mov.w	r2, #0
 8003d6a:	f04f 0300 	mov.w	r3, #0
 8003d6e:	018b      	lsls	r3, r1, #6
 8003d70:	ea43 6390 	orr.w	r3, r3, r0, lsr #26
 8003d74:	0182      	lsls	r2, r0, #6
 8003d76:	1a12      	subs	r2, r2, r0
 8003d78:	eb63 0301 	sbc.w	r3, r3, r1
 8003d7c:	f04f 0000 	mov.w	r0, #0
 8003d80:	f04f 0100 	mov.w	r1, #0
 8003d84:	00d9      	lsls	r1, r3, #3
 8003d86:	ea41 7152 	orr.w	r1, r1, r2, lsr #29
 8003d8a:	00d0      	lsls	r0, r2, #3
 8003d8c:	4602      	mov	r2, r0
 8003d8e:	460b      	mov	r3, r1
 8003d90:	1912      	adds	r2, r2, r4
 8003d92:	eb45 0303 	adc.w	r3, r5, r3
 8003d96:	f04f 0000 	mov.w	r0, #0
 8003d9a:	f04f 0100 	mov.w	r1, #0
 8003d9e:	0259      	lsls	r1, r3, #9
 8003da0:	ea41 51d2 	orr.w	r1, r1, r2, lsr #23
 8003da4:	0250      	lsls	r0, r2, #9
 8003da6:	4602      	mov	r2, r0
 8003da8:	460b      	mov	r3, r1
 8003daa:	4610      	mov	r0, r2
 8003dac:	4619      	mov	r1, r3
 8003dae:	687b      	ldr	r3, [r7, #4]
 8003db0:	461a      	mov	r2, r3
 8003db2:	f04f 0300 	mov.w	r3, #0
 8003db6:	f7fc f9e1 	bl	800017c <__aeabi_uldivmod>
 8003dba:	4602      	mov	r2, r0
 8003dbc:	460b      	mov	r3, r1
 8003dbe:	4613      	mov	r3, r2
 8003dc0:	617b      	str	r3, [r7, #20]
 8003dc2:	e040      	b.n	8003e46 <HAL_RCC_GetSysClockFreq+0x15e>
      }
      else
      {
        /* HSI used as PLL clock source */
        pllvco = (uint32_t)(((uint64_t)HSI_VALUE * (uint64_t)pllm) / (uint64_t)plld);
 8003dc4:	68bb      	ldr	r3, [r7, #8]
 8003dc6:	461c      	mov	r4, r3
 8003dc8:	f04f 0500 	mov.w	r5, #0
 8003dcc:	4620      	mov	r0, r4
 8003dce:	4629      	mov	r1, r5
 8003dd0:	f04f 0200 	mov.w	r2, #0
 8003dd4:	f04f 0300 	mov.w	r3, #0
 8003dd8:	014b      	lsls	r3, r1, #5
 8003dda:	ea43 63d0 	orr.w	r3, r3, r0, lsr #27
 8003dde:	0142      	lsls	r2, r0, #5
 8003de0:	4610      	mov	r0, r2
 8003de2:	4619      	mov	r1, r3
 8003de4:	1b00      	subs	r0, r0, r4
 8003de6:	eb61 0105 	sbc.w	r1, r1, r5
 8003dea:	f04f 0200 	mov.w	r2, #0
 8003dee:	f04f 0300 	mov.w	r3, #0
 8003df2:	018b      	lsls	r3, r1, #6
 8003df4:	ea43 6390 	orr.w	r3, r3, r0, lsr #26
 8003df8:	0182      	lsls	r2, r0, #6
 8003dfa:	1a12      	subs	r2, r2, r0
 8003dfc:	eb63 0301 	sbc.w	r3, r3, r1
 8003e00:	f04f 0000 	mov.w	r0, #0
 8003e04:	f04f 0100 	mov.w	r1, #0
 8003e08:	00d9      	lsls	r1, r3, #3
 8003e0a:	ea41 7152 	orr.w	r1, r1, r2, lsr #29
 8003e0e:	00d0      	lsls	r0, r2, #3
 8003e10:	4602      	mov	r2, r0
 8003e12:	460b      	mov	r3, r1
 8003e14:	1912      	adds	r2, r2, r4
 8003e16:	eb45 0303 	adc.w	r3, r5, r3
 8003e1a:	f04f 0000 	mov.w	r0, #0
 8003e1e:	f04f 0100 	mov.w	r1, #0
 8003e22:	0299      	lsls	r1, r3, #10
 8003e24:	ea41 5192 	orr.w	r1, r1, r2, lsr #22
 8003e28:	0290      	lsls	r0, r2, #10
 8003e2a:	4602      	mov	r2, r0
 8003e2c:	460b      	mov	r3, r1
 8003e2e:	4610      	mov	r0, r2
 8003e30:	4619      	mov	r1, r3
 8003e32:	687b      	ldr	r3, [r7, #4]
 8003e34:	461a      	mov	r2, r3
 8003e36:	f04f 0300 	mov.w	r3, #0
 8003e3a:	f7fc f99f 	bl	800017c <__aeabi_uldivmod>
 8003e3e:	4602      	mov	r2, r0
 8003e40:	460b      	mov	r3, r1
 8003e42:	4613      	mov	r3, r2
 8003e44:	617b      	str	r3, [r7, #20]
      }
      sysclockfreq = pllvco;
 8003e46:	697b      	ldr	r3, [r7, #20]
 8003e48:	613b      	str	r3, [r7, #16]
      break;
 8003e4a:	e00d      	b.n	8003e68 <HAL_RCC_GetSysClockFreq+0x180>
    }
    case RCC_SYSCLKSOURCE_STATUS_MSI:  /* MSI used as system clock source */
    default: /* MSI used as system clock */
    {
      msiclkrange = (RCC->ICSCR & RCC_ICSCR_MSIRANGE ) >> RCC_ICSCR_MSIRANGE_Pos;
 8003e4c:	4b09      	ldr	r3, [pc, #36]	; (8003e74 <HAL_RCC_GetSysClockFreq+0x18c>)
 8003e4e:	685b      	ldr	r3, [r3, #4]
 8003e50:	0b5b      	lsrs	r3, r3, #13
 8003e52:	f003 0307 	and.w	r3, r3, #7
 8003e56:	603b      	str	r3, [r7, #0]
      sysclockfreq = (32768U * (1UL << (msiclkrange + 1U)));
 8003e58:	683b      	ldr	r3, [r7, #0]
 8003e5a:	3301      	adds	r3, #1
 8003e5c:	f44f 4200 	mov.w	r2, #32768	; 0x8000
 8003e60:	fa02 f303 	lsl.w	r3, r2, r3
 8003e64:	613b      	str	r3, [r7, #16]
      break;
 8003e66:	bf00      	nop
    }
  }
  return sysclockfreq;
 8003e68:	693b      	ldr	r3, [r7, #16]
}
 8003e6a:	4618      	mov	r0, r3
 8003e6c:	3718      	adds	r7, #24
 8003e6e:	46bd      	mov	sp, r7
 8003e70:	bdb0      	pop	{r4, r5, r7, pc}
 8003e72:	bf00      	nop
 8003e74:	40023800 	.word	0x40023800
 8003e78:	00f42400 	.word	0x00f42400
 8003e7c:	007a1200 	.word	0x007a1200
 8003e80:	080078fc 	.word	0x080078fc

08003e84 <HAL_RCC_GetHCLKFreq>:
  * @note   The SystemCoreClock CMSIS variable is used to store System Clock Frequency
  *         and updated within this function
  * @retval HCLK frequency
  */
uint32_t HAL_RCC_GetHCLKFreq(void)
{
 8003e84:	b480      	push	{r7}
 8003e86:	af00      	add	r7, sp, #0
  return SystemCoreClock;
 8003e88:	4b02      	ldr	r3, [pc, #8]	; (8003e94 <HAL_RCC_GetHCLKFreq+0x10>)
 8003e8a:	681b      	ldr	r3, [r3, #0]
}
 8003e8c:	4618      	mov	r0, r3
 8003e8e:	46bd      	mov	sp, r7
 8003e90:	bc80      	pop	{r7}
 8003e92:	4770      	bx	lr
 8003e94:	20000014 	.word	0x20000014

08003e98 <HAL_RCC_GetPCLK1Freq>:
  * @note   Each time PCLK1 changes, this function must be called to update the
  *         right PCLK1 value. Otherwise, any configuration based on this function will be incorrect.
  * @retval PCLK1 frequency
  */
uint32_t HAL_RCC_GetPCLK1Freq(void)
{
 8003e98:	b580      	push	{r7, lr}
 8003e9a:	af00      	add	r7, sp, #0
  /* Get HCLK source and Compute PCLK1 frequency ---------------------------*/
  return (HAL_RCC_GetHCLKFreq() >> APBPrescTable[(RCC->CFGR & RCC_CFGR_PPRE1) >> RCC_CFGR_PPRE1_Pos]);
 8003e9c:	f7ff fff2 	bl	8003e84 <HAL_RCC_GetHCLKFreq>
 8003ea0:	4602      	mov	r2, r0
 8003ea2:	4b05      	ldr	r3, [pc, #20]	; (8003eb8 <HAL_RCC_GetPCLK1Freq+0x20>)
 8003ea4:	689b      	ldr	r3, [r3, #8]
 8003ea6:	0a1b      	lsrs	r3, r3, #8
 8003ea8:	f003 0307 	and.w	r3, r3, #7
 8003eac:	4903      	ldr	r1, [pc, #12]	; (8003ebc <HAL_RCC_GetPCLK1Freq+0x24>)
 8003eae:	5ccb      	ldrb	r3, [r1, r3]
 8003eb0:	fa22 f303 	lsr.w	r3, r2, r3
}
 8003eb4:	4618      	mov	r0, r3
 8003eb6:	bd80      	pop	{r7, pc}
 8003eb8:	40023800 	.word	0x40023800
 8003ebc:	08007918 	.word	0x08007918

08003ec0 <HAL_RCC_GetPCLK2Freq>:
  * @note   Each time PCLK2 changes, this function must be called to update the
  *         right PCLK2 value. Otherwise, any configuration based on this function will be incorrect.
  * @retval PCLK2 frequency
  */
uint32_t HAL_RCC_GetPCLK2Freq(void)
{
 8003ec0:	b580      	push	{r7, lr}
 8003ec2:	af00      	add	r7, sp, #0
  /* Get HCLK source and Compute PCLK2 frequency ---------------------------*/
  return (HAL_RCC_GetHCLKFreq()>> APBPrescTable[(RCC->CFGR & RCC_CFGR_PPRE2) >> RCC_CFGR_PPRE2_Pos]);
 8003ec4:	f7ff ffde 	bl	8003e84 <HAL_RCC_GetHCLKFreq>
 8003ec8:	4602      	mov	r2, r0
 8003eca:	4b05      	ldr	r3, [pc, #20]	; (8003ee0 <HAL_RCC_GetPCLK2Freq+0x20>)
 8003ecc:	689b      	ldr	r3, [r3, #8]
 8003ece:	0adb      	lsrs	r3, r3, #11
 8003ed0:	f003 0307 	and.w	r3, r3, #7
 8003ed4:	4903      	ldr	r1, [pc, #12]	; (8003ee4 <HAL_RCC_GetPCLK2Freq+0x24>)
 8003ed6:	5ccb      	ldrb	r3, [r1, r3]
 8003ed8:	fa22 f303 	lsr.w	r3, r2, r3
}
 8003edc:	4618      	mov	r0, r3
 8003ede:	bd80      	pop	{r7, pc}
 8003ee0:	40023800 	.word	0x40023800
 8003ee4:	08007918 	.word	0x08007918

08003ee8 <RCC_SetFlashLatencyFromMSIRange>:
            voltage range
  * @param  MSIrange  MSI range value from RCC_MSIRANGE_0 to RCC_MSIRANGE_6
  * @retval HAL status
  */
static HAL_StatusTypeDef RCC_SetFlashLatencyFromMSIRange(uint32_t MSIrange)
{
 8003ee8:	b480      	push	{r7}
 8003eea:	b087      	sub	sp, #28
 8003eec:	af00      	add	r7, sp, #0
 8003eee:	6078      	str	r0, [r7, #4]
  uint32_t vos;
  uint32_t latency = FLASH_LATENCY_0;  /* default value 0WS */
 8003ef0:	2300      	movs	r3, #0
 8003ef2:	613b      	str	r3, [r7, #16]

  /* HCLK can reach 4 MHz only if AHB prescaler = 1 */
  if (READ_BIT(RCC->CFGR, RCC_CFGR_HPRE) == RCC_SYSCLK_DIV1)
 8003ef4:	4b29      	ldr	r3, [pc, #164]	; (8003f9c <RCC_SetFlashLatencyFromMSIRange+0xb4>)
 8003ef6:	689b      	ldr	r3, [r3, #8]
 8003ef8:	f003 03f0 	and.w	r3, r3, #240	; 0xf0
 8003efc:	2b00      	cmp	r3, #0
 8003efe:	d12c      	bne.n	8003f5a <RCC_SetFlashLatencyFromMSIRange+0x72>
  {
    if(__HAL_RCC_PWR_IS_CLK_ENABLED())
 8003f00:	4b26      	ldr	r3, [pc, #152]	; (8003f9c <RCC_SetFlashLatencyFromMSIRange+0xb4>)
 8003f02:	6a5b      	ldr	r3, [r3, #36]	; 0x24
 8003f04:	f003 5380 	and.w	r3, r3, #268435456	; 0x10000000
 8003f08:	2b00      	cmp	r3, #0
 8003f0a:	d005      	beq.n	8003f18 <RCC_SetFlashLatencyFromMSIRange+0x30>
    {
      vos = READ_BIT(PWR->CR, PWR_CR_VOS);
 8003f0c:	4b24      	ldr	r3, [pc, #144]	; (8003fa0 <RCC_SetFlashLatencyFromMSIRange+0xb8>)
 8003f0e:	681b      	ldr	r3, [r3, #0]
 8003f10:	f403 53c0 	and.w	r3, r3, #6144	; 0x1800
 8003f14:	617b      	str	r3, [r7, #20]
 8003f16:	e016      	b.n	8003f46 <RCC_SetFlashLatencyFromMSIRange+0x5e>
    }
    else
    {
      __HAL_RCC_PWR_CLK_ENABLE();
 8003f18:	4b20      	ldr	r3, [pc, #128]	; (8003f9c <RCC_SetFlashLatencyFromMSIRange+0xb4>)
 8003f1a:	6a5b      	ldr	r3, [r3, #36]	; 0x24
 8003f1c:	4a1f      	ldr	r2, [pc, #124]	; (8003f9c <RCC_SetFlashLatencyFromMSIRange+0xb4>)
 8003f1e:	f043 5380 	orr.w	r3, r3, #268435456	; 0x10000000
 8003f22:	6253      	str	r3, [r2, #36]	; 0x24
 8003f24:	4b1d      	ldr	r3, [pc, #116]	; (8003f9c <RCC_SetFlashLatencyFromMSIRange+0xb4>)
 8003f26:	6a5b      	ldr	r3, [r3, #36]	; 0x24
 8003f28:	f003 5380 	and.w	r3, r3, #268435456	; 0x10000000
 8003f2c:	60fb      	str	r3, [r7, #12]
 8003f2e:	68fb      	ldr	r3, [r7, #12]
      vos = READ_BIT(PWR->CR, PWR_CR_VOS);
 8003f30:	4b1b      	ldr	r3, [pc, #108]	; (8003fa0 <RCC_SetFlashLatencyFromMSIRange+0xb8>)
 8003f32:	681b      	ldr	r3, [r3, #0]
 8003f34:	f403 53c0 	and.w	r3, r3, #6144	; 0x1800
 8003f38:	617b      	str	r3, [r7, #20]
      __HAL_RCC_PWR_CLK_DISABLE();
 8003f3a:	4b18      	ldr	r3, [pc, #96]	; (8003f9c <RCC_SetFlashLatencyFromMSIRange+0xb4>)
 8003f3c:	6a5b      	ldr	r3, [r3, #36]	; 0x24
 8003f3e:	4a17      	ldr	r2, [pc, #92]	; (8003f9c <RCC_SetFlashLatencyFromMSIRange+0xb4>)
 8003f40:	f023 5380 	bic.w	r3, r3, #268435456	; 0x10000000
 8003f44:	6253      	str	r3, [r2, #36]	; 0x24
    }

    /* Check if need to set latency 1 only for Range 3 & HCLK = 4MHz */
    if((vos == PWR_REGULATOR_VOLTAGE_SCALE3) && (MSIrange == RCC_MSIRANGE_6))
 8003f46:	697b      	ldr	r3, [r7, #20]
 8003f48:	f5b3 5fc0 	cmp.w	r3, #6144	; 0x1800
 8003f4c:	d105      	bne.n	8003f5a <RCC_SetFlashLatencyFromMSIRange+0x72>
 8003f4e:	687b      	ldr	r3, [r7, #4]
 8003f50:	f5b3 4f40 	cmp.w	r3, #49152	; 0xc000
 8003f54:	d101      	bne.n	8003f5a <RCC_SetFlashLatencyFromMSIRange+0x72>
    {
      latency = FLASH_LATENCY_1; /* 1WS */
 8003f56:	2301      	movs	r3, #1
 8003f58:	613b      	str	r3, [r7, #16]
    }
  }

  __HAL_FLASH_SET_LATENCY(latency);
 8003f5a:	693b      	ldr	r3, [r7, #16]
 8003f5c:	2b01      	cmp	r3, #1
 8003f5e:	d105      	bne.n	8003f6c <RCC_SetFlashLatencyFromMSIRange+0x84>
 8003f60:	4b10      	ldr	r3, [pc, #64]	; (8003fa4 <RCC_SetFlashLatencyFromMSIRange+0xbc>)
 8003f62:	681b      	ldr	r3, [r3, #0]
 8003f64:	4a0f      	ldr	r2, [pc, #60]	; (8003fa4 <RCC_SetFlashLatencyFromMSIRange+0xbc>)
 8003f66:	f043 0304 	orr.w	r3, r3, #4
 8003f6a:	6013      	str	r3, [r2, #0]
 8003f6c:	4b0d      	ldr	r3, [pc, #52]	; (8003fa4 <RCC_SetFlashLatencyFromMSIRange+0xbc>)
 8003f6e:	681b      	ldr	r3, [r3, #0]
 8003f70:	f023 0201 	bic.w	r2, r3, #1
 8003f74:	490b      	ldr	r1, [pc, #44]	; (8003fa4 <RCC_SetFlashLatencyFromMSIRange+0xbc>)
 8003f76:	693b      	ldr	r3, [r7, #16]
 8003f78:	4313      	orrs	r3, r2
 8003f7a:	600b      	str	r3, [r1, #0]

  /* Check that the new number of wait states is taken into account to access the Flash
     memory by reading the FLASH_ACR register */
  if(__HAL_FLASH_GET_LATENCY() != latency)
 8003f7c:	4b09      	ldr	r3, [pc, #36]	; (8003fa4 <RCC_SetFlashLatencyFromMSIRange+0xbc>)
 8003f7e:	681b      	ldr	r3, [r3, #0]
 8003f80:	f003 0301 	and.w	r3, r3, #1
 8003f84:	693a      	ldr	r2, [r7, #16]
 8003f86:	429a      	cmp	r2, r3
 8003f88:	d001      	beq.n	8003f8e <RCC_SetFlashLatencyFromMSIRange+0xa6>
  {
    return HAL_ERROR;
 8003f8a:	2301      	movs	r3, #1
 8003f8c:	e000      	b.n	8003f90 <RCC_SetFlashLatencyFromMSIRange+0xa8>
  }

  return HAL_OK;
 8003f8e:	2300      	movs	r3, #0
}
 8003f90:	4618      	mov	r0, r3
 8003f92:	371c      	adds	r7, #28
 8003f94:	46bd      	mov	sp, r7
 8003f96:	bc80      	pop	{r7}
 8003f98:	4770      	bx	lr
 8003f9a:	bf00      	nop
 8003f9c:	40023800 	.word	0x40023800
 8003fa0:	40007000 	.word	0x40007000
 8003fa4:	40023c00 	.word	0x40023c00

08003fa8 <HAL_SPI_Init>:
  * @param  hspi pointer to a SPI_HandleTypeDef structure that contains
  *               the configuration information for SPI module.
  * @retval HAL status
  */
HAL_StatusTypeDef HAL_SPI_Init(SPI_HandleTypeDef *hspi)
{
 8003fa8:	b580      	push	{r7, lr}
 8003faa:	b082      	sub	sp, #8
 8003fac:	af00      	add	r7, sp, #0
 8003fae:	6078      	str	r0, [r7, #4]
  /* Check the SPI handle allocation */
  if (hspi == NULL)
 8003fb0:	687b      	ldr	r3, [r7, #4]
 8003fb2:	2b00      	cmp	r3, #0
 8003fb4:	d101      	bne.n	8003fba <HAL_SPI_Init+0x12>
  {
    return HAL_ERROR;
 8003fb6:	2301      	movs	r3, #1
 8003fb8:	e07b      	b.n	80040b2 <HAL_SPI_Init+0x10a>
  assert_param(IS_SPI_BAUDRATE_PRESCALER(hspi->Init.BaudRatePrescaler));
  assert_param(IS_SPI_FIRST_BIT(hspi->Init.FirstBit));
  /* TI mode is not supported on all devices in stm32l1xx series.
     TIMode parameter is mandatory equal to SPI_TIMODE_DISABLE if TI mode is not supported */
  assert_param(IS_SPI_TIMODE(hspi->Init.TIMode));
  if (hspi->Init.TIMode == SPI_TIMODE_DISABLE)
 8003fba:	687b      	ldr	r3, [r7, #4]
 8003fbc:	6a5b      	ldr	r3, [r3, #36]	; 0x24
 8003fbe:	2b00      	cmp	r3, #0
 8003fc0:	d108      	bne.n	8003fd4 <HAL_SPI_Init+0x2c>
  {
    assert_param(IS_SPI_CPOL(hspi->Init.CLKPolarity));
    assert_param(IS_SPI_CPHA(hspi->Init.CLKPhase));

    if (hspi->Init.Mode == SPI_MODE_MASTER)
 8003fc2:	687b      	ldr	r3, [r7, #4]
 8003fc4:	685b      	ldr	r3, [r3, #4]
 8003fc6:	f5b3 7f82 	cmp.w	r3, #260	; 0x104
 8003fca:	d009      	beq.n	8003fe0 <HAL_SPI_Init+0x38>
      assert_param(IS_SPI_BAUDRATE_PRESCALER(hspi->Init.BaudRatePrescaler));
    }
    else
    {
      /* Baudrate prescaler not use in Motoraola Slave mode. force to default value */
      hspi->Init.BaudRatePrescaler = SPI_BAUDRATEPRESCALER_2;
 8003fcc:	687b      	ldr	r3, [r7, #4]
 8003fce:	2200      	movs	r2, #0
 8003fd0:	61da      	str	r2, [r3, #28]
 8003fd2:	e005      	b.n	8003fe0 <HAL_SPI_Init+0x38>
  else
  {
    assert_param(IS_SPI_BAUDRATE_PRESCALER(hspi->Init.BaudRatePrescaler));

    /* Force polarity and phase to TI protocaol requirements */
    hspi->Init.CLKPolarity = SPI_POLARITY_LOW;
 8003fd4:	687b      	ldr	r3, [r7, #4]
 8003fd6:	2200      	movs	r2, #0
 8003fd8:	611a      	str	r2, [r3, #16]
    hspi->Init.CLKPhase    = SPI_PHASE_1EDGE;
 8003fda:	687b      	ldr	r3, [r7, #4]
 8003fdc:	2200      	movs	r2, #0
 8003fde:	615a      	str	r2, [r3, #20]
  if (hspi->Init.CRCCalculation == SPI_CRCCALCULATION_ENABLE)
  {
    assert_param(IS_SPI_CRC_POLYNOMIAL(hspi->Init.CRCPolynomial));
  }
#else
  hspi->Init.CRCCalculation = SPI_CRCCALCULATION_DISABLE;
 8003fe0:	687b      	ldr	r3, [r7, #4]
 8003fe2:	2200      	movs	r2, #0
 8003fe4:	629a      	str	r2, [r3, #40]	; 0x28
#endif /* USE_SPI_CRC */

  if (hspi->State == HAL_SPI_STATE_RESET)
 8003fe6:	687b      	ldr	r3, [r7, #4]
 8003fe8:	f893 3051 	ldrb.w	r3, [r3, #81]	; 0x51
 8003fec:	b2db      	uxtb	r3, r3
 8003fee:	2b00      	cmp	r3, #0
 8003ff0:	d106      	bne.n	8004000 <HAL_SPI_Init+0x58>
  {
    /* Allocate lock resource and initialize it */
    hspi->Lock = HAL_UNLOCKED;
 8003ff2:	687b      	ldr	r3, [r7, #4]
 8003ff4:	2200      	movs	r2, #0
 8003ff6:	f883 2050 	strb.w	r2, [r3, #80]	; 0x50

    /* Init the low level hardware : GPIO, CLOCK, NVIC... */
    hspi->MspInitCallback(hspi);
#else
    /* Init the low level hardware : GPIO, CLOCK, NVIC... */
    HAL_SPI_MspInit(hspi);
 8003ffa:	6878      	ldr	r0, [r7, #4]
 8003ffc:	f7fd fdf0 	bl	8001be0 <HAL_SPI_MspInit>
#endif /* USE_HAL_SPI_REGISTER_CALLBACKS */
  }

  hspi->State = HAL_SPI_STATE_BUSY;
 8004000:	687b      	ldr	r3, [r7, #4]
 8004002:	2202      	movs	r2, #2
 8004004:	f883 2051 	strb.w	r2, [r3, #81]	; 0x51

  /* Disable the selected SPI peripheral */
  __HAL_SPI_DISABLE(hspi);
 8004008:	687b      	ldr	r3, [r7, #4]
 800400a:	681b      	ldr	r3, [r3, #0]
 800400c:	681a      	ldr	r2, [r3, #0]
 800400e:	687b      	ldr	r3, [r7, #4]
 8004010:	681b      	ldr	r3, [r3, #0]
 8004012:	f022 0240 	bic.w	r2, r2, #64	; 0x40
 8004016:	601a      	str	r2, [r3, #0]

  /*----------------------- SPIx CR1 & CR2 Configuration ---------------------*/
  /* Configure : SPI Mode, Communication Mode, Data size, Clock polarity and phase, NSS management,
  Communication speed, First bit and CRC calculation state */
  WRITE_REG(hspi->Instance->CR1, ((hspi->Init.Mode & (SPI_CR1_MSTR | SPI_CR1_SSI)) |
 8004018:	687b      	ldr	r3, [r7, #4]
 800401a:	685b      	ldr	r3, [r3, #4]
 800401c:	f403 7282 	and.w	r2, r3, #260	; 0x104
 8004020:	687b      	ldr	r3, [r7, #4]
 8004022:	689b      	ldr	r3, [r3, #8]
 8004024:	f403 4304 	and.w	r3, r3, #33792	; 0x8400
 8004028:	431a      	orrs	r2, r3
 800402a:	687b      	ldr	r3, [r7, #4]
 800402c:	68db      	ldr	r3, [r3, #12]
 800402e:	f403 6300 	and.w	r3, r3, #2048	; 0x800
 8004032:	431a      	orrs	r2, r3
 8004034:	687b      	ldr	r3, [r7, #4]
 8004036:	691b      	ldr	r3, [r3, #16]
 8004038:	f003 0302 	and.w	r3, r3, #2
 800403c:	431a      	orrs	r2, r3
 800403e:	687b      	ldr	r3, [r7, #4]
 8004040:	695b      	ldr	r3, [r3, #20]
 8004042:	f003 0301 	and.w	r3, r3, #1
 8004046:	431a      	orrs	r2, r3
 8004048:	687b      	ldr	r3, [r7, #4]
 800404a:	699b      	ldr	r3, [r3, #24]
 800404c:	f403 7300 	and.w	r3, r3, #512	; 0x200
 8004050:	431a      	orrs	r2, r3
 8004052:	687b      	ldr	r3, [r7, #4]
 8004054:	69db      	ldr	r3, [r3, #28]
 8004056:	f003 0338 	and.w	r3, r3, #56	; 0x38
 800405a:	431a      	orrs	r2, r3
 800405c:	687b      	ldr	r3, [r7, #4]
 800405e:	6a1b      	ldr	r3, [r3, #32]
 8004060:	f003 0380 	and.w	r3, r3, #128	; 0x80
 8004064:	ea42 0103 	orr.w	r1, r2, r3
 8004068:	687b      	ldr	r3, [r7, #4]
 800406a:	6a9b      	ldr	r3, [r3, #40]	; 0x28
 800406c:	f403 5200 	and.w	r2, r3, #8192	; 0x2000
 8004070:	687b      	ldr	r3, [r7, #4]
 8004072:	681b      	ldr	r3, [r3, #0]
 8004074:	430a      	orrs	r2, r1
 8004076:	601a      	str	r2, [r3, #0]
                                  (hspi->Init.FirstBit  & SPI_CR1_LSBFIRST) |
                                  (hspi->Init.CRCCalculation & SPI_CR1_CRCEN)));

#if defined(SPI_CR2_FRF)
  /* Configure : NSS management, TI Mode */
  WRITE_REG(hspi->Instance->CR2, (((hspi->Init.NSS >> 16U) & SPI_CR2_SSOE) | (hspi->Init.TIMode & SPI_CR2_FRF)));
 8004078:	687b      	ldr	r3, [r7, #4]
 800407a:	699b      	ldr	r3, [r3, #24]
 800407c:	0c1b      	lsrs	r3, r3, #16
 800407e:	f003 0104 	and.w	r1, r3, #4
 8004082:	687b      	ldr	r3, [r7, #4]
 8004084:	6a5b      	ldr	r3, [r3, #36]	; 0x24
 8004086:	f003 0210 	and.w	r2, r3, #16
 800408a:	687b      	ldr	r3, [r7, #4]
 800408c:	681b      	ldr	r3, [r3, #0]
 800408e:	430a      	orrs	r2, r1
 8004090:	605a      	str	r2, [r3, #4]
  }
#endif /* USE_SPI_CRC */

#if defined(SPI_I2SCFGR_I2SMOD)
  /* Activate the SPI mode (Make sure that I2SMOD bit in I2SCFGR register is reset) */
  CLEAR_BIT(hspi->Instance->I2SCFGR, SPI_I2SCFGR_I2SMOD);
 8004092:	687b      	ldr	r3, [r7, #4]
 8004094:	681b      	ldr	r3, [r3, #0]
 8004096:	69da      	ldr	r2, [r3, #28]
 8004098:	687b      	ldr	r3, [r7, #4]
 800409a:	681b      	ldr	r3, [r3, #0]
 800409c:	f422 6200 	bic.w	r2, r2, #2048	; 0x800
 80040a0:	61da      	str	r2, [r3, #28]
#endif /* SPI_I2SCFGR_I2SMOD */

  hspi->ErrorCode = HAL_SPI_ERROR_NONE;
 80040a2:	687b      	ldr	r3, [r7, #4]
 80040a4:	2200      	movs	r2, #0
 80040a6:	655a      	str	r2, [r3, #84]	; 0x54
  hspi->State     = HAL_SPI_STATE_READY;
 80040a8:	687b      	ldr	r3, [r7, #4]
 80040aa:	2201      	movs	r2, #1
 80040ac:	f883 2051 	strb.w	r2, [r3, #81]	; 0x51

  return HAL_OK;
 80040b0:	2300      	movs	r3, #0
}
 80040b2:	4618      	mov	r0, r3
 80040b4:	3708      	adds	r7, #8
 80040b6:	46bd      	mov	sp, r7
 80040b8:	bd80      	pop	{r7, pc}

080040ba <HAL_SPI_Transmit>:
  * @param  Size amount of data to be sent
  * @param  Timeout Timeout duration
  * @retval HAL status
  */
HAL_StatusTypeDef HAL_SPI_Transmit(SPI_HandleTypeDef *hspi, uint8_t *pData, uint16_t Size, uint32_t Timeout)
{
 80040ba:	b580      	push	{r7, lr}
 80040bc:	b088      	sub	sp, #32
 80040be:	af00      	add	r7, sp, #0
 80040c0:	60f8      	str	r0, [r7, #12]
 80040c2:	60b9      	str	r1, [r7, #8]
 80040c4:	603b      	str	r3, [r7, #0]
 80040c6:	4613      	mov	r3, r2
 80040c8:	80fb      	strh	r3, [r7, #6]
  uint32_t tickstart;
  HAL_StatusTypeDef errorcode = HAL_OK;
 80040ca:	2300      	movs	r3, #0
 80040cc:	77fb      	strb	r3, [r7, #31]

  /* Check Direction parameter */
  assert_param(IS_SPI_DIRECTION_2LINES_OR_1LINE(hspi->Init.Direction));

  /* Process Locked */
  __HAL_LOCK(hspi);
 80040ce:	68fb      	ldr	r3, [r7, #12]
 80040d0:	f893 3050 	ldrb.w	r3, [r3, #80]	; 0x50
 80040d4:	2b01      	cmp	r3, #1
 80040d6:	d101      	bne.n	80040dc <HAL_SPI_Transmit+0x22>
 80040d8:	2302      	movs	r3, #2
 80040da:	e12d      	b.n	8004338 <HAL_SPI_Transmit+0x27e>
 80040dc:	68fb      	ldr	r3, [r7, #12]
 80040de:	2201      	movs	r2, #1
 80040e0:	f883 2050 	strb.w	r2, [r3, #80]	; 0x50

  /* Init tickstart for timeout management*/
  tickstart = HAL_GetTick();
 80040e4:	f7fe f840 	bl	8002168 <HAL_GetTick>
 80040e8:	61b8      	str	r0, [r7, #24]
  initial_TxXferCount = Size;
 80040ea:	88fb      	ldrh	r3, [r7, #6]
 80040ec:	82fb      	strh	r3, [r7, #22]

  if (hspi->State != HAL_SPI_STATE_READY)
 80040ee:	68fb      	ldr	r3, [r7, #12]
 80040f0:	f893 3051 	ldrb.w	r3, [r3, #81]	; 0x51
 80040f4:	b2db      	uxtb	r3, r3
 80040f6:	2b01      	cmp	r3, #1
 80040f8:	d002      	beq.n	8004100 <HAL_SPI_Transmit+0x46>
  {
    errorcode = HAL_BUSY;
 80040fa:	2302      	movs	r3, #2
 80040fc:	77fb      	strb	r3, [r7, #31]
    goto error;
 80040fe:	e116      	b.n	800432e <HAL_SPI_Transmit+0x274>
  }

  if ((pData == NULL) || (Size == 0U))
 8004100:	68bb      	ldr	r3, [r7, #8]
 8004102:	2b00      	cmp	r3, #0
 8004104:	d002      	beq.n	800410c <HAL_SPI_Transmit+0x52>
 8004106:	88fb      	ldrh	r3, [r7, #6]
 8004108:	2b00      	cmp	r3, #0
 800410a:	d102      	bne.n	8004112 <HAL_SPI_Transmit+0x58>
  {
    errorcode = HAL_ERROR;
 800410c:	2301      	movs	r3, #1
 800410e:	77fb      	strb	r3, [r7, #31]
    goto error;
 8004110:	e10d      	b.n	800432e <HAL_SPI_Transmit+0x274>
  }

  /* Set the transaction information */
  hspi->State       = HAL_SPI_STATE_BUSY_TX;
 8004112:	68fb      	ldr	r3, [r7, #12]
 8004114:	2203      	movs	r2, #3
 8004116:	f883 2051 	strb.w	r2, [r3, #81]	; 0x51
  hspi->ErrorCode   = HAL_SPI_ERROR_NONE;
 800411a:	68fb      	ldr	r3, [r7, #12]
 800411c:	2200      	movs	r2, #0
 800411e:	655a      	str	r2, [r3, #84]	; 0x54
  hspi->pTxBuffPtr  = (uint8_t *)pData;
 8004120:	68fb      	ldr	r3, [r7, #12]
 8004122:	68ba      	ldr	r2, [r7, #8]
 8004124:	631a      	str	r2, [r3, #48]	; 0x30
  hspi->TxXferSize  = Size;
 8004126:	68fb      	ldr	r3, [r7, #12]
 8004128:	88fa      	ldrh	r2, [r7, #6]
 800412a:	869a      	strh	r2, [r3, #52]	; 0x34
  hspi->TxXferCount = Size;
 800412c:	68fb      	ldr	r3, [r7, #12]
 800412e:	88fa      	ldrh	r2, [r7, #6]
 8004130:	86da      	strh	r2, [r3, #54]	; 0x36

  /*Init field not used in handle to zero */
  hspi->pRxBuffPtr  = (uint8_t *)NULL;
 8004132:	68fb      	ldr	r3, [r7, #12]
 8004134:	2200      	movs	r2, #0
 8004136:	639a      	str	r2, [r3, #56]	; 0x38
  hspi->RxXferSize  = 0U;
 8004138:	68fb      	ldr	r3, [r7, #12]
 800413a:	2200      	movs	r2, #0
 800413c:	879a      	strh	r2, [r3, #60]	; 0x3c
  hspi->RxXferCount = 0U;
 800413e:	68fb      	ldr	r3, [r7, #12]
 8004140:	2200      	movs	r2, #0
 8004142:	87da      	strh	r2, [r3, #62]	; 0x3e
  hspi->TxISR       = NULL;
 8004144:	68fb      	ldr	r3, [r7, #12]
 8004146:	2200      	movs	r2, #0
 8004148:	645a      	str	r2, [r3, #68]	; 0x44
  hspi->RxISR       = NULL;
 800414a:	68fb      	ldr	r3, [r7, #12]
 800414c:	2200      	movs	r2, #0
 800414e:	641a      	str	r2, [r3, #64]	; 0x40

  /* Configure communication direction : 1Line */
  if (hspi->Init.Direction == SPI_DIRECTION_1LINE)
 8004150:	68fb      	ldr	r3, [r7, #12]
 8004152:	689b      	ldr	r3, [r3, #8]
 8004154:	f5b3 4f00 	cmp.w	r3, #32768	; 0x8000
 8004158:	d10f      	bne.n	800417a <HAL_SPI_Transmit+0xc0>
  {
    /* Disable SPI Peripheral before set 1Line direction (BIDIOE bit) */
    __HAL_SPI_DISABLE(hspi);
 800415a:	68fb      	ldr	r3, [r7, #12]
 800415c:	681b      	ldr	r3, [r3, #0]
 800415e:	681a      	ldr	r2, [r3, #0]
 8004160:	68fb      	ldr	r3, [r7, #12]
 8004162:	681b      	ldr	r3, [r3, #0]
 8004164:	f022 0240 	bic.w	r2, r2, #64	; 0x40
 8004168:	601a      	str	r2, [r3, #0]
    SPI_1LINE_TX(hspi);
 800416a:	68fb      	ldr	r3, [r7, #12]
 800416c:	681b      	ldr	r3, [r3, #0]
 800416e:	681a      	ldr	r2, [r3, #0]
 8004170:	68fb      	ldr	r3, [r7, #12]
 8004172:	681b      	ldr	r3, [r3, #0]
 8004174:	f442 4280 	orr.w	r2, r2, #16384	; 0x4000
 8004178:	601a      	str	r2, [r3, #0]
    SPI_RESET_CRC(hspi);
  }
#endif /* USE_SPI_CRC */

  /* Check if the SPI is already enabled */
  if ((hspi->Instance->CR1 & SPI_CR1_SPE) != SPI_CR1_SPE)
 800417a:	68fb      	ldr	r3, [r7, #12]
 800417c:	681b      	ldr	r3, [r3, #0]
 800417e:	681b      	ldr	r3, [r3, #0]
 8004180:	f003 0340 	and.w	r3, r3, #64	; 0x40
 8004184:	2b40      	cmp	r3, #64	; 0x40
 8004186:	d007      	beq.n	8004198 <HAL_SPI_Transmit+0xde>
  {
    /* Enable SPI peripheral */
    __HAL_SPI_ENABLE(hspi);
 8004188:	68fb      	ldr	r3, [r7, #12]
 800418a:	681b      	ldr	r3, [r3, #0]
 800418c:	681a      	ldr	r2, [r3, #0]
 800418e:	68fb      	ldr	r3, [r7, #12]
 8004190:	681b      	ldr	r3, [r3, #0]
 8004192:	f042 0240 	orr.w	r2, r2, #64	; 0x40
 8004196:	601a      	str	r2, [r3, #0]
  }

  /* Transmit data in 16 Bit mode */
  if (hspi->Init.DataSize == SPI_DATASIZE_16BIT)
 8004198:	68fb      	ldr	r3, [r7, #12]
 800419a:	68db      	ldr	r3, [r3, #12]
 800419c:	f5b3 6f00 	cmp.w	r3, #2048	; 0x800
 80041a0:	d14f      	bne.n	8004242 <HAL_SPI_Transmit+0x188>
  {
    if ((hspi->Init.Mode == SPI_MODE_SLAVE) || (initial_TxXferCount == 0x01U))
 80041a2:	68fb      	ldr	r3, [r7, #12]
 80041a4:	685b      	ldr	r3, [r3, #4]
 80041a6:	2b00      	cmp	r3, #0
 80041a8:	d002      	beq.n	80041b0 <HAL_SPI_Transmit+0xf6>
 80041aa:	8afb      	ldrh	r3, [r7, #22]
 80041ac:	2b01      	cmp	r3, #1
 80041ae:	d142      	bne.n	8004236 <HAL_SPI_Transmit+0x17c>
    {
      hspi->Instance->DR = *((uint16_t *)hspi->pTxBuffPtr);
 80041b0:	68fb      	ldr	r3, [r7, #12]
 80041b2:	6b1b      	ldr	r3, [r3, #48]	; 0x30
 80041b4:	881a      	ldrh	r2, [r3, #0]
 80041b6:	68fb      	ldr	r3, [r7, #12]
 80041b8:	681b      	ldr	r3, [r3, #0]
 80041ba:	60da      	str	r2, [r3, #12]
      hspi->pTxBuffPtr += sizeof(uint16_t);
 80041bc:	68fb      	ldr	r3, [r7, #12]
 80041be:	6b1b      	ldr	r3, [r3, #48]	; 0x30
 80041c0:	1c9a      	adds	r2, r3, #2
 80041c2:	68fb      	ldr	r3, [r7, #12]
 80041c4:	631a      	str	r2, [r3, #48]	; 0x30
      hspi->TxXferCount--;
 80041c6:	68fb      	ldr	r3, [r7, #12]
 80041c8:	8edb      	ldrh	r3, [r3, #54]	; 0x36
 80041ca:	b29b      	uxth	r3, r3
 80041cc:	3b01      	subs	r3, #1
 80041ce:	b29a      	uxth	r2, r3
 80041d0:	68fb      	ldr	r3, [r7, #12]
 80041d2:	86da      	strh	r2, [r3, #54]	; 0x36
    }
    /* Transmit data in 16 Bit mode */
    while (hspi->TxXferCount > 0U)
 80041d4:	e02f      	b.n	8004236 <HAL_SPI_Transmit+0x17c>
    {
      /* Wait until TXE flag is set to send data */
      if (__HAL_SPI_GET_FLAG(hspi, SPI_FLAG_TXE))
 80041d6:	68fb      	ldr	r3, [r7, #12]
 80041d8:	681b      	ldr	r3, [r3, #0]
 80041da:	689b      	ldr	r3, [r3, #8]
 80041dc:	f003 0302 	and.w	r3, r3, #2
 80041e0:	2b02      	cmp	r3, #2
 80041e2:	d112      	bne.n	800420a <HAL_SPI_Transmit+0x150>
      {
        hspi->Instance->DR = *((uint16_t *)hspi->pTxBuffPtr);
 80041e4:	68fb      	ldr	r3, [r7, #12]
 80041e6:	6b1b      	ldr	r3, [r3, #48]	; 0x30
 80041e8:	881a      	ldrh	r2, [r3, #0]
 80041ea:	68fb      	ldr	r3, [r7, #12]
 80041ec:	681b      	ldr	r3, [r3, #0]
 80041ee:	60da      	str	r2, [r3, #12]
        hspi->pTxBuffPtr += sizeof(uint16_t);
 80041f0:	68fb      	ldr	r3, [r7, #12]
 80041f2:	6b1b      	ldr	r3, [r3, #48]	; 0x30
 80041f4:	1c9a      	adds	r2, r3, #2
 80041f6:	68fb      	ldr	r3, [r7, #12]
 80041f8:	631a      	str	r2, [r3, #48]	; 0x30
        hspi->TxXferCount--;
 80041fa:	68fb      	ldr	r3, [r7, #12]
 80041fc:	8edb      	ldrh	r3, [r3, #54]	; 0x36
 80041fe:	b29b      	uxth	r3, r3
 8004200:	3b01      	subs	r3, #1
 8004202:	b29a      	uxth	r2, r3
 8004204:	68fb      	ldr	r3, [r7, #12]
 8004206:	86da      	strh	r2, [r3, #54]	; 0x36
 8004208:	e015      	b.n	8004236 <HAL_SPI_Transmit+0x17c>
      }
      else
      {
        /* Timeout management */
        if ((((HAL_GetTick() - tickstart) >=  Timeout) && (Timeout != HAL_MAX_DELAY)) || (Timeout == 0U))
 800420a:	f7fd ffad 	bl	8002168 <HAL_GetTick>
 800420e:	4602      	mov	r2, r0
 8004210:	69bb      	ldr	r3, [r7, #24]
 8004212:	1ad3      	subs	r3, r2, r3
 8004214:	683a      	ldr	r2, [r7, #0]
 8004216:	429a      	cmp	r2, r3
 8004218:	d803      	bhi.n	8004222 <HAL_SPI_Transmit+0x168>
 800421a:	683b      	ldr	r3, [r7, #0]
 800421c:	f1b3 3fff 	cmp.w	r3, #4294967295
 8004220:	d102      	bne.n	8004228 <HAL_SPI_Transmit+0x16e>
 8004222:	683b      	ldr	r3, [r7, #0]
 8004224:	2b00      	cmp	r3, #0
 8004226:	d106      	bne.n	8004236 <HAL_SPI_Transmit+0x17c>
        {
          errorcode = HAL_TIMEOUT;
 8004228:	2303      	movs	r3, #3
 800422a:	77fb      	strb	r3, [r7, #31]
          hspi->State = HAL_SPI_STATE_READY;
 800422c:	68fb      	ldr	r3, [r7, #12]
 800422e:	2201      	movs	r2, #1
 8004230:	f883 2051 	strb.w	r2, [r3, #81]	; 0x51
          goto error;
 8004234:	e07b      	b.n	800432e <HAL_SPI_Transmit+0x274>
    while (hspi->TxXferCount > 0U)
 8004236:	68fb      	ldr	r3, [r7, #12]
 8004238:	8edb      	ldrh	r3, [r3, #54]	; 0x36
 800423a:	b29b      	uxth	r3, r3
 800423c:	2b00      	cmp	r3, #0
 800423e:	d1ca      	bne.n	80041d6 <HAL_SPI_Transmit+0x11c>
 8004240:	e050      	b.n	80042e4 <HAL_SPI_Transmit+0x22a>
    }
  }
  /* Transmit data in 8 Bit mode */
  else
  {
    if ((hspi->Init.Mode == SPI_MODE_SLAVE) || (initial_TxXferCount == 0x01U))
 8004242:	68fb      	ldr	r3, [r7, #12]
 8004244:	685b      	ldr	r3, [r3, #4]
 8004246:	2b00      	cmp	r3, #0
 8004248:	d002      	beq.n	8004250 <HAL_SPI_Transmit+0x196>
 800424a:	8afb      	ldrh	r3, [r7, #22]
 800424c:	2b01      	cmp	r3, #1
 800424e:	d144      	bne.n	80042da <HAL_SPI_Transmit+0x220>
    {
      *((__IO uint8_t *)&hspi->Instance->DR) = (*hspi->pTxBuffPtr);
 8004250:	68fb      	ldr	r3, [r7, #12]
 8004252:	6b1a      	ldr	r2, [r3, #48]	; 0x30
 8004254:	68fb      	ldr	r3, [r7, #12]
 8004256:	681b      	ldr	r3, [r3, #0]
 8004258:	330c      	adds	r3, #12
 800425a:	7812      	ldrb	r2, [r2, #0]
 800425c:	701a      	strb	r2, [r3, #0]
      hspi->pTxBuffPtr += sizeof(uint8_t);
 800425e:	68fb      	ldr	r3, [r7, #12]
 8004260:	6b1b      	ldr	r3, [r3, #48]	; 0x30
 8004262:	1c5a      	adds	r2, r3, #1
 8004264:	68fb      	ldr	r3, [r7, #12]
 8004266:	631a      	str	r2, [r3, #48]	; 0x30
      hspi->TxXferCount--;
 8004268:	68fb      	ldr	r3, [r7, #12]
 800426a:	8edb      	ldrh	r3, [r3, #54]	; 0x36
 800426c:	b29b      	uxth	r3, r3
 800426e:	3b01      	subs	r3, #1
 8004270:	b29a      	uxth	r2, r3
 8004272:	68fb      	ldr	r3, [r7, #12]
 8004274:	86da      	strh	r2, [r3, #54]	; 0x36
    }
    while (hspi->TxXferCount > 0U)
 8004276:	e030      	b.n	80042da <HAL_SPI_Transmit+0x220>
    {
      /* Wait until TXE flag is set to send data */
      if (__HAL_SPI_GET_FLAG(hspi, SPI_FLAG_TXE))
 8004278:	68fb      	ldr	r3, [r7, #12]
 800427a:	681b      	ldr	r3, [r3, #0]
 800427c:	689b      	ldr	r3, [r3, #8]
 800427e:	f003 0302 	and.w	r3, r3, #2
 8004282:	2b02      	cmp	r3, #2
 8004284:	d113      	bne.n	80042ae <HAL_SPI_Transmit+0x1f4>
      {
        *((__IO uint8_t *)&hspi->Instance->DR) = (*hspi->pTxBuffPtr);
 8004286:	68fb      	ldr	r3, [r7, #12]
 8004288:	6b1a      	ldr	r2, [r3, #48]	; 0x30
 800428a:	68fb      	ldr	r3, [r7, #12]
 800428c:	681b      	ldr	r3, [r3, #0]
 800428e:	330c      	adds	r3, #12
 8004290:	7812      	ldrb	r2, [r2, #0]
 8004292:	701a      	strb	r2, [r3, #0]
        hspi->pTxBuffPtr += sizeof(uint8_t);
 8004294:	68fb      	ldr	r3, [r7, #12]
 8004296:	6b1b      	ldr	r3, [r3, #48]	; 0x30
 8004298:	1c5a      	adds	r2, r3, #1
 800429a:	68fb      	ldr	r3, [r7, #12]
 800429c:	631a      	str	r2, [r3, #48]	; 0x30
        hspi->TxXferCount--;
 800429e:	68fb      	ldr	r3, [r7, #12]
 80042a0:	8edb      	ldrh	r3, [r3, #54]	; 0x36
 80042a2:	b29b      	uxth	r3, r3
 80042a4:	3b01      	subs	r3, #1
 80042a6:	b29a      	uxth	r2, r3
 80042a8:	68fb      	ldr	r3, [r7, #12]
 80042aa:	86da      	strh	r2, [r3, #54]	; 0x36
 80042ac:	e015      	b.n	80042da <HAL_SPI_Transmit+0x220>
      }
      else
      {
        /* Timeout management */
        if ((((HAL_GetTick() - tickstart) >=  Timeout) && (Timeout != HAL_MAX_DELAY)) || (Timeout == 0U))
 80042ae:	f7fd ff5b 	bl	8002168 <HAL_GetTick>
 80042b2:	4602      	mov	r2, r0
 80042b4:	69bb      	ldr	r3, [r7, #24]
 80042b6:	1ad3      	subs	r3, r2, r3
 80042b8:	683a      	ldr	r2, [r7, #0]
 80042ba:	429a      	cmp	r2, r3
 80042bc:	d803      	bhi.n	80042c6 <HAL_SPI_Transmit+0x20c>
 80042be:	683b      	ldr	r3, [r7, #0]
 80042c0:	f1b3 3fff 	cmp.w	r3, #4294967295
 80042c4:	d102      	bne.n	80042cc <HAL_SPI_Transmit+0x212>
 80042c6:	683b      	ldr	r3, [r7, #0]
 80042c8:	2b00      	cmp	r3, #0
 80042ca:	d106      	bne.n	80042da <HAL_SPI_Transmit+0x220>
        {
          errorcode = HAL_TIMEOUT;
 80042cc:	2303      	movs	r3, #3
 80042ce:	77fb      	strb	r3, [r7, #31]
          hspi->State = HAL_SPI_STATE_READY;
 80042d0:	68fb      	ldr	r3, [r7, #12]
 80042d2:	2201      	movs	r2, #1
 80042d4:	f883 2051 	strb.w	r2, [r3, #81]	; 0x51
          goto error;
 80042d8:	e029      	b.n	800432e <HAL_SPI_Transmit+0x274>
    while (hspi->TxXferCount > 0U)
 80042da:	68fb      	ldr	r3, [r7, #12]
 80042dc:	8edb      	ldrh	r3, [r3, #54]	; 0x36
 80042de:	b29b      	uxth	r3, r3
 80042e0:	2b00      	cmp	r3, #0
 80042e2:	d1c9      	bne.n	8004278 <HAL_SPI_Transmit+0x1be>
    SET_BIT(hspi->Instance->CR1, SPI_CR1_CRCNEXT);
  }
#endif /* USE_SPI_CRC */

  /* Check the end of the transaction */
  if (SPI_EndRxTxTransaction(hspi, Timeout, tickstart) != HAL_OK)
 80042e4:	69ba      	ldr	r2, [r7, #24]
 80042e6:	6839      	ldr	r1, [r7, #0]
 80042e8:	68f8      	ldr	r0, [r7, #12]
 80042ea:	f000 f9db 	bl	80046a4 <SPI_EndRxTxTransaction>
 80042ee:	4603      	mov	r3, r0
 80042f0:	2b00      	cmp	r3, #0
 80042f2:	d002      	beq.n	80042fa <HAL_SPI_Transmit+0x240>
  {
    hspi->ErrorCode = HAL_SPI_ERROR_FLAG;
 80042f4:	68fb      	ldr	r3, [r7, #12]
 80042f6:	2220      	movs	r2, #32
 80042f8:	655a      	str	r2, [r3, #84]	; 0x54
  }

  /* Clear overrun flag in 2 Lines communication mode because received is not read */
  if (hspi->Init.Direction == SPI_DIRECTION_2LINES)
 80042fa:	68fb      	ldr	r3, [r7, #12]
 80042fc:	689b      	ldr	r3, [r3, #8]
 80042fe:	2b00      	cmp	r3, #0
 8004300:	d10a      	bne.n	8004318 <HAL_SPI_Transmit+0x25e>
  {
    __HAL_SPI_CLEAR_OVRFLAG(hspi);
 8004302:	2300      	movs	r3, #0
 8004304:	613b      	str	r3, [r7, #16]
 8004306:	68fb      	ldr	r3, [r7, #12]
 8004308:	681b      	ldr	r3, [r3, #0]
 800430a:	68db      	ldr	r3, [r3, #12]
 800430c:	613b      	str	r3, [r7, #16]
 800430e:	68fb      	ldr	r3, [r7, #12]
 8004310:	681b      	ldr	r3, [r3, #0]
 8004312:	689b      	ldr	r3, [r3, #8]
 8004314:	613b      	str	r3, [r7, #16]
 8004316:	693b      	ldr	r3, [r7, #16]
  }

  if (hspi->ErrorCode != HAL_SPI_ERROR_NONE)
 8004318:	68fb      	ldr	r3, [r7, #12]
 800431a:	6d5b      	ldr	r3, [r3, #84]	; 0x54
 800431c:	2b00      	cmp	r3, #0
 800431e:	d002      	beq.n	8004326 <HAL_SPI_Transmit+0x26c>
  {
    errorcode = HAL_ERROR;
 8004320:	2301      	movs	r3, #1
 8004322:	77fb      	strb	r3, [r7, #31]
 8004324:	e003      	b.n	800432e <HAL_SPI_Transmit+0x274>
  }
  else
  {
    hspi->State = HAL_SPI_STATE_READY;
 8004326:	68fb      	ldr	r3, [r7, #12]
 8004328:	2201      	movs	r2, #1
 800432a:	f883 2051 	strb.w	r2, [r3, #81]	; 0x51
  }

error:
  /* Process Unlocked */
  __HAL_UNLOCK(hspi);
 800432e:	68fb      	ldr	r3, [r7, #12]
 8004330:	2200      	movs	r2, #0
 8004332:	f883 2050 	strb.w	r2, [r3, #80]	; 0x50
  return errorcode;
 8004336:	7ffb      	ldrb	r3, [r7, #31]
}
 8004338:	4618      	mov	r0, r3
 800433a:	3720      	adds	r7, #32
 800433c:	46bd      	mov	sp, r7
 800433e:	bd80      	pop	{r7, pc}

08004340 <HAL_SPI_IRQHandler>:
  * @param  hspi pointer to a SPI_HandleTypeDef structure that contains
  *               the configuration information for the specified SPI module.
  * @retval None
  */
void HAL_SPI_IRQHandler(SPI_HandleTypeDef *hspi)
{
 8004340:	b580      	push	{r7, lr}
 8004342:	b088      	sub	sp, #32
 8004344:	af00      	add	r7, sp, #0
 8004346:	6078      	str	r0, [r7, #4]
  uint32_t itsource = hspi->Instance->CR2;
 8004348:	687b      	ldr	r3, [r7, #4]
 800434a:	681b      	ldr	r3, [r3, #0]
 800434c:	685b      	ldr	r3, [r3, #4]
 800434e:	61fb      	str	r3, [r7, #28]
  uint32_t itflag   = hspi->Instance->SR;
 8004350:	687b      	ldr	r3, [r7, #4]
 8004352:	681b      	ldr	r3, [r3, #0]
 8004354:	689b      	ldr	r3, [r3, #8]
 8004356:	61bb      	str	r3, [r7, #24]

  /* SPI in mode Receiver ----------------------------------------------------*/
  if ((SPI_CHECK_FLAG(itflag, SPI_FLAG_OVR) == RESET) &&
 8004358:	69bb      	ldr	r3, [r7, #24]
 800435a:	099b      	lsrs	r3, r3, #6
 800435c:	f003 0301 	and.w	r3, r3, #1
 8004360:	2b00      	cmp	r3, #0
 8004362:	d10f      	bne.n	8004384 <HAL_SPI_IRQHandler+0x44>
      (SPI_CHECK_FLAG(itflag, SPI_FLAG_RXNE) != RESET) && (SPI_CHECK_IT_SOURCE(itsource, SPI_IT_RXNE) != RESET))
 8004364:	69bb      	ldr	r3, [r7, #24]
 8004366:	f003 0301 	and.w	r3, r3, #1
  if ((SPI_CHECK_FLAG(itflag, SPI_FLAG_OVR) == RESET) &&
 800436a:	2b00      	cmp	r3, #0
 800436c:	d00a      	beq.n	8004384 <HAL_SPI_IRQHandler+0x44>
      (SPI_CHECK_FLAG(itflag, SPI_FLAG_RXNE) != RESET) && (SPI_CHECK_IT_SOURCE(itsource, SPI_IT_RXNE) != RESET))
 800436e:	69fb      	ldr	r3, [r7, #28]
 8004370:	099b      	lsrs	r3, r3, #6
 8004372:	f003 0301 	and.w	r3, r3, #1
 8004376:	2b00      	cmp	r3, #0
 8004378:	d004      	beq.n	8004384 <HAL_SPI_IRQHandler+0x44>
  {
    hspi->RxISR(hspi);
 800437a:	687b      	ldr	r3, [r7, #4]
 800437c:	6c1b      	ldr	r3, [r3, #64]	; 0x40
 800437e:	6878      	ldr	r0, [r7, #4]
 8004380:	4798      	blx	r3
    return;
 8004382:	e0d7      	b.n	8004534 <HAL_SPI_IRQHandler+0x1f4>
  }

  /* SPI in mode Transmitter -------------------------------------------------*/
  if ((SPI_CHECK_FLAG(itflag, SPI_FLAG_TXE) != RESET) && (SPI_CHECK_IT_SOURCE(itsource, SPI_IT_TXE) != RESET))
 8004384:	69bb      	ldr	r3, [r7, #24]
 8004386:	085b      	lsrs	r3, r3, #1
 8004388:	f003 0301 	and.w	r3, r3, #1
 800438c:	2b00      	cmp	r3, #0
 800438e:	d00a      	beq.n	80043a6 <HAL_SPI_IRQHandler+0x66>
 8004390:	69fb      	ldr	r3, [r7, #28]
 8004392:	09db      	lsrs	r3, r3, #7
 8004394:	f003 0301 	and.w	r3, r3, #1
 8004398:	2b00      	cmp	r3, #0
 800439a:	d004      	beq.n	80043a6 <HAL_SPI_IRQHandler+0x66>
  {
    hspi->TxISR(hspi);
 800439c:	687b      	ldr	r3, [r7, #4]
 800439e:	6c5b      	ldr	r3, [r3, #68]	; 0x44
 80043a0:	6878      	ldr	r0, [r7, #4]
 80043a2:	4798      	blx	r3
    return;
 80043a4:	e0c6      	b.n	8004534 <HAL_SPI_IRQHandler+0x1f4>
  }

  /* SPI in Error Treatment --------------------------------------------------*/
#if defined(SPI_CR2_FRF)
  if (((SPI_CHECK_FLAG(itflag, SPI_FLAG_MODF) != RESET) || (SPI_CHECK_FLAG(itflag, SPI_FLAG_OVR) != RESET)
 80043a6:	69bb      	ldr	r3, [r7, #24]
 80043a8:	095b      	lsrs	r3, r3, #5
 80043aa:	f003 0301 	and.w	r3, r3, #1
 80043ae:	2b00      	cmp	r3, #0
 80043b0:	d10c      	bne.n	80043cc <HAL_SPI_IRQHandler+0x8c>
 80043b2:	69bb      	ldr	r3, [r7, #24]
 80043b4:	099b      	lsrs	r3, r3, #6
 80043b6:	f003 0301 	and.w	r3, r3, #1
 80043ba:	2b00      	cmp	r3, #0
 80043bc:	d106      	bne.n	80043cc <HAL_SPI_IRQHandler+0x8c>
       || (SPI_CHECK_FLAG(itflag, SPI_FLAG_FRE) != RESET)) && (SPI_CHECK_IT_SOURCE(itsource, SPI_IT_ERR) != RESET))
 80043be:	69bb      	ldr	r3, [r7, #24]
 80043c0:	0a1b      	lsrs	r3, r3, #8
 80043c2:	f003 0301 	and.w	r3, r3, #1
 80043c6:	2b00      	cmp	r3, #0
 80043c8:	f000 80b4 	beq.w	8004534 <HAL_SPI_IRQHandler+0x1f4>
 80043cc:	69fb      	ldr	r3, [r7, #28]
 80043ce:	095b      	lsrs	r3, r3, #5
 80043d0:	f003 0301 	and.w	r3, r3, #1
 80043d4:	2b00      	cmp	r3, #0
 80043d6:	f000 80ad 	beq.w	8004534 <HAL_SPI_IRQHandler+0x1f4>
  if (((SPI_CHECK_FLAG(itflag, SPI_FLAG_MODF) != RESET) || (SPI_CHECK_FLAG(itflag, SPI_FLAG_OVR) != RESET))
      && (SPI_CHECK_IT_SOURCE(itsource, SPI_IT_ERR) != RESET))
#endif /* SPI_CR2_FRF */
  {
    /* SPI Overrun error interrupt occurred ----------------------------------*/
    if (SPI_CHECK_FLAG(itflag, SPI_FLAG_OVR) != RESET)
 80043da:	69bb      	ldr	r3, [r7, #24]
 80043dc:	099b      	lsrs	r3, r3, #6
 80043de:	f003 0301 	and.w	r3, r3, #1
 80043e2:	2b00      	cmp	r3, #0
 80043e4:	d023      	beq.n	800442e <HAL_SPI_IRQHandler+0xee>
    {
      if (hspi->State != HAL_SPI_STATE_BUSY_TX)
 80043e6:	687b      	ldr	r3, [r7, #4]
 80043e8:	f893 3051 	ldrb.w	r3, [r3, #81]	; 0x51
 80043ec:	b2db      	uxtb	r3, r3
 80043ee:	2b03      	cmp	r3, #3
 80043f0:	d011      	beq.n	8004416 <HAL_SPI_IRQHandler+0xd6>
      {
        SET_BIT(hspi->ErrorCode, HAL_SPI_ERROR_OVR);
 80043f2:	687b      	ldr	r3, [r7, #4]
 80043f4:	6d5b      	ldr	r3, [r3, #84]	; 0x54
 80043f6:	f043 0204 	orr.w	r2, r3, #4
 80043fa:	687b      	ldr	r3, [r7, #4]
 80043fc:	655a      	str	r2, [r3, #84]	; 0x54
        __HAL_SPI_CLEAR_OVRFLAG(hspi);
 80043fe:	2300      	movs	r3, #0
 8004400:	617b      	str	r3, [r7, #20]
 8004402:	687b      	ldr	r3, [r7, #4]
 8004404:	681b      	ldr	r3, [r3, #0]
 8004406:	68db      	ldr	r3, [r3, #12]
 8004408:	617b      	str	r3, [r7, #20]
 800440a:	687b      	ldr	r3, [r7, #4]
 800440c:	681b      	ldr	r3, [r3, #0]
 800440e:	689b      	ldr	r3, [r3, #8]
 8004410:	617b      	str	r3, [r7, #20]
 8004412:	697b      	ldr	r3, [r7, #20]
 8004414:	e00b      	b.n	800442e <HAL_SPI_IRQHandler+0xee>
      }
      else
      {
        __HAL_SPI_CLEAR_OVRFLAG(hspi);
 8004416:	2300      	movs	r3, #0
 8004418:	613b      	str	r3, [r7, #16]
 800441a:	687b      	ldr	r3, [r7, #4]
 800441c:	681b      	ldr	r3, [r3, #0]
 800441e:	68db      	ldr	r3, [r3, #12]
 8004420:	613b      	str	r3, [r7, #16]
 8004422:	687b      	ldr	r3, [r7, #4]
 8004424:	681b      	ldr	r3, [r3, #0]
 8004426:	689b      	ldr	r3, [r3, #8]
 8004428:	613b      	str	r3, [r7, #16]
 800442a:	693b      	ldr	r3, [r7, #16]
        return;
 800442c:	e082      	b.n	8004534 <HAL_SPI_IRQHandler+0x1f4>
      }
    }

    /* SPI Mode Fault error interrupt occurred -------------------------------*/
    if (SPI_CHECK_FLAG(itflag, SPI_FLAG_MODF) != RESET)
 800442e:	69bb      	ldr	r3, [r7, #24]
 8004430:	095b      	lsrs	r3, r3, #5
 8004432:	f003 0301 	and.w	r3, r3, #1
 8004436:	2b00      	cmp	r3, #0
 8004438:	d014      	beq.n	8004464 <HAL_SPI_IRQHandler+0x124>
    {
      SET_BIT(hspi->ErrorCode, HAL_SPI_ERROR_MODF);
 800443a:	687b      	ldr	r3, [r7, #4]
 800443c:	6d5b      	ldr	r3, [r3, #84]	; 0x54
 800443e:	f043 0201 	orr.w	r2, r3, #1
 8004442:	687b      	ldr	r3, [r7, #4]
 8004444:	655a      	str	r2, [r3, #84]	; 0x54
      __HAL_SPI_CLEAR_MODFFLAG(hspi);
 8004446:	2300      	movs	r3, #0
 8004448:	60fb      	str	r3, [r7, #12]
 800444a:	687b      	ldr	r3, [r7, #4]
 800444c:	681b      	ldr	r3, [r3, #0]
 800444e:	689b      	ldr	r3, [r3, #8]
 8004450:	60fb      	str	r3, [r7, #12]
 8004452:	687b      	ldr	r3, [r7, #4]
 8004454:	681b      	ldr	r3, [r3, #0]
 8004456:	681a      	ldr	r2, [r3, #0]
 8004458:	687b      	ldr	r3, [r7, #4]
 800445a:	681b      	ldr	r3, [r3, #0]
 800445c:	f022 0240 	bic.w	r2, r2, #64	; 0x40
 8004460:	601a      	str	r2, [r3, #0]
 8004462:	68fb      	ldr	r3, [r7, #12]
    }

    /* SPI Frame error interrupt occurred ------------------------------------*/
#if defined(SPI_CR2_FRF)
    if (SPI_CHECK_FLAG(itflag, SPI_FLAG_FRE) != RESET)
 8004464:	69bb      	ldr	r3, [r7, #24]
 8004466:	0a1b      	lsrs	r3, r3, #8
 8004468:	f003 0301 	and.w	r3, r3, #1
 800446c:	2b00      	cmp	r3, #0
 800446e:	d00c      	beq.n	800448a <HAL_SPI_IRQHandler+0x14a>
    {
      SET_BIT(hspi->ErrorCode, HAL_SPI_ERROR_FRE);
 8004470:	687b      	ldr	r3, [r7, #4]
 8004472:	6d5b      	ldr	r3, [r3, #84]	; 0x54
 8004474:	f043 0208 	orr.w	r2, r3, #8
 8004478:	687b      	ldr	r3, [r7, #4]
 800447a:	655a      	str	r2, [r3, #84]	; 0x54
      __HAL_SPI_CLEAR_FREFLAG(hspi);
 800447c:	2300      	movs	r3, #0
 800447e:	60bb      	str	r3, [r7, #8]
 8004480:	687b      	ldr	r3, [r7, #4]
 8004482:	681b      	ldr	r3, [r3, #0]
 8004484:	689b      	ldr	r3, [r3, #8]
 8004486:	60bb      	str	r3, [r7, #8]
 8004488:	68bb      	ldr	r3, [r7, #8]
    }
#endif /* SPI_CR2_FRF */

    if (hspi->ErrorCode != HAL_SPI_ERROR_NONE)
 800448a:	687b      	ldr	r3, [r7, #4]
 800448c:	6d5b      	ldr	r3, [r3, #84]	; 0x54
 800448e:	2b00      	cmp	r3, #0
 8004490:	d04f      	beq.n	8004532 <HAL_SPI_IRQHandler+0x1f2>
    {
      /* Disable all interrupts */
      __HAL_SPI_DISABLE_IT(hspi, SPI_IT_RXNE | SPI_IT_TXE | SPI_IT_ERR);
 8004492:	687b      	ldr	r3, [r7, #4]
 8004494:	681b      	ldr	r3, [r3, #0]
 8004496:	685a      	ldr	r2, [r3, #4]
 8004498:	687b      	ldr	r3, [r7, #4]
 800449a:	681b      	ldr	r3, [r3, #0]
 800449c:	f022 02e0 	bic.w	r2, r2, #224	; 0xe0
 80044a0:	605a      	str	r2, [r3, #4]

      hspi->State = HAL_SPI_STATE_READY;
 80044a2:	687b      	ldr	r3, [r7, #4]
 80044a4:	2201      	movs	r2, #1
 80044a6:	f883 2051 	strb.w	r2, [r3, #81]	; 0x51
      /* Disable the SPI DMA requests if enabled */
      if ((HAL_IS_BIT_SET(itsource, SPI_CR2_TXDMAEN)) || (HAL_IS_BIT_SET(itsource, SPI_CR2_RXDMAEN)))
 80044aa:	69fb      	ldr	r3, [r7, #28]
 80044ac:	f003 0302 	and.w	r3, r3, #2
 80044b0:	2b00      	cmp	r3, #0
 80044b2:	d104      	bne.n	80044be <HAL_SPI_IRQHandler+0x17e>
 80044b4:	69fb      	ldr	r3, [r7, #28]
 80044b6:	f003 0301 	and.w	r3, r3, #1
 80044ba:	2b00      	cmp	r3, #0
 80044bc:	d034      	beq.n	8004528 <HAL_SPI_IRQHandler+0x1e8>
      {
        CLEAR_BIT(hspi->Instance->CR2, (SPI_CR2_TXDMAEN | SPI_CR2_RXDMAEN));
 80044be:	687b      	ldr	r3, [r7, #4]
 80044c0:	681b      	ldr	r3, [r3, #0]
 80044c2:	685a      	ldr	r2, [r3, #4]
 80044c4:	687b      	ldr	r3, [r7, #4]
 80044c6:	681b      	ldr	r3, [r3, #0]
 80044c8:	f022 0203 	bic.w	r2, r2, #3
 80044cc:	605a      	str	r2, [r3, #4]

        /* Abort the SPI DMA Rx channel */
        if (hspi->hdmarx != NULL)
 80044ce:	687b      	ldr	r3, [r7, #4]
 80044d0:	6cdb      	ldr	r3, [r3, #76]	; 0x4c
 80044d2:	2b00      	cmp	r3, #0
 80044d4:	d011      	beq.n	80044fa <HAL_SPI_IRQHandler+0x1ba>
        {
          /* Set the SPI DMA Abort callback :
          will lead to call HAL_SPI_ErrorCallback() at end of DMA abort procedure */
          hspi->hdmarx->XferAbortCallback = SPI_DMAAbortOnError;
 80044d6:	687b      	ldr	r3, [r7, #4]
 80044d8:	6cdb      	ldr	r3, [r3, #76]	; 0x4c
 80044da:	4a18      	ldr	r2, [pc, #96]	; (800453c <HAL_SPI_IRQHandler+0x1fc>)
 80044dc:	635a      	str	r2, [r3, #52]	; 0x34
          if (HAL_OK != HAL_DMA_Abort_IT(hspi->hdmarx))
 80044de:	687b      	ldr	r3, [r7, #4]
 80044e0:	6cdb      	ldr	r3, [r3, #76]	; 0x4c
 80044e2:	4618      	mov	r0, r3
 80044e4:	f7fd ffe8 	bl	80024b8 <HAL_DMA_Abort_IT>
 80044e8:	4603      	mov	r3, r0
 80044ea:	2b00      	cmp	r3, #0
 80044ec:	d005      	beq.n	80044fa <HAL_SPI_IRQHandler+0x1ba>
          {
            SET_BIT(hspi->ErrorCode, HAL_SPI_ERROR_ABORT);
 80044ee:	687b      	ldr	r3, [r7, #4]
 80044f0:	6d5b      	ldr	r3, [r3, #84]	; 0x54
 80044f2:	f043 0240 	orr.w	r2, r3, #64	; 0x40
 80044f6:	687b      	ldr	r3, [r7, #4]
 80044f8:	655a      	str	r2, [r3, #84]	; 0x54
          }
        }
        /* Abort the SPI DMA Tx channel */
        if (hspi->hdmatx != NULL)
 80044fa:	687b      	ldr	r3, [r7, #4]
 80044fc:	6c9b      	ldr	r3, [r3, #72]	; 0x48
 80044fe:	2b00      	cmp	r3, #0
 8004500:	d016      	beq.n	8004530 <HAL_SPI_IRQHandler+0x1f0>
        {
          /* Set the SPI DMA Abort callback :
          will lead to call HAL_SPI_ErrorCallback() at end of DMA abort procedure */
          hspi->hdmatx->XferAbortCallback = SPI_DMAAbortOnError;
 8004502:	687b      	ldr	r3, [r7, #4]
 8004504:	6c9b      	ldr	r3, [r3, #72]	; 0x48
 8004506:	4a0d      	ldr	r2, [pc, #52]	; (800453c <HAL_SPI_IRQHandler+0x1fc>)
 8004508:	635a      	str	r2, [r3, #52]	; 0x34
          if (HAL_OK != HAL_DMA_Abort_IT(hspi->hdmatx))
 800450a:	687b      	ldr	r3, [r7, #4]
 800450c:	6c9b      	ldr	r3, [r3, #72]	; 0x48
 800450e:	4618      	mov	r0, r3
 8004510:	f7fd ffd2 	bl	80024b8 <HAL_DMA_Abort_IT>
 8004514:	4603      	mov	r3, r0
 8004516:	2b00      	cmp	r3, #0
 8004518:	d00a      	beq.n	8004530 <HAL_SPI_IRQHandler+0x1f0>
          {
            SET_BIT(hspi->ErrorCode, HAL_SPI_ERROR_ABORT);
 800451a:	687b      	ldr	r3, [r7, #4]
 800451c:	6d5b      	ldr	r3, [r3, #84]	; 0x54
 800451e:	f043 0240 	orr.w	r2, r3, #64	; 0x40
 8004522:	687b      	ldr	r3, [r7, #4]
 8004524:	655a      	str	r2, [r3, #84]	; 0x54
        if (hspi->hdmatx != NULL)
 8004526:	e003      	b.n	8004530 <HAL_SPI_IRQHandler+0x1f0>
      {
        /* Call user error callback */
#if (USE_HAL_SPI_REGISTER_CALLBACKS == 1U)
        hspi->ErrorCallback(hspi);
#else
        HAL_SPI_ErrorCallback(hspi);
 8004528:	6878      	ldr	r0, [r7, #4]
 800452a:	f000 f809 	bl	8004540 <HAL_SPI_ErrorCallback>
#endif /* USE_HAL_SPI_REGISTER_CALLBACKS */
      }
    }
    return;
 800452e:	e000      	b.n	8004532 <HAL_SPI_IRQHandler+0x1f2>
        if (hspi->hdmatx != NULL)
 8004530:	bf00      	nop
    return;
 8004532:	bf00      	nop
  }
}
 8004534:	3720      	adds	r7, #32
 8004536:	46bd      	mov	sp, r7
 8004538:	bd80      	pop	{r7, pc}
 800453a:	bf00      	nop
 800453c:	0800456d 	.word	0x0800456d

08004540 <HAL_SPI_ErrorCallback>:
  * @param  hspi pointer to a SPI_HandleTypeDef structure that contains
  *               the configuration information for SPI module.
  * @retval None
  */
__weak void HAL_SPI_ErrorCallback(SPI_HandleTypeDef *hspi)
{
 8004540:	b480      	push	{r7}
 8004542:	b083      	sub	sp, #12
 8004544:	af00      	add	r7, sp, #0
 8004546:	6078      	str	r0, [r7, #4]
            the HAL_SPI_ErrorCallback should be implemented in the user file
   */
  /* NOTE : The ErrorCode parameter in the hspi handle is updated by the SPI processes
            and user can use HAL_SPI_GetError() API to check the latest error occurred
   */
}
 8004548:	bf00      	nop
 800454a:	370c      	adds	r7, #12
 800454c:	46bd      	mov	sp, r7
 800454e:	bc80      	pop	{r7}
 8004550:	4770      	bx	lr

08004552 <HAL_SPI_GetState>:
  * @param  hspi pointer to a SPI_HandleTypeDef structure that contains
  *               the configuration information for SPI module.
  * @retval SPI state
  */
HAL_SPI_StateTypeDef HAL_SPI_GetState(SPI_HandleTypeDef *hspi)
{
 8004552:	b480      	push	{r7}
 8004554:	b083      	sub	sp, #12
 8004556:	af00      	add	r7, sp, #0
 8004558:	6078      	str	r0, [r7, #4]
  /* Return SPI handle state */
  return hspi->State;
 800455a:	687b      	ldr	r3, [r7, #4]
 800455c:	f893 3051 	ldrb.w	r3, [r3, #81]	; 0x51
 8004560:	b2db      	uxtb	r3, r3
}
 8004562:	4618      	mov	r0, r3
 8004564:	370c      	adds	r7, #12
 8004566:	46bd      	mov	sp, r7
 8004568:	bc80      	pop	{r7}
 800456a:	4770      	bx	lr

0800456c <SPI_DMAAbortOnError>:
  *         (To be called at end of DMA Abort procedure following error occurrence).
  * @param  hdma DMA handle.
  * @retval None
  */
static void SPI_DMAAbortOnError(DMA_HandleTypeDef *hdma)
{
 800456c:	b580      	push	{r7, lr}
 800456e:	b084      	sub	sp, #16
 8004570:	af00      	add	r7, sp, #0
 8004572:	6078      	str	r0, [r7, #4]
  SPI_HandleTypeDef *hspi = (SPI_HandleTypeDef *)(((DMA_HandleTypeDef *)hdma)->Parent); /* Derogation MISRAC2012-Rule-11.5 */
 8004574:	687b      	ldr	r3, [r7, #4]
 8004576:	6a5b      	ldr	r3, [r3, #36]	; 0x24
 8004578:	60fb      	str	r3, [r7, #12]
  hspi->RxXferCount = 0U;
 800457a:	68fb      	ldr	r3, [r7, #12]
 800457c:	2200      	movs	r2, #0
 800457e:	87da      	strh	r2, [r3, #62]	; 0x3e
  hspi->TxXferCount = 0U;
 8004580:	68fb      	ldr	r3, [r7, #12]
 8004582:	2200      	movs	r2, #0
 8004584:	86da      	strh	r2, [r3, #54]	; 0x36

  /* Call user error callback */
#if (USE_HAL_SPI_REGISTER_CALLBACKS == 1U)
  hspi->ErrorCallback(hspi);
#else
  HAL_SPI_ErrorCallback(hspi);
 8004586:	68f8      	ldr	r0, [r7, #12]
 8004588:	f7ff ffda 	bl	8004540 <HAL_SPI_ErrorCallback>
#endif /* USE_HAL_SPI_REGISTER_CALLBACKS */
}
 800458c:	bf00      	nop
 800458e:	3710      	adds	r7, #16
 8004590:	46bd      	mov	sp, r7
 8004592:	bd80      	pop	{r7, pc}

08004594 <SPI_WaitFlagStateUntilTimeout>:
  * @param  Tickstart tick start value
  * @retval HAL status
  */
static HAL_StatusTypeDef SPI_WaitFlagStateUntilTimeout(SPI_HandleTypeDef *hspi, uint32_t Flag, FlagStatus State,
                                                       uint32_t Timeout, uint32_t Tickstart)
{
 8004594:	b580      	push	{r7, lr}
 8004596:	b088      	sub	sp, #32
 8004598:	af00      	add	r7, sp, #0
 800459a:	60f8      	str	r0, [r7, #12]
 800459c:	60b9      	str	r1, [r7, #8]
 800459e:	603b      	str	r3, [r7, #0]
 80045a0:	4613      	mov	r3, r2
 80045a2:	71fb      	strb	r3, [r7, #7]
  __IO uint32_t count;
  uint32_t tmp_timeout;
  uint32_t tmp_tickstart;

  /* Adjust Timeout value  in case of end of transfer */
  tmp_timeout   = Timeout - (HAL_GetTick() - Tickstart);
 80045a4:	f7fd fde0 	bl	8002168 <HAL_GetTick>
 80045a8:	4602      	mov	r2, r0
 80045aa:	6abb      	ldr	r3, [r7, #40]	; 0x28
 80045ac:	1a9b      	subs	r3, r3, r2
 80045ae:	683a      	ldr	r2, [r7, #0]
 80045b0:	4413      	add	r3, r2
 80045b2:	61fb      	str	r3, [r7, #28]
  tmp_tickstart = HAL_GetTick();
 80045b4:	f7fd fdd8 	bl	8002168 <HAL_GetTick>
 80045b8:	61b8      	str	r0, [r7, #24]

  /* Calculate Timeout based on a software loop to avoid blocking issue if Systick is disabled */
  count = tmp_timeout * ((SystemCoreClock * 32U) >> 20U);
 80045ba:	4b39      	ldr	r3, [pc, #228]	; (80046a0 <SPI_WaitFlagStateUntilTimeout+0x10c>)
 80045bc:	681b      	ldr	r3, [r3, #0]
 80045be:	015b      	lsls	r3, r3, #5
 80045c0:	0d1b      	lsrs	r3, r3, #20
 80045c2:	69fa      	ldr	r2, [r7, #28]
 80045c4:	fb02 f303 	mul.w	r3, r2, r3
 80045c8:	617b      	str	r3, [r7, #20]

  while ((__HAL_SPI_GET_FLAG(hspi, Flag) ? SET : RESET) != State)
 80045ca:	e054      	b.n	8004676 <SPI_WaitFlagStateUntilTimeout+0xe2>
  {
    if (Timeout != HAL_MAX_DELAY)
 80045cc:	683b      	ldr	r3, [r7, #0]
 80045ce:	f1b3 3fff 	cmp.w	r3, #4294967295
 80045d2:	d050      	beq.n	8004676 <SPI_WaitFlagStateUntilTimeout+0xe2>
    {
      if (((HAL_GetTick() - tmp_tickstart) >= tmp_timeout) || (tmp_timeout == 0U))
 80045d4:	f7fd fdc8 	bl	8002168 <HAL_GetTick>
 80045d8:	4602      	mov	r2, r0
 80045da:	69bb      	ldr	r3, [r7, #24]
 80045dc:	1ad3      	subs	r3, r2, r3
 80045de:	69fa      	ldr	r2, [r7, #28]
 80045e0:	429a      	cmp	r2, r3
 80045e2:	d902      	bls.n	80045ea <SPI_WaitFlagStateUntilTimeout+0x56>
 80045e4:	69fb      	ldr	r3, [r7, #28]
 80045e6:	2b00      	cmp	r3, #0
 80045e8:	d13d      	bne.n	8004666 <SPI_WaitFlagStateUntilTimeout+0xd2>
        /* Disable the SPI and reset the CRC: the CRC value should be cleared
           on both master and slave sides in order to resynchronize the master
           and slave for their respective CRC calculation */

        /* Disable TXE, RXNE and ERR interrupts for the interrupt process */
        __HAL_SPI_DISABLE_IT(hspi, (SPI_IT_TXE | SPI_IT_RXNE | SPI_IT_ERR));
 80045ea:	68fb      	ldr	r3, [r7, #12]
 80045ec:	681b      	ldr	r3, [r3, #0]
 80045ee:	685a      	ldr	r2, [r3, #4]
 80045f0:	68fb      	ldr	r3, [r7, #12]
 80045f2:	681b      	ldr	r3, [r3, #0]
 80045f4:	f022 02e0 	bic.w	r2, r2, #224	; 0xe0
 80045f8:	605a      	str	r2, [r3, #4]

        if ((hspi->Init.Mode == SPI_MODE_MASTER) && ((hspi->Init.Direction == SPI_DIRECTION_1LINE)
 80045fa:	68fb      	ldr	r3, [r7, #12]
 80045fc:	685b      	ldr	r3, [r3, #4]
 80045fe:	f5b3 7f82 	cmp.w	r3, #260	; 0x104
 8004602:	d111      	bne.n	8004628 <SPI_WaitFlagStateUntilTimeout+0x94>
 8004604:	68fb      	ldr	r3, [r7, #12]
 8004606:	689b      	ldr	r3, [r3, #8]
 8004608:	f5b3 4f00 	cmp.w	r3, #32768	; 0x8000
 800460c:	d004      	beq.n	8004618 <SPI_WaitFlagStateUntilTimeout+0x84>
                                                     || (hspi->Init.Direction == SPI_DIRECTION_2LINES_RXONLY)))
 800460e:	68fb      	ldr	r3, [r7, #12]
 8004610:	689b      	ldr	r3, [r3, #8]
 8004612:	f5b3 6f80 	cmp.w	r3, #1024	; 0x400
 8004616:	d107      	bne.n	8004628 <SPI_WaitFlagStateUntilTimeout+0x94>
        {
          /* Disable SPI peripheral */
          __HAL_SPI_DISABLE(hspi);
 8004618:	68fb      	ldr	r3, [r7, #12]
 800461a:	681b      	ldr	r3, [r3, #0]
 800461c:	681a      	ldr	r2, [r3, #0]
 800461e:	68fb      	ldr	r3, [r7, #12]
 8004620:	681b      	ldr	r3, [r3, #0]
 8004622:	f022 0240 	bic.w	r2, r2, #64	; 0x40
 8004626:	601a      	str	r2, [r3, #0]
        }

        /* Reset CRC Calculation */
        if (hspi->Init.CRCCalculation == SPI_CRCCALCULATION_ENABLE)
 8004628:	68fb      	ldr	r3, [r7, #12]
 800462a:	6a9b      	ldr	r3, [r3, #40]	; 0x28
 800462c:	f5b3 5f00 	cmp.w	r3, #8192	; 0x2000
 8004630:	d10f      	bne.n	8004652 <SPI_WaitFlagStateUntilTimeout+0xbe>
        {
          SPI_RESET_CRC(hspi);
 8004632:	68fb      	ldr	r3, [r7, #12]
 8004634:	681b      	ldr	r3, [r3, #0]
 8004636:	681a      	ldr	r2, [r3, #0]
 8004638:	68fb      	ldr	r3, [r7, #12]
 800463a:	681b      	ldr	r3, [r3, #0]
 800463c:	f422 5200 	bic.w	r2, r2, #8192	; 0x2000
 8004640:	601a      	str	r2, [r3, #0]
 8004642:	68fb      	ldr	r3, [r7, #12]
 8004644:	681b      	ldr	r3, [r3, #0]
 8004646:	681a      	ldr	r2, [r3, #0]
 8004648:	68fb      	ldr	r3, [r7, #12]
 800464a:	681b      	ldr	r3, [r3, #0]
 800464c:	f442 5200 	orr.w	r2, r2, #8192	; 0x2000
 8004650:	601a      	str	r2, [r3, #0]
        }

        hspi->State = HAL_SPI_STATE_READY;
 8004652:	68fb      	ldr	r3, [r7, #12]
 8004654:	2201      	movs	r2, #1
 8004656:	f883 2051 	strb.w	r2, [r3, #81]	; 0x51

        /* Process Unlocked */
        __HAL_UNLOCK(hspi);
 800465a:	68fb      	ldr	r3, [r7, #12]
 800465c:	2200      	movs	r2, #0
 800465e:	f883 2050 	strb.w	r2, [r3, #80]	; 0x50

        return HAL_TIMEOUT;
 8004662:	2303      	movs	r3, #3
 8004664:	e017      	b.n	8004696 <SPI_WaitFlagStateUntilTimeout+0x102>
      }
      /* If Systick is disabled or not incremented, deactivate timeout to go in disable loop procedure */
      if (count == 0U)
 8004666:	697b      	ldr	r3, [r7, #20]
 8004668:	2b00      	cmp	r3, #0
 800466a:	d101      	bne.n	8004670 <SPI_WaitFlagStateUntilTimeout+0xdc>
      {
        tmp_timeout = 0U;
 800466c:	2300      	movs	r3, #0
 800466e:	61fb      	str	r3, [r7, #28]
      }
      count--;
 8004670:	697b      	ldr	r3, [r7, #20]
 8004672:	3b01      	subs	r3, #1
 8004674:	617b      	str	r3, [r7, #20]
  while ((__HAL_SPI_GET_FLAG(hspi, Flag) ? SET : RESET) != State)
 8004676:	68fb      	ldr	r3, [r7, #12]
 8004678:	681b      	ldr	r3, [r3, #0]
 800467a:	689a      	ldr	r2, [r3, #8]
 800467c:	68bb      	ldr	r3, [r7, #8]
 800467e:	4013      	ands	r3, r2
 8004680:	68ba      	ldr	r2, [r7, #8]
 8004682:	429a      	cmp	r2, r3
 8004684:	bf0c      	ite	eq
 8004686:	2301      	moveq	r3, #1
 8004688:	2300      	movne	r3, #0
 800468a:	b2db      	uxtb	r3, r3
 800468c:	461a      	mov	r2, r3
 800468e:	79fb      	ldrb	r3, [r7, #7]
 8004690:	429a      	cmp	r2, r3
 8004692:	d19b      	bne.n	80045cc <SPI_WaitFlagStateUntilTimeout+0x38>
    }
  }

  return HAL_OK;
 8004694:	2300      	movs	r3, #0
}
 8004696:	4618      	mov	r0, r3
 8004698:	3720      	adds	r7, #32
 800469a:	46bd      	mov	sp, r7
 800469c:	bd80      	pop	{r7, pc}
 800469e:	bf00      	nop
 80046a0:	20000014 	.word	0x20000014

080046a4 <SPI_EndRxTxTransaction>:
  * @param  Timeout Timeout duration
  * @param  Tickstart tick start value
  * @retval HAL status
  */
static HAL_StatusTypeDef SPI_EndRxTxTransaction(SPI_HandleTypeDef *hspi, uint32_t Timeout, uint32_t Tickstart)
{
 80046a4:	b580      	push	{r7, lr}
 80046a6:	b088      	sub	sp, #32
 80046a8:	af02      	add	r7, sp, #8
 80046aa:	60f8      	str	r0, [r7, #12]
 80046ac:	60b9      	str	r1, [r7, #8]
 80046ae:	607a      	str	r2, [r7, #4]
  /* Timeout in s */
  __IO uint32_t count = SPI_BSY_FLAG_WORKAROUND_TIMEOUT * (SystemCoreClock / 24U / 1000000U);
 80046b0:	4b1b      	ldr	r3, [pc, #108]	; (8004720 <SPI_EndRxTxTransaction+0x7c>)
 80046b2:	681b      	ldr	r3, [r3, #0]
 80046b4:	4a1b      	ldr	r2, [pc, #108]	; (8004724 <SPI_EndRxTxTransaction+0x80>)
 80046b6:	fba2 2303 	umull	r2, r3, r2, r3
 80046ba:	0d5b      	lsrs	r3, r3, #21
 80046bc:	f44f 727a 	mov.w	r2, #1000	; 0x3e8
 80046c0:	fb02 f303 	mul.w	r3, r2, r3
 80046c4:	617b      	str	r3, [r7, #20]
  /* Erratasheet: BSY bit may stay high at the end of a data transfer in Slave mode */
  if (hspi->Init.Mode == SPI_MODE_MASTER)
 80046c6:	68fb      	ldr	r3, [r7, #12]
 80046c8:	685b      	ldr	r3, [r3, #4]
 80046ca:	f5b3 7f82 	cmp.w	r3, #260	; 0x104
 80046ce:	d112      	bne.n	80046f6 <SPI_EndRxTxTransaction+0x52>
  {
    /* Control the BSY flag */
    if (SPI_WaitFlagStateUntilTimeout(hspi, SPI_FLAG_BSY, RESET, Timeout, Tickstart) != HAL_OK)
 80046d0:	687b      	ldr	r3, [r7, #4]
 80046d2:	9300      	str	r3, [sp, #0]
 80046d4:	68bb      	ldr	r3, [r7, #8]
 80046d6:	2200      	movs	r2, #0
 80046d8:	2180      	movs	r1, #128	; 0x80
 80046da:	68f8      	ldr	r0, [r7, #12]
 80046dc:	f7ff ff5a 	bl	8004594 <SPI_WaitFlagStateUntilTimeout>
 80046e0:	4603      	mov	r3, r0
 80046e2:	2b00      	cmp	r3, #0
 80046e4:	d016      	beq.n	8004714 <SPI_EndRxTxTransaction+0x70>
    {
      SET_BIT(hspi->ErrorCode, HAL_SPI_ERROR_FLAG);
 80046e6:	68fb      	ldr	r3, [r7, #12]
 80046e8:	6d5b      	ldr	r3, [r3, #84]	; 0x54
 80046ea:	f043 0220 	orr.w	r2, r3, #32
 80046ee:	68fb      	ldr	r3, [r7, #12]
 80046f0:	655a      	str	r2, [r3, #84]	; 0x54
      return HAL_TIMEOUT;
 80046f2:	2303      	movs	r3, #3
 80046f4:	e00f      	b.n	8004716 <SPI_EndRxTxTransaction+0x72>
    * User have to calculate the timeout value to fit with the time of 1 byte transfer.
    * This time is directly link with the SPI clock from Master device.
    */
    do
    {
      if (count == 0U)
 80046f6:	697b      	ldr	r3, [r7, #20]
 80046f8:	2b00      	cmp	r3, #0
 80046fa:	d00a      	beq.n	8004712 <SPI_EndRxTxTransaction+0x6e>
      {
        break;
      }
      count--;
 80046fc:	697b      	ldr	r3, [r7, #20]
 80046fe:	3b01      	subs	r3, #1
 8004700:	617b      	str	r3, [r7, #20]
    } while (__HAL_SPI_GET_FLAG(hspi, SPI_FLAG_BSY) != RESET);
 8004702:	68fb      	ldr	r3, [r7, #12]
 8004704:	681b      	ldr	r3, [r3, #0]
 8004706:	689b      	ldr	r3, [r3, #8]
 8004708:	f003 0380 	and.w	r3, r3, #128	; 0x80
 800470c:	2b80      	cmp	r3, #128	; 0x80
 800470e:	d0f2      	beq.n	80046f6 <SPI_EndRxTxTransaction+0x52>
 8004710:	e000      	b.n	8004714 <SPI_EndRxTxTransaction+0x70>
        break;
 8004712:	bf00      	nop
  }

  return HAL_OK;
 8004714:	2300      	movs	r3, #0
}
 8004716:	4618      	mov	r0, r3
 8004718:	3718      	adds	r7, #24
 800471a:	46bd      	mov	sp, r7
 800471c:	bd80      	pop	{r7, pc}
 800471e:	bf00      	nop
 8004720:	20000014 	.word	0x20000014
 8004724:	165e9f81 	.word	0x165e9f81

08004728 <HAL_UART_Init>:
  * @param  huart  Pointer to a UART_HandleTypeDef structure that contains
  *                the configuration information for the specified UART module.
  * @retval HAL status
  */
HAL_StatusTypeDef HAL_UART_Init(UART_HandleTypeDef *huart)
{
 8004728:	b580      	push	{r7, lr}
 800472a:	b082      	sub	sp, #8
 800472c:	af00      	add	r7, sp, #0
 800472e:	6078      	str	r0, [r7, #4]
  /* Check the UART handle allocation */
  if (huart == NULL)
 8004730:	687b      	ldr	r3, [r7, #4]
 8004732:	2b00      	cmp	r3, #0
 8004734:	d101      	bne.n	800473a <HAL_UART_Init+0x12>
  {
    return HAL_ERROR;
 8004736:	2301      	movs	r3, #1
 8004738:	e042      	b.n	80047c0 <HAL_UART_Init+0x98>
    assert_param(IS_UART_INSTANCE(huart->Instance));
  }
  assert_param(IS_UART_WORD_LENGTH(huart->Init.WordLength));
  assert_param(IS_UART_OVERSAMPLING(huart->Init.OverSampling));

  if (huart->gState == HAL_UART_STATE_RESET)
 800473a:	687b      	ldr	r3, [r7, #4]
 800473c:	f893 3041 	ldrb.w	r3, [r3, #65]	; 0x41
 8004740:	b2db      	uxtb	r3, r3
 8004742:	2b00      	cmp	r3, #0
 8004744:	d106      	bne.n	8004754 <HAL_UART_Init+0x2c>
  {
    /* Allocate lock resource and initialize it */
    huart->Lock = HAL_UNLOCKED;
 8004746:	687b      	ldr	r3, [r7, #4]
 8004748:	2200      	movs	r2, #0
 800474a:	f883 2040 	strb.w	r2, [r3, #64]	; 0x40

    /* Init the low level hardware */
    huart->MspInitCallback(huart);
#else
    /* Init the low level hardware : GPIO, CLOCK */
    HAL_UART_MspInit(huart);
 800474e:	6878      	ldr	r0, [r7, #4]
 8004750:	f7fd fc34 	bl	8001fbc <HAL_UART_MspInit>
#endif /* (USE_HAL_UART_REGISTER_CALLBACKS) */
  }

  huart->gState = HAL_UART_STATE_BUSY;
 8004754:	687b      	ldr	r3, [r7, #4]
 8004756:	2224      	movs	r2, #36	; 0x24
 8004758:	f883 2041 	strb.w	r2, [r3, #65]	; 0x41

  /* Disable the peripheral */
  __HAL_UART_DISABLE(huart);
 800475c:	687b      	ldr	r3, [r7, #4]
 800475e:	681b      	ldr	r3, [r3, #0]
 8004760:	68da      	ldr	r2, [r3, #12]
 8004762:	687b      	ldr	r3, [r7, #4]
 8004764:	681b      	ldr	r3, [r3, #0]
 8004766:	f422 5200 	bic.w	r2, r2, #8192	; 0x2000
 800476a:	60da      	str	r2, [r3, #12]

  /* Set the UART Communication parameters */
  UART_SetConfig(huart);
 800476c:	6878      	ldr	r0, [r7, #4]
 800476e:	f000 fd71 	bl	8005254 <UART_SetConfig>

  /* In asynchronous mode, the following bits must be kept cleared:
     - LINEN and CLKEN bits in the USART_CR2 register,
     - SCEN, HDSEL and IREN  bits in the USART_CR3 register.*/
  CLEAR_BIT(huart->Instance->CR2, (USART_CR2_LINEN | USART_CR2_CLKEN));
 8004772:	687b      	ldr	r3, [r7, #4]
 8004774:	681b      	ldr	r3, [r3, #0]
 8004776:	691a      	ldr	r2, [r3, #16]
 8004778:	687b      	ldr	r3, [r7, #4]
 800477a:	681b      	ldr	r3, [r3, #0]
 800477c:	f422 4290 	bic.w	r2, r2, #18432	; 0x4800
 8004780:	611a      	str	r2, [r3, #16]
  CLEAR_BIT(huart->Instance->CR3, (USART_CR3_SCEN | USART_CR3_HDSEL | USART_CR3_IREN));
 8004782:	687b      	ldr	r3, [r7, #4]
 8004784:	681b      	ldr	r3, [r3, #0]
 8004786:	695a      	ldr	r2, [r3, #20]
 8004788:	687b      	ldr	r3, [r7, #4]
 800478a:	681b      	ldr	r3, [r3, #0]
 800478c:	f022 022a 	bic.w	r2, r2, #42	; 0x2a
 8004790:	615a      	str	r2, [r3, #20]

  /* Enable the peripheral */
  __HAL_UART_ENABLE(huart);
 8004792:	687b      	ldr	r3, [r7, #4]
 8004794:	681b      	ldr	r3, [r3, #0]
 8004796:	68da      	ldr	r2, [r3, #12]
 8004798:	687b      	ldr	r3, [r7, #4]
 800479a:	681b      	ldr	r3, [r3, #0]
 800479c:	f442 5200 	orr.w	r2, r2, #8192	; 0x2000
 80047a0:	60da      	str	r2, [r3, #12]

  /* Initialize the UART state */
  huart->ErrorCode = HAL_UART_ERROR_NONE;
 80047a2:	687b      	ldr	r3, [r7, #4]
 80047a4:	2200      	movs	r2, #0
 80047a6:	645a      	str	r2, [r3, #68]	; 0x44
  huart->gState = HAL_UART_STATE_READY;
 80047a8:	687b      	ldr	r3, [r7, #4]
 80047aa:	2220      	movs	r2, #32
 80047ac:	f883 2041 	strb.w	r2, [r3, #65]	; 0x41
  huart->RxState = HAL_UART_STATE_READY;
 80047b0:	687b      	ldr	r3, [r7, #4]
 80047b2:	2220      	movs	r2, #32
 80047b4:	f883 2042 	strb.w	r2, [r3, #66]	; 0x42
  huart->RxEventType = HAL_UART_RXEVENT_TC;
 80047b8:	687b      	ldr	r3, [r7, #4]
 80047ba:	2200      	movs	r2, #0
 80047bc:	635a      	str	r2, [r3, #52]	; 0x34

  return HAL_OK;
 80047be:	2300      	movs	r3, #0
}
 80047c0:	4618      	mov	r0, r3
 80047c2:	3708      	adds	r7, #8
 80047c4:	46bd      	mov	sp, r7
 80047c6:	bd80      	pop	{r7, pc}

080047c8 <HAL_UART_Transmit>:
  * @param  Size  Amount of data elements (u8 or u16) to be sent
  * @param  Timeout Timeout duration
  * @retval HAL status
  */
HAL_StatusTypeDef HAL_UART_Transmit(UART_HandleTypeDef *huart, const uint8_t *pData, uint16_t Size, uint32_t Timeout)
{
 80047c8:	b580      	push	{r7, lr}
 80047ca:	b08a      	sub	sp, #40	; 0x28
 80047cc:	af02      	add	r7, sp, #8
 80047ce:	60f8      	str	r0, [r7, #12]
 80047d0:	60b9      	str	r1, [r7, #8]
 80047d2:	603b      	str	r3, [r7, #0]
 80047d4:	4613      	mov	r3, r2
 80047d6:	80fb      	strh	r3, [r7, #6]
  const uint8_t  *pdata8bits;
  const uint16_t *pdata16bits;
  uint32_t tickstart = 0U;
 80047d8:	2300      	movs	r3, #0
 80047da:	617b      	str	r3, [r7, #20]

  /* Check that a Tx process is not already ongoing */
  if (huart->gState == HAL_UART_STATE_READY)
 80047dc:	68fb      	ldr	r3, [r7, #12]
 80047de:	f893 3041 	ldrb.w	r3, [r3, #65]	; 0x41
 80047e2:	b2db      	uxtb	r3, r3
 80047e4:	2b20      	cmp	r3, #32
 80047e6:	d16d      	bne.n	80048c4 <HAL_UART_Transmit+0xfc>
  {
    if ((pData == NULL) || (Size == 0U))
 80047e8:	68bb      	ldr	r3, [r7, #8]
 80047ea:	2b00      	cmp	r3, #0
 80047ec:	d002      	beq.n	80047f4 <HAL_UART_Transmit+0x2c>
 80047ee:	88fb      	ldrh	r3, [r7, #6]
 80047f0:	2b00      	cmp	r3, #0
 80047f2:	d101      	bne.n	80047f8 <HAL_UART_Transmit+0x30>
    {
      return  HAL_ERROR;
 80047f4:	2301      	movs	r3, #1
 80047f6:	e066      	b.n	80048c6 <HAL_UART_Transmit+0xfe>
    }

    huart->ErrorCode = HAL_UART_ERROR_NONE;
 80047f8:	68fb      	ldr	r3, [r7, #12]
 80047fa:	2200      	movs	r2, #0
 80047fc:	645a      	str	r2, [r3, #68]	; 0x44
    huart->gState = HAL_UART_STATE_BUSY_TX;
 80047fe:	68fb      	ldr	r3, [r7, #12]
 8004800:	2221      	movs	r2, #33	; 0x21
 8004802:	f883 2041 	strb.w	r2, [r3, #65]	; 0x41

    /* Init tickstart for timeout management */
    tickstart = HAL_GetTick();
 8004806:	f7fd fcaf 	bl	8002168 <HAL_GetTick>
 800480a:	6178      	str	r0, [r7, #20]

    huart->TxXferSize = Size;
 800480c:	68fb      	ldr	r3, [r7, #12]
 800480e:	88fa      	ldrh	r2, [r7, #6]
 8004810:	849a      	strh	r2, [r3, #36]	; 0x24
    huart->TxXferCount = Size;
 8004812:	68fb      	ldr	r3, [r7, #12]
 8004814:	88fa      	ldrh	r2, [r7, #6]
 8004816:	84da      	strh	r2, [r3, #38]	; 0x26

    /* In case of 9bits/No Parity transfer, pData needs to be handled as a uint16_t pointer */
    if ((huart->Init.WordLength == UART_WORDLENGTH_9B) && (huart->Init.Parity == UART_PARITY_NONE))
 8004818:	68fb      	ldr	r3, [r7, #12]
 800481a:	689b      	ldr	r3, [r3, #8]
 800481c:	f5b3 5f80 	cmp.w	r3, #4096	; 0x1000
 8004820:	d108      	bne.n	8004834 <HAL_UART_Transmit+0x6c>
 8004822:	68fb      	ldr	r3, [r7, #12]
 8004824:	691b      	ldr	r3, [r3, #16]
 8004826:	2b00      	cmp	r3, #0
 8004828:	d104      	bne.n	8004834 <HAL_UART_Transmit+0x6c>
    {
      pdata8bits  = NULL;
 800482a:	2300      	movs	r3, #0
 800482c:	61fb      	str	r3, [r7, #28]
      pdata16bits = (const uint16_t *) pData;
 800482e:	68bb      	ldr	r3, [r7, #8]
 8004830:	61bb      	str	r3, [r7, #24]
 8004832:	e003      	b.n	800483c <HAL_UART_Transmit+0x74>
    }
    else
    {
      pdata8bits  = pData;
 8004834:	68bb      	ldr	r3, [r7, #8]
 8004836:	61fb      	str	r3, [r7, #28]
      pdata16bits = NULL;
 8004838:	2300      	movs	r3, #0
 800483a:	61bb      	str	r3, [r7, #24]
    }

    while (huart->TxXferCount > 0U)
 800483c:	e02a      	b.n	8004894 <HAL_UART_Transmit+0xcc>
    {
      if (UART_WaitOnFlagUntilTimeout(huart, UART_FLAG_TXE, RESET, tickstart, Timeout) != HAL_OK)
 800483e:	683b      	ldr	r3, [r7, #0]
 8004840:	9300      	str	r3, [sp, #0]
 8004842:	697b      	ldr	r3, [r7, #20]
 8004844:	2200      	movs	r2, #0
 8004846:	2180      	movs	r1, #128	; 0x80
 8004848:	68f8      	ldr	r0, [r7, #12]
 800484a:	f000 faf9 	bl	8004e40 <UART_WaitOnFlagUntilTimeout>
 800484e:	4603      	mov	r3, r0
 8004850:	2b00      	cmp	r3, #0
 8004852:	d001      	beq.n	8004858 <HAL_UART_Transmit+0x90>
      {
        return HAL_TIMEOUT;
 8004854:	2303      	movs	r3, #3
 8004856:	e036      	b.n	80048c6 <HAL_UART_Transmit+0xfe>
      }
      if (pdata8bits == NULL)
 8004858:	69fb      	ldr	r3, [r7, #28]
 800485a:	2b00      	cmp	r3, #0
 800485c:	d10b      	bne.n	8004876 <HAL_UART_Transmit+0xae>
      {
        huart->Instance->DR = (uint16_t)(*pdata16bits & 0x01FFU);
 800485e:	69bb      	ldr	r3, [r7, #24]
 8004860:	881b      	ldrh	r3, [r3, #0]
 8004862:	461a      	mov	r2, r3
 8004864:	68fb      	ldr	r3, [r7, #12]
 8004866:	681b      	ldr	r3, [r3, #0]
 8004868:	f3c2 0208 	ubfx	r2, r2, #0, #9
 800486c:	605a      	str	r2, [r3, #4]
        pdata16bits++;
 800486e:	69bb      	ldr	r3, [r7, #24]
 8004870:	3302      	adds	r3, #2
 8004872:	61bb      	str	r3, [r7, #24]
 8004874:	e007      	b.n	8004886 <HAL_UART_Transmit+0xbe>
      }
      else
      {
        huart->Instance->DR = (uint8_t)(*pdata8bits & 0xFFU);
 8004876:	69fb      	ldr	r3, [r7, #28]
 8004878:	781a      	ldrb	r2, [r3, #0]
 800487a:	68fb      	ldr	r3, [r7, #12]
 800487c:	681b      	ldr	r3, [r3, #0]
 800487e:	605a      	str	r2, [r3, #4]
        pdata8bits++;
 8004880:	69fb      	ldr	r3, [r7, #28]
 8004882:	3301      	adds	r3, #1
 8004884:	61fb      	str	r3, [r7, #28]
      }
      huart->TxXferCount--;
 8004886:	68fb      	ldr	r3, [r7, #12]
 8004888:	8cdb      	ldrh	r3, [r3, #38]	; 0x26
 800488a:	b29b      	uxth	r3, r3
 800488c:	3b01      	subs	r3, #1
 800488e:	b29a      	uxth	r2, r3
 8004890:	68fb      	ldr	r3, [r7, #12]
 8004892:	84da      	strh	r2, [r3, #38]	; 0x26
    while (huart->TxXferCount > 0U)
 8004894:	68fb      	ldr	r3, [r7, #12]
 8004896:	8cdb      	ldrh	r3, [r3, #38]	; 0x26
 8004898:	b29b      	uxth	r3, r3
 800489a:	2b00      	cmp	r3, #0
 800489c:	d1cf      	bne.n	800483e <HAL_UART_Transmit+0x76>
    }

    if (UART_WaitOnFlagUntilTimeout(huart, UART_FLAG_TC, RESET, tickstart, Timeout) != HAL_OK)
 800489e:	683b      	ldr	r3, [r7, #0]
 80048a0:	9300      	str	r3, [sp, #0]
 80048a2:	697b      	ldr	r3, [r7, #20]
 80048a4:	2200      	movs	r2, #0
 80048a6:	2140      	movs	r1, #64	; 0x40
 80048a8:	68f8      	ldr	r0, [r7, #12]
 80048aa:	f000 fac9 	bl	8004e40 <UART_WaitOnFlagUntilTimeout>
 80048ae:	4603      	mov	r3, r0
 80048b0:	2b00      	cmp	r3, #0
 80048b2:	d001      	beq.n	80048b8 <HAL_UART_Transmit+0xf0>
    {
      return HAL_TIMEOUT;
 80048b4:	2303      	movs	r3, #3
 80048b6:	e006      	b.n	80048c6 <HAL_UART_Transmit+0xfe>
    }

    /* At end of Tx process, restore huart->gState to Ready */
    huart->gState = HAL_UART_STATE_READY;
 80048b8:	68fb      	ldr	r3, [r7, #12]
 80048ba:	2220      	movs	r2, #32
 80048bc:	f883 2041 	strb.w	r2, [r3, #65]	; 0x41

    return HAL_OK;
 80048c0:	2300      	movs	r3, #0
 80048c2:	e000      	b.n	80048c6 <HAL_UART_Transmit+0xfe>
  }
  else
  {
    return HAL_BUSY;
 80048c4:	2302      	movs	r3, #2
  }
}
 80048c6:	4618      	mov	r0, r3
 80048c8:	3720      	adds	r7, #32
 80048ca:	46bd      	mov	sp, r7
 80048cc:	bd80      	pop	{r7, pc}
	...

080048d0 <HAL_UART_IRQHandler>:
  * @param  huart  Pointer to a UART_HandleTypeDef structure that contains
  *                the configuration information for the specified UART module.
  * @retval None
  */
void HAL_UART_IRQHandler(UART_HandleTypeDef *huart)
{
 80048d0:	b580      	push	{r7, lr}
 80048d2:	b0ba      	sub	sp, #232	; 0xe8
 80048d4:	af00      	add	r7, sp, #0
 80048d6:	6078      	str	r0, [r7, #4]
  uint32_t isrflags   = READ_REG(huart->Instance->SR);
 80048d8:	687b      	ldr	r3, [r7, #4]
 80048da:	681b      	ldr	r3, [r3, #0]
 80048dc:	681b      	ldr	r3, [r3, #0]
 80048de:	f8c7 30e4 	str.w	r3, [r7, #228]	; 0xe4
  uint32_t cr1its     = READ_REG(huart->Instance->CR1);
 80048e2:	687b      	ldr	r3, [r7, #4]
 80048e4:	681b      	ldr	r3, [r3, #0]
 80048e6:	68db      	ldr	r3, [r3, #12]
 80048e8:	f8c7 30e0 	str.w	r3, [r7, #224]	; 0xe0
  uint32_t cr3its     = READ_REG(huart->Instance->CR3);
 80048ec:	687b      	ldr	r3, [r7, #4]
 80048ee:	681b      	ldr	r3, [r3, #0]
 80048f0:	695b      	ldr	r3, [r3, #20]
 80048f2:	f8c7 30dc 	str.w	r3, [r7, #220]	; 0xdc
  uint32_t errorflags = 0x00U;
 80048f6:	2300      	movs	r3, #0
 80048f8:	f8c7 30d8 	str.w	r3, [r7, #216]	; 0xd8
  uint32_t dmarequest = 0x00U;
 80048fc:	2300      	movs	r3, #0
 80048fe:	f8c7 30d4 	str.w	r3, [r7, #212]	; 0xd4

  /* If no error occurs */
  errorflags = (isrflags & (uint32_t)(USART_SR_PE | USART_SR_FE | USART_SR_ORE | USART_SR_NE));
 8004902:	f8d7 30e4 	ldr.w	r3, [r7, #228]	; 0xe4
 8004906:	f003 030f 	and.w	r3, r3, #15
 800490a:	f8c7 30d8 	str.w	r3, [r7, #216]	; 0xd8
  if (errorflags == RESET)
 800490e:	f8d7 30d8 	ldr.w	r3, [r7, #216]	; 0xd8
 8004912:	2b00      	cmp	r3, #0
 8004914:	d10f      	bne.n	8004936 <HAL_UART_IRQHandler+0x66>
  {
    /* UART in mode Receiver -------------------------------------------------*/
    if (((isrflags & USART_SR_RXNE) != RESET) && ((cr1its & USART_CR1_RXNEIE) != RESET))
 8004916:	f8d7 30e4 	ldr.w	r3, [r7, #228]	; 0xe4
 800491a:	f003 0320 	and.w	r3, r3, #32
 800491e:	2b00      	cmp	r3, #0
 8004920:	d009      	beq.n	8004936 <HAL_UART_IRQHandler+0x66>
 8004922:	f8d7 30e0 	ldr.w	r3, [r7, #224]	; 0xe0
 8004926:	f003 0320 	and.w	r3, r3, #32
 800492a:	2b00      	cmp	r3, #0
 800492c:	d003      	beq.n	8004936 <HAL_UART_IRQHandler+0x66>
    {
      UART_Receive_IT(huart);
 800492e:	6878      	ldr	r0, [r7, #4]
 8004930:	f000 fbd1 	bl	80050d6 <UART_Receive_IT>
      return;
 8004934:	e25b      	b.n	8004dee <HAL_UART_IRQHandler+0x51e>
    }
  }

  /* If some errors occur */
  if ((errorflags != RESET) && (((cr3its & USART_CR3_EIE) != RESET)
 8004936:	f8d7 30d8 	ldr.w	r3, [r7, #216]	; 0xd8
 800493a:	2b00      	cmp	r3, #0
 800493c:	f000 80de 	beq.w	8004afc <HAL_UART_IRQHandler+0x22c>
 8004940:	f8d7 30dc 	ldr.w	r3, [r7, #220]	; 0xdc
 8004944:	f003 0301 	and.w	r3, r3, #1
 8004948:	2b00      	cmp	r3, #0
 800494a:	d106      	bne.n	800495a <HAL_UART_IRQHandler+0x8a>
                                || ((cr1its & (USART_CR1_RXNEIE | USART_CR1_PEIE)) != RESET)))
 800494c:	f8d7 30e0 	ldr.w	r3, [r7, #224]	; 0xe0
 8004950:	f403 7390 	and.w	r3, r3, #288	; 0x120
 8004954:	2b00      	cmp	r3, #0
 8004956:	f000 80d1 	beq.w	8004afc <HAL_UART_IRQHandler+0x22c>
  {
    /* UART parity error interrupt occurred ----------------------------------*/
    if (((isrflags & USART_SR_PE) != RESET) && ((cr1its & USART_CR1_PEIE) != RESET))
 800495a:	f8d7 30e4 	ldr.w	r3, [r7, #228]	; 0xe4
 800495e:	f003 0301 	and.w	r3, r3, #1
 8004962:	2b00      	cmp	r3, #0
 8004964:	d00b      	beq.n	800497e <HAL_UART_IRQHandler+0xae>
 8004966:	f8d7 30e0 	ldr.w	r3, [r7, #224]	; 0xe0
 800496a:	f403 7380 	and.w	r3, r3, #256	; 0x100
 800496e:	2b00      	cmp	r3, #0
 8004970:	d005      	beq.n	800497e <HAL_UART_IRQHandler+0xae>
    {
      huart->ErrorCode |= HAL_UART_ERROR_PE;
 8004972:	687b      	ldr	r3, [r7, #4]
 8004974:	6c5b      	ldr	r3, [r3, #68]	; 0x44
 8004976:	f043 0201 	orr.w	r2, r3, #1
 800497a:	687b      	ldr	r3, [r7, #4]
 800497c:	645a      	str	r2, [r3, #68]	; 0x44
    }

    /* UART noise error interrupt occurred -----------------------------------*/
    if (((isrflags & USART_SR_NE) != RESET) && ((cr3its & USART_CR3_EIE) != RESET))
 800497e:	f8d7 30e4 	ldr.w	r3, [r7, #228]	; 0xe4
 8004982:	f003 0304 	and.w	r3, r3, #4
 8004986:	2b00      	cmp	r3, #0
 8004988:	d00b      	beq.n	80049a2 <HAL_UART_IRQHandler+0xd2>
 800498a:	f8d7 30dc 	ldr.w	r3, [r7, #220]	; 0xdc
 800498e:	f003 0301 	and.w	r3, r3, #1
 8004992:	2b00      	cmp	r3, #0
 8004994:	d005      	beq.n	80049a2 <HAL_UART_IRQHandler+0xd2>
    {
      huart->ErrorCode |= HAL_UART_ERROR_NE;
 8004996:	687b      	ldr	r3, [r7, #4]
 8004998:	6c5b      	ldr	r3, [r3, #68]	; 0x44
 800499a:	f043 0202 	orr.w	r2, r3, #2
 800499e:	687b      	ldr	r3, [r7, #4]
 80049a0:	645a      	str	r2, [r3, #68]	; 0x44
    }

    /* UART frame error interrupt occurred -----------------------------------*/
    if (((isrflags & USART_SR_FE) != RESET) && ((cr3its & USART_CR3_EIE) != RESET))
 80049a2:	f8d7 30e4 	ldr.w	r3, [r7, #228]	; 0xe4
 80049a6:	f003 0302 	and.w	r3, r3, #2
 80049aa:	2b00      	cmp	r3, #0
 80049ac:	d00b      	beq.n	80049c6 <HAL_UART_IRQHandler+0xf6>
 80049ae:	f8d7 30dc 	ldr.w	r3, [r7, #220]	; 0xdc
 80049b2:	f003 0301 	and.w	r3, r3, #1
 80049b6:	2b00      	cmp	r3, #0
 80049b8:	d005      	beq.n	80049c6 <HAL_UART_IRQHandler+0xf6>
    {
      huart->ErrorCode |= HAL_UART_ERROR_FE;
 80049ba:	687b      	ldr	r3, [r7, #4]
 80049bc:	6c5b      	ldr	r3, [r3, #68]	; 0x44
 80049be:	f043 0204 	orr.w	r2, r3, #4
 80049c2:	687b      	ldr	r3, [r7, #4]
 80049c4:	645a      	str	r2, [r3, #68]	; 0x44
    }

    /* UART Over-Run interrupt occurred --------------------------------------*/
    if (((isrflags & USART_SR_ORE) != RESET) && (((cr1its & USART_CR1_RXNEIE) != RESET)
 80049c6:	f8d7 30e4 	ldr.w	r3, [r7, #228]	; 0xe4
 80049ca:	f003 0308 	and.w	r3, r3, #8
 80049ce:	2b00      	cmp	r3, #0
 80049d0:	d011      	beq.n	80049f6 <HAL_UART_IRQHandler+0x126>
 80049d2:	f8d7 30e0 	ldr.w	r3, [r7, #224]	; 0xe0
 80049d6:	f003 0320 	and.w	r3, r3, #32
 80049da:	2b00      	cmp	r3, #0
 80049dc:	d105      	bne.n	80049ea <HAL_UART_IRQHandler+0x11a>
                                                 || ((cr3its & USART_CR3_EIE) != RESET)))
 80049de:	f8d7 30dc 	ldr.w	r3, [r7, #220]	; 0xdc
 80049e2:	f003 0301 	and.w	r3, r3, #1
 80049e6:	2b00      	cmp	r3, #0
 80049e8:	d005      	beq.n	80049f6 <HAL_UART_IRQHandler+0x126>
    {
      huart->ErrorCode |= HAL_UART_ERROR_ORE;
 80049ea:	687b      	ldr	r3, [r7, #4]
 80049ec:	6c5b      	ldr	r3, [r3, #68]	; 0x44
 80049ee:	f043 0208 	orr.w	r2, r3, #8
 80049f2:	687b      	ldr	r3, [r7, #4]
 80049f4:	645a      	str	r2, [r3, #68]	; 0x44
    }

    /* Call UART Error Call back function if need be --------------------------*/
    if (huart->ErrorCode != HAL_UART_ERROR_NONE)
 80049f6:	687b      	ldr	r3, [r7, #4]
 80049f8:	6c5b      	ldr	r3, [r3, #68]	; 0x44
 80049fa:	2b00      	cmp	r3, #0
 80049fc:	f000 81f2 	beq.w	8004de4 <HAL_UART_IRQHandler+0x514>
    {
      /* UART in mode Receiver -----------------------------------------------*/
      if (((isrflags & USART_SR_RXNE) != RESET) && ((cr1its & USART_CR1_RXNEIE) != RESET))
 8004a00:	f8d7 30e4 	ldr.w	r3, [r7, #228]	; 0xe4
 8004a04:	f003 0320 	and.w	r3, r3, #32
 8004a08:	2b00      	cmp	r3, #0
 8004a0a:	d008      	beq.n	8004a1e <HAL_UART_IRQHandler+0x14e>
 8004a0c:	f8d7 30e0 	ldr.w	r3, [r7, #224]	; 0xe0
 8004a10:	f003 0320 	and.w	r3, r3, #32
 8004a14:	2b00      	cmp	r3, #0
 8004a16:	d002      	beq.n	8004a1e <HAL_UART_IRQHandler+0x14e>
      {
        UART_Receive_IT(huart);
 8004a18:	6878      	ldr	r0, [r7, #4]
 8004a1a:	f000 fb5c 	bl	80050d6 <UART_Receive_IT>
      }

      /* If Overrun error occurs, or if any error occurs in DMA mode reception,
         consider error as blocking */
      dmarequest = HAL_IS_BIT_SET(huart->Instance->CR3, USART_CR3_DMAR);
 8004a1e:	687b      	ldr	r3, [r7, #4]
 8004a20:	681b      	ldr	r3, [r3, #0]
 8004a22:	695b      	ldr	r3, [r3, #20]
 8004a24:	f003 0340 	and.w	r3, r3, #64	; 0x40
 8004a28:	2b40      	cmp	r3, #64	; 0x40
 8004a2a:	bf0c      	ite	eq
 8004a2c:	2301      	moveq	r3, #1
 8004a2e:	2300      	movne	r3, #0
 8004a30:	b2db      	uxtb	r3, r3
 8004a32:	f8c7 30d4 	str.w	r3, [r7, #212]	; 0xd4
      if (((huart->ErrorCode & HAL_UART_ERROR_ORE) != RESET) || dmarequest)
 8004a36:	687b      	ldr	r3, [r7, #4]
 8004a38:	6c5b      	ldr	r3, [r3, #68]	; 0x44
 8004a3a:	f003 0308 	and.w	r3, r3, #8
 8004a3e:	2b00      	cmp	r3, #0
 8004a40:	d103      	bne.n	8004a4a <HAL_UART_IRQHandler+0x17a>
 8004a42:	f8d7 30d4 	ldr.w	r3, [r7, #212]	; 0xd4
 8004a46:	2b00      	cmp	r3, #0
 8004a48:	d04f      	beq.n	8004aea <HAL_UART_IRQHandler+0x21a>
      {
        /* Blocking error : transfer is aborted
           Set the UART state ready to be able to start again the process,
           Disable Rx Interrupts, and disable Rx DMA request, if ongoing */
        UART_EndRxTransfer(huart);
 8004a4a:	6878      	ldr	r0, [r7, #4]
 8004a4c:	f000 fa66 	bl	8004f1c <UART_EndRxTransfer>

        /* Disable the UART DMA Rx request if enabled */
        if (HAL_IS_BIT_SET(huart->Instance->CR3, USART_CR3_DMAR))
 8004a50:	687b      	ldr	r3, [r7, #4]
 8004a52:	681b      	ldr	r3, [r3, #0]
 8004a54:	695b      	ldr	r3, [r3, #20]
 8004a56:	f003 0340 	and.w	r3, r3, #64	; 0x40
 8004a5a:	2b40      	cmp	r3, #64	; 0x40
 8004a5c:	d141      	bne.n	8004ae2 <HAL_UART_IRQHandler+0x212>
        {
          ATOMIC_CLEAR_BIT(huart->Instance->CR3, USART_CR3_DMAR);
 8004a5e:	687b      	ldr	r3, [r7, #4]
 8004a60:	681b      	ldr	r3, [r3, #0]
 8004a62:	3314      	adds	r3, #20
 8004a64:	f8c7 309c 	str.w	r3, [r7, #156]	; 0x9c
 */
__STATIC_FORCEINLINE uint32_t __LDREXW(volatile uint32_t *addr)
{
    uint32_t result;

   __ASM volatile ("ldrex %0, %1" : "=r" (result) : "Q" (*addr) );
 8004a68:	f8d7 309c 	ldr.w	r3, [r7, #156]	; 0x9c
 8004a6c:	e853 3f00 	ldrex	r3, [r3]
 8004a70:	f8c7 3098 	str.w	r3, [r7, #152]	; 0x98
   return(result);
 8004a74:	f8d7 3098 	ldr.w	r3, [r7, #152]	; 0x98
 8004a78:	f023 0340 	bic.w	r3, r3, #64	; 0x40
 8004a7c:	f8c7 30d0 	str.w	r3, [r7, #208]	; 0xd0
 8004a80:	687b      	ldr	r3, [r7, #4]
 8004a82:	681b      	ldr	r3, [r3, #0]
 8004a84:	3314      	adds	r3, #20
 8004a86:	f8d7 20d0 	ldr.w	r2, [r7, #208]	; 0xd0
 8004a8a:	f8c7 20a8 	str.w	r2, [r7, #168]	; 0xa8
 8004a8e:	f8c7 30a4 	str.w	r3, [r7, #164]	; 0xa4
 */
__STATIC_FORCEINLINE uint32_t __STREXW(uint32_t value, volatile uint32_t *addr)
{
   uint32_t result;

   __ASM volatile ("strex %0, %2, %1" : "=&r" (result), "=Q" (*addr) : "r" (value) );
 8004a92:	f8d7 10a4 	ldr.w	r1, [r7, #164]	; 0xa4
 8004a96:	f8d7 20a8 	ldr.w	r2, [r7, #168]	; 0xa8
 8004a9a:	e841 2300 	strex	r3, r2, [r1]
 8004a9e:	f8c7 30a0 	str.w	r3, [r7, #160]	; 0xa0
   return(result);
 8004aa2:	f8d7 30a0 	ldr.w	r3, [r7, #160]	; 0xa0
 8004aa6:	2b00      	cmp	r3, #0
 8004aa8:	d1d9      	bne.n	8004a5e <HAL_UART_IRQHandler+0x18e>

          /* Abort the UART DMA Rx channel */
          if (huart->hdmarx != NULL)
 8004aaa:	687b      	ldr	r3, [r7, #4]
 8004aac:	6bdb      	ldr	r3, [r3, #60]	; 0x3c
 8004aae:	2b00      	cmp	r3, #0
 8004ab0:	d013      	beq.n	8004ada <HAL_UART_IRQHandler+0x20a>
          {
            /* Set the UART DMA Abort callback :
               will lead to call HAL_UART_ErrorCallback() at end of DMA abort procedure */
            huart->hdmarx->XferAbortCallback = UART_DMAAbortOnError;
 8004ab2:	687b      	ldr	r3, [r7, #4]
 8004ab4:	6bdb      	ldr	r3, [r3, #60]	; 0x3c
 8004ab6:	4a7e      	ldr	r2, [pc, #504]	; (8004cb0 <HAL_UART_IRQHandler+0x3e0>)
 8004ab8:	635a      	str	r2, [r3, #52]	; 0x34
            if (HAL_DMA_Abort_IT(huart->hdmarx) != HAL_OK)
 8004aba:	687b      	ldr	r3, [r7, #4]
 8004abc:	6bdb      	ldr	r3, [r3, #60]	; 0x3c
 8004abe:	4618      	mov	r0, r3
 8004ac0:	f7fd fcfa 	bl	80024b8 <HAL_DMA_Abort_IT>
 8004ac4:	4603      	mov	r3, r0
 8004ac6:	2b00      	cmp	r3, #0
 8004ac8:	d016      	beq.n	8004af8 <HAL_UART_IRQHandler+0x228>
            {
              /* Call Directly XferAbortCallback function in case of error */
              huart->hdmarx->XferAbortCallback(huart->hdmarx);
 8004aca:	687b      	ldr	r3, [r7, #4]
 8004acc:	6bdb      	ldr	r3, [r3, #60]	; 0x3c
 8004ace:	6b5b      	ldr	r3, [r3, #52]	; 0x34
 8004ad0:	687a      	ldr	r2, [r7, #4]
 8004ad2:	6bd2      	ldr	r2, [r2, #60]	; 0x3c
 8004ad4:	4610      	mov	r0, r2
 8004ad6:	4798      	blx	r3
        if (HAL_IS_BIT_SET(huart->Instance->CR3, USART_CR3_DMAR))
 8004ad8:	e00e      	b.n	8004af8 <HAL_UART_IRQHandler+0x228>
#if (USE_HAL_UART_REGISTER_CALLBACKS == 1)
            /*Call registered error callback*/
            huart->ErrorCallback(huart);
#else
            /*Call legacy weak error callback*/
            HAL_UART_ErrorCallback(huart);
 8004ada:	6878      	ldr	r0, [r7, #4]
 8004adc:	f000 f99c 	bl	8004e18 <HAL_UART_ErrorCallback>
        if (HAL_IS_BIT_SET(huart->Instance->CR3, USART_CR3_DMAR))
 8004ae0:	e00a      	b.n	8004af8 <HAL_UART_IRQHandler+0x228>
#if (USE_HAL_UART_REGISTER_CALLBACKS == 1)
          /*Call registered error callback*/
          huart->ErrorCallback(huart);
#else
          /*Call legacy weak error callback*/
          HAL_UART_ErrorCallback(huart);
 8004ae2:	6878      	ldr	r0, [r7, #4]
 8004ae4:	f000 f998 	bl	8004e18 <HAL_UART_ErrorCallback>
        if (HAL_IS_BIT_SET(huart->Instance->CR3, USART_CR3_DMAR))
 8004ae8:	e006      	b.n	8004af8 <HAL_UART_IRQHandler+0x228>
#if (USE_HAL_UART_REGISTER_CALLBACKS == 1)
        /*Call registered error callback*/
        huart->ErrorCallback(huart);
#else
        /*Call legacy weak error callback*/
        HAL_UART_ErrorCallback(huart);
 8004aea:	6878      	ldr	r0, [r7, #4]
 8004aec:	f000 f994 	bl	8004e18 <HAL_UART_ErrorCallback>
#endif /* USE_HAL_UART_REGISTER_CALLBACKS */

        huart->ErrorCode = HAL_UART_ERROR_NONE;
 8004af0:	687b      	ldr	r3, [r7, #4]
 8004af2:	2200      	movs	r2, #0
 8004af4:	645a      	str	r2, [r3, #68]	; 0x44
      }
    }
    return;
 8004af6:	e175      	b.n	8004de4 <HAL_UART_IRQHandler+0x514>
        if (HAL_IS_BIT_SET(huart->Instance->CR3, USART_CR3_DMAR))
 8004af8:	bf00      	nop
    return;
 8004afa:	e173      	b.n	8004de4 <HAL_UART_IRQHandler+0x514>
  } /* End if some error occurs */

  /* Check current reception Mode :
     If Reception till IDLE event has been selected : */
  if ((huart->ReceptionType == HAL_UART_RECEPTION_TOIDLE)
 8004afc:	687b      	ldr	r3, [r7, #4]
 8004afe:	6b1b      	ldr	r3, [r3, #48]	; 0x30
 8004b00:	2b01      	cmp	r3, #1
 8004b02:	f040 814f 	bne.w	8004da4 <HAL_UART_IRQHandler+0x4d4>
      && ((isrflags & USART_SR_IDLE) != 0U)
 8004b06:	f8d7 30e4 	ldr.w	r3, [r7, #228]	; 0xe4
 8004b0a:	f003 0310 	and.w	r3, r3, #16
 8004b0e:	2b00      	cmp	r3, #0
 8004b10:	f000 8148 	beq.w	8004da4 <HAL_UART_IRQHandler+0x4d4>
      && ((cr1its & USART_SR_IDLE) != 0U))
 8004b14:	f8d7 30e0 	ldr.w	r3, [r7, #224]	; 0xe0
 8004b18:	f003 0310 	and.w	r3, r3, #16
 8004b1c:	2b00      	cmp	r3, #0
 8004b1e:	f000 8141 	beq.w	8004da4 <HAL_UART_IRQHandler+0x4d4>
  {
    __HAL_UART_CLEAR_IDLEFLAG(huart);
 8004b22:	2300      	movs	r3, #0
 8004b24:	60bb      	str	r3, [r7, #8]
 8004b26:	687b      	ldr	r3, [r7, #4]
 8004b28:	681b      	ldr	r3, [r3, #0]
 8004b2a:	681b      	ldr	r3, [r3, #0]
 8004b2c:	60bb      	str	r3, [r7, #8]
 8004b2e:	687b      	ldr	r3, [r7, #4]
 8004b30:	681b      	ldr	r3, [r3, #0]
 8004b32:	685b      	ldr	r3, [r3, #4]
 8004b34:	60bb      	str	r3, [r7, #8]
 8004b36:	68bb      	ldr	r3, [r7, #8]

    /* Check if DMA mode is enabled in UART */
    if (HAL_IS_BIT_SET(huart->Instance->CR3, USART_CR3_DMAR))
 8004b38:	687b      	ldr	r3, [r7, #4]
 8004b3a:	681b      	ldr	r3, [r3, #0]
 8004b3c:	695b      	ldr	r3, [r3, #20]
 8004b3e:	f003 0340 	and.w	r3, r3, #64	; 0x40
 8004b42:	2b40      	cmp	r3, #64	; 0x40
 8004b44:	f040 80b6 	bne.w	8004cb4 <HAL_UART_IRQHandler+0x3e4>
    {
      /* DMA mode enabled */
      /* Check received length : If all expected data are received, do nothing,
         (DMA cplt callback will be called).
         Otherwise, if at least one data has already been received, IDLE event is to be notified to user */
      uint16_t nb_remaining_rx_data = (uint16_t) __HAL_DMA_GET_COUNTER(huart->hdmarx);
 8004b48:	687b      	ldr	r3, [r7, #4]
 8004b4a:	6bdb      	ldr	r3, [r3, #60]	; 0x3c
 8004b4c:	681b      	ldr	r3, [r3, #0]
 8004b4e:	685b      	ldr	r3, [r3, #4]
 8004b50:	f8a7 30be 	strh.w	r3, [r7, #190]	; 0xbe
      if ((nb_remaining_rx_data > 0U)
 8004b54:	f8b7 30be 	ldrh.w	r3, [r7, #190]	; 0xbe
 8004b58:	2b00      	cmp	r3, #0
 8004b5a:	f000 8145 	beq.w	8004de8 <HAL_UART_IRQHandler+0x518>
          && (nb_remaining_rx_data < huart->RxXferSize))
 8004b5e:	687b      	ldr	r3, [r7, #4]
 8004b60:	8d9b      	ldrh	r3, [r3, #44]	; 0x2c
 8004b62:	f8b7 20be 	ldrh.w	r2, [r7, #190]	; 0xbe
 8004b66:	429a      	cmp	r2, r3
 8004b68:	f080 813e 	bcs.w	8004de8 <HAL_UART_IRQHandler+0x518>
      {
        /* Reception is not complete */
        huart->RxXferCount = nb_remaining_rx_data;
 8004b6c:	687b      	ldr	r3, [r7, #4]
 8004b6e:	f8b7 20be 	ldrh.w	r2, [r7, #190]	; 0xbe
 8004b72:	85da      	strh	r2, [r3, #46]	; 0x2e

        /* In Normal mode, end DMA xfer and HAL UART Rx process*/
        if (huart->hdmarx->Init.Mode != DMA_CIRCULAR)
 8004b74:	687b      	ldr	r3, [r7, #4]
 8004b76:	6bdb      	ldr	r3, [r3, #60]	; 0x3c
 8004b78:	699b      	ldr	r3, [r3, #24]
 8004b7a:	2b20      	cmp	r3, #32
 8004b7c:	f000 8088 	beq.w	8004c90 <HAL_UART_IRQHandler+0x3c0>
        {
          /* Disable PE and ERR (Frame error, noise error, overrun error) interrupts */
          ATOMIC_CLEAR_BIT(huart->Instance->CR1, USART_CR1_PEIE);
 8004b80:	687b      	ldr	r3, [r7, #4]
 8004b82:	681b      	ldr	r3, [r3, #0]
 8004b84:	330c      	adds	r3, #12
 8004b86:	f8c7 3088 	str.w	r3, [r7, #136]	; 0x88
   __ASM volatile ("ldrex %0, %1" : "=r" (result) : "Q" (*addr) );
 8004b8a:	f8d7 3088 	ldr.w	r3, [r7, #136]	; 0x88
 8004b8e:	e853 3f00 	ldrex	r3, [r3]
 8004b92:	f8c7 3084 	str.w	r3, [r7, #132]	; 0x84
   return(result);
 8004b96:	f8d7 3084 	ldr.w	r3, [r7, #132]	; 0x84
 8004b9a:	f423 7380 	bic.w	r3, r3, #256	; 0x100
 8004b9e:	f8c7 30b8 	str.w	r3, [r7, #184]	; 0xb8
 8004ba2:	687b      	ldr	r3, [r7, #4]
 8004ba4:	681b      	ldr	r3, [r3, #0]
 8004ba6:	330c      	adds	r3, #12
 8004ba8:	f8d7 20b8 	ldr.w	r2, [r7, #184]	; 0xb8
 8004bac:	f8c7 2094 	str.w	r2, [r7, #148]	; 0x94
 8004bb0:	f8c7 3090 	str.w	r3, [r7, #144]	; 0x90
   __ASM volatile ("strex %0, %2, %1" : "=&r" (result), "=Q" (*addr) : "r" (value) );
 8004bb4:	f8d7 1090 	ldr.w	r1, [r7, #144]	; 0x90
 8004bb8:	f8d7 2094 	ldr.w	r2, [r7, #148]	; 0x94
 8004bbc:	e841 2300 	strex	r3, r2, [r1]
 8004bc0:	f8c7 308c 	str.w	r3, [r7, #140]	; 0x8c
   return(result);
 8004bc4:	f8d7 308c 	ldr.w	r3, [r7, #140]	; 0x8c
 8004bc8:	2b00      	cmp	r3, #0
 8004bca:	d1d9      	bne.n	8004b80 <HAL_UART_IRQHandler+0x2b0>
          ATOMIC_CLEAR_BIT(huart->Instance->CR3, USART_CR3_EIE);
 8004bcc:	687b      	ldr	r3, [r7, #4]
 8004bce:	681b      	ldr	r3, [r3, #0]
 8004bd0:	3314      	adds	r3, #20
 8004bd2:	677b      	str	r3, [r7, #116]	; 0x74
   __ASM volatile ("ldrex %0, %1" : "=r" (result) : "Q" (*addr) );
 8004bd4:	6f7b      	ldr	r3, [r7, #116]	; 0x74
 8004bd6:	e853 3f00 	ldrex	r3, [r3]
 8004bda:	673b      	str	r3, [r7, #112]	; 0x70
   return(result);
 8004bdc:	6f3b      	ldr	r3, [r7, #112]	; 0x70
 8004bde:	f023 0301 	bic.w	r3, r3, #1
 8004be2:	f8c7 30b4 	str.w	r3, [r7, #180]	; 0xb4
 8004be6:	687b      	ldr	r3, [r7, #4]
 8004be8:	681b      	ldr	r3, [r3, #0]
 8004bea:	3314      	adds	r3, #20
 8004bec:	f8d7 20b4 	ldr.w	r2, [r7, #180]	; 0xb4
 8004bf0:	f8c7 2080 	str.w	r2, [r7, #128]	; 0x80
 8004bf4:	67fb      	str	r3, [r7, #124]	; 0x7c
   __ASM volatile ("strex %0, %2, %1" : "=&r" (result), "=Q" (*addr) : "r" (value) );
 8004bf6:	6ff9      	ldr	r1, [r7, #124]	; 0x7c
 8004bf8:	f8d7 2080 	ldr.w	r2, [r7, #128]	; 0x80
 8004bfc:	e841 2300 	strex	r3, r2, [r1]
 8004c00:	67bb      	str	r3, [r7, #120]	; 0x78
   return(result);
 8004c02:	6fbb      	ldr	r3, [r7, #120]	; 0x78
 8004c04:	2b00      	cmp	r3, #0
 8004c06:	d1e1      	bne.n	8004bcc <HAL_UART_IRQHandler+0x2fc>

          /* Disable the DMA transfer for the receiver request by resetting the DMAR bit
             in the UART CR3 register */
          ATOMIC_CLEAR_BIT(huart->Instance->CR3, USART_CR3_DMAR);
 8004c08:	687b      	ldr	r3, [r7, #4]
 8004c0a:	681b      	ldr	r3, [r3, #0]
 8004c0c:	3314      	adds	r3, #20
 8004c0e:	663b      	str	r3, [r7, #96]	; 0x60
   __ASM volatile ("ldrex %0, %1" : "=r" (result) : "Q" (*addr) );
 8004c10:	6e3b      	ldr	r3, [r7, #96]	; 0x60
 8004c12:	e853 3f00 	ldrex	r3, [r3]
 8004c16:	65fb      	str	r3, [r7, #92]	; 0x5c
   return(result);
 8004c18:	6dfb      	ldr	r3, [r7, #92]	; 0x5c
 8004c1a:	f023 0340 	bic.w	r3, r3, #64	; 0x40
 8004c1e:	f8c7 30b0 	str.w	r3, [r7, #176]	; 0xb0
 8004c22:	687b      	ldr	r3, [r7, #4]
 8004c24:	681b      	ldr	r3, [r3, #0]
 8004c26:	3314      	adds	r3, #20
 8004c28:	f8d7 20b0 	ldr.w	r2, [r7, #176]	; 0xb0
 8004c2c:	66fa      	str	r2, [r7, #108]	; 0x6c
 8004c2e:	66bb      	str	r3, [r7, #104]	; 0x68
   __ASM volatile ("strex %0, %2, %1" : "=&r" (result), "=Q" (*addr) : "r" (value) );
 8004c30:	6eb9      	ldr	r1, [r7, #104]	; 0x68
 8004c32:	6efa      	ldr	r2, [r7, #108]	; 0x6c
 8004c34:	e841 2300 	strex	r3, r2, [r1]
 8004c38:	667b      	str	r3, [r7, #100]	; 0x64
   return(result);
 8004c3a:	6e7b      	ldr	r3, [r7, #100]	; 0x64
 8004c3c:	2b00      	cmp	r3, #0
 8004c3e:	d1e3      	bne.n	8004c08 <HAL_UART_IRQHandler+0x338>

          /* At end of Rx process, restore huart->RxState to Ready */
          huart->RxState = HAL_UART_STATE_READY;
 8004c40:	687b      	ldr	r3, [r7, #4]
 8004c42:	2220      	movs	r2, #32
 8004c44:	f883 2042 	strb.w	r2, [r3, #66]	; 0x42
          huart->ReceptionType = HAL_UART_RECEPTION_STANDARD;
 8004c48:	687b      	ldr	r3, [r7, #4]
 8004c4a:	2200      	movs	r2, #0
 8004c4c:	631a      	str	r2, [r3, #48]	; 0x30

          ATOMIC_CLEAR_BIT(huart->Instance->CR1, USART_CR1_IDLEIE);
 8004c4e:	687b      	ldr	r3, [r7, #4]
 8004c50:	681b      	ldr	r3, [r3, #0]
 8004c52:	330c      	adds	r3, #12
 8004c54:	64fb      	str	r3, [r7, #76]	; 0x4c
   __ASM volatile ("ldrex %0, %1" : "=r" (result) : "Q" (*addr) );
 8004c56:	6cfb      	ldr	r3, [r7, #76]	; 0x4c
 8004c58:	e853 3f00 	ldrex	r3, [r3]
 8004c5c:	64bb      	str	r3, [r7, #72]	; 0x48
   return(result);
 8004c5e:	6cbb      	ldr	r3, [r7, #72]	; 0x48
 8004c60:	f023 0310 	bic.w	r3, r3, #16
 8004c64:	f8c7 30ac 	str.w	r3, [r7, #172]	; 0xac
 8004c68:	687b      	ldr	r3, [r7, #4]
 8004c6a:	681b      	ldr	r3, [r3, #0]
 8004c6c:	330c      	adds	r3, #12
 8004c6e:	f8d7 20ac 	ldr.w	r2, [r7, #172]	; 0xac
 8004c72:	65ba      	str	r2, [r7, #88]	; 0x58
 8004c74:	657b      	str	r3, [r7, #84]	; 0x54
   __ASM volatile ("strex %0, %2, %1" : "=&r" (result), "=Q" (*addr) : "r" (value) );
 8004c76:	6d79      	ldr	r1, [r7, #84]	; 0x54
 8004c78:	6dba      	ldr	r2, [r7, #88]	; 0x58
 8004c7a:	e841 2300 	strex	r3, r2, [r1]
 8004c7e:	653b      	str	r3, [r7, #80]	; 0x50
   return(result);
 8004c80:	6d3b      	ldr	r3, [r7, #80]	; 0x50
 8004c82:	2b00      	cmp	r3, #0
 8004c84:	d1e3      	bne.n	8004c4e <HAL_UART_IRQHandler+0x37e>

          /* Last bytes received, so no need as the abort is immediate */
          (void)HAL_DMA_Abort(huart->hdmarx);
 8004c86:	687b      	ldr	r3, [r7, #4]
 8004c88:	6bdb      	ldr	r3, [r3, #60]	; 0x3c
 8004c8a:	4618      	mov	r0, r3
 8004c8c:	f7fd fbd7 	bl	800243e <HAL_DMA_Abort>
        }

        /* Initialize type of RxEvent that correspond to RxEvent callback execution;
        In this case, Rx Event type is Idle Event */
        huart->RxEventType = HAL_UART_RXEVENT_IDLE;
 8004c90:	687b      	ldr	r3, [r7, #4]
 8004c92:	2202      	movs	r2, #2
 8004c94:	635a      	str	r2, [r3, #52]	; 0x34
#if (USE_HAL_UART_REGISTER_CALLBACKS == 1)
        /*Call registered Rx Event callback*/
        huart->RxEventCallback(huart, (huart->RxXferSize - huart->RxXferCount));
#else
        /*Call legacy weak Rx Event callback*/
        HAL_UARTEx_RxEventCallback(huart, (huart->RxXferSize - huart->RxXferCount));
 8004c96:	687b      	ldr	r3, [r7, #4]
 8004c98:	8d9a      	ldrh	r2, [r3, #44]	; 0x2c
 8004c9a:	687b      	ldr	r3, [r7, #4]
 8004c9c:	8ddb      	ldrh	r3, [r3, #46]	; 0x2e
 8004c9e:	b29b      	uxth	r3, r3
 8004ca0:	1ad3      	subs	r3, r2, r3
 8004ca2:	b29b      	uxth	r3, r3
 8004ca4:	4619      	mov	r1, r3
 8004ca6:	6878      	ldr	r0, [r7, #4]
 8004ca8:	f000 f8bf 	bl	8004e2a <HAL_UARTEx_RxEventCallback>
#endif /* USE_HAL_UART_REGISTER_CALLBACKS */
      }
      return;
 8004cac:	e09c      	b.n	8004de8 <HAL_UART_IRQHandler+0x518>
 8004cae:	bf00      	nop
 8004cb0:	08004fe1 	.word	0x08004fe1
    else
    {
      /* DMA mode not enabled */
      /* Check received length : If all expected data are received, do nothing.
         Otherwise, if at least one data has already been received, IDLE event is to be notified to user */
      uint16_t nb_rx_data = huart->RxXferSize - huart->RxXferCount;
 8004cb4:	687b      	ldr	r3, [r7, #4]
 8004cb6:	8d9a      	ldrh	r2, [r3, #44]	; 0x2c
 8004cb8:	687b      	ldr	r3, [r7, #4]
 8004cba:	8ddb      	ldrh	r3, [r3, #46]	; 0x2e
 8004cbc:	b29b      	uxth	r3, r3
 8004cbe:	1ad3      	subs	r3, r2, r3
 8004cc0:	f8a7 30ce 	strh.w	r3, [r7, #206]	; 0xce
      if ((huart->RxXferCount > 0U)
 8004cc4:	687b      	ldr	r3, [r7, #4]
 8004cc6:	8ddb      	ldrh	r3, [r3, #46]	; 0x2e
 8004cc8:	b29b      	uxth	r3, r3
 8004cca:	2b00      	cmp	r3, #0
 8004ccc:	f000 808e 	beq.w	8004dec <HAL_UART_IRQHandler+0x51c>
          && (nb_rx_data > 0U))
 8004cd0:	f8b7 30ce 	ldrh.w	r3, [r7, #206]	; 0xce
 8004cd4:	2b00      	cmp	r3, #0
 8004cd6:	f000 8089 	beq.w	8004dec <HAL_UART_IRQHandler+0x51c>
      {
        /* Disable the UART Parity Error Interrupt and RXNE interrupts */
        ATOMIC_CLEAR_BIT(huart->Instance->CR1, (USART_CR1_RXNEIE | USART_CR1_PEIE));
 8004cda:	687b      	ldr	r3, [r7, #4]
 8004cdc:	681b      	ldr	r3, [r3, #0]
 8004cde:	330c      	adds	r3, #12
 8004ce0:	63bb      	str	r3, [r7, #56]	; 0x38
   __ASM volatile ("ldrex %0, %1" : "=r" (result) : "Q" (*addr) );
 8004ce2:	6bbb      	ldr	r3, [r7, #56]	; 0x38
 8004ce4:	e853 3f00 	ldrex	r3, [r3]
 8004ce8:	637b      	str	r3, [r7, #52]	; 0x34
   return(result);
 8004cea:	6b7b      	ldr	r3, [r7, #52]	; 0x34
 8004cec:	f423 7390 	bic.w	r3, r3, #288	; 0x120
 8004cf0:	f8c7 30c8 	str.w	r3, [r7, #200]	; 0xc8
 8004cf4:	687b      	ldr	r3, [r7, #4]
 8004cf6:	681b      	ldr	r3, [r3, #0]
 8004cf8:	330c      	adds	r3, #12
 8004cfa:	f8d7 20c8 	ldr.w	r2, [r7, #200]	; 0xc8
 8004cfe:	647a      	str	r2, [r7, #68]	; 0x44
 8004d00:	643b      	str	r3, [r7, #64]	; 0x40
   __ASM volatile ("strex %0, %2, %1" : "=&r" (result), "=Q" (*addr) : "r" (value) );
 8004d02:	6c39      	ldr	r1, [r7, #64]	; 0x40
 8004d04:	6c7a      	ldr	r2, [r7, #68]	; 0x44
 8004d06:	e841 2300 	strex	r3, r2, [r1]
 8004d0a:	63fb      	str	r3, [r7, #60]	; 0x3c
   return(result);
 8004d0c:	6bfb      	ldr	r3, [r7, #60]	; 0x3c
 8004d0e:	2b00      	cmp	r3, #0
 8004d10:	d1e3      	bne.n	8004cda <HAL_UART_IRQHandler+0x40a>

        /* Disable the UART Error Interrupt: (Frame error, noise error, overrun error) */
        ATOMIC_CLEAR_BIT(huart->Instance->CR3, USART_CR3_EIE);
 8004d12:	687b      	ldr	r3, [r7, #4]
 8004d14:	681b      	ldr	r3, [r3, #0]
 8004d16:	3314      	adds	r3, #20
 8004d18:	627b      	str	r3, [r7, #36]	; 0x24
   __ASM volatile ("ldrex %0, %1" : "=r" (result) : "Q" (*addr) );
 8004d1a:	6a7b      	ldr	r3, [r7, #36]	; 0x24
 8004d1c:	e853 3f00 	ldrex	r3, [r3]
 8004d20:	623b      	str	r3, [r7, #32]
   return(result);
 8004d22:	6a3b      	ldr	r3, [r7, #32]
 8004d24:	f023 0301 	bic.w	r3, r3, #1
 8004d28:	f8c7 30c4 	str.w	r3, [r7, #196]	; 0xc4
 8004d2c:	687b      	ldr	r3, [r7, #4]
 8004d2e:	681b      	ldr	r3, [r3, #0]
 8004d30:	3314      	adds	r3, #20
 8004d32:	f8d7 20c4 	ldr.w	r2, [r7, #196]	; 0xc4
 8004d36:	633a      	str	r2, [r7, #48]	; 0x30
 8004d38:	62fb      	str	r3, [r7, #44]	; 0x2c
   __ASM volatile ("strex %0, %2, %1" : "=&r" (result), "=Q" (*addr) : "r" (value) );
 8004d3a:	6af9      	ldr	r1, [r7, #44]	; 0x2c
 8004d3c:	6b3a      	ldr	r2, [r7, #48]	; 0x30
 8004d3e:	e841 2300 	strex	r3, r2, [r1]
 8004d42:	62bb      	str	r3, [r7, #40]	; 0x28
   return(result);
 8004d44:	6abb      	ldr	r3, [r7, #40]	; 0x28
 8004d46:	2b00      	cmp	r3, #0
 8004d48:	d1e3      	bne.n	8004d12 <HAL_UART_IRQHandler+0x442>

        /* Rx process is completed, restore huart->RxState to Ready */
        huart->RxState = HAL_UART_STATE_READY;
 8004d4a:	687b      	ldr	r3, [r7, #4]
 8004d4c:	2220      	movs	r2, #32
 8004d4e:	f883 2042 	strb.w	r2, [r3, #66]	; 0x42
        huart->ReceptionType = HAL_UART_RECEPTION_STANDARD;
 8004d52:	687b      	ldr	r3, [r7, #4]
 8004d54:	2200      	movs	r2, #0
 8004d56:	631a      	str	r2, [r3, #48]	; 0x30

        ATOMIC_CLEAR_BIT(huart->Instance->CR1, USART_CR1_IDLEIE);
 8004d58:	687b      	ldr	r3, [r7, #4]
 8004d5a:	681b      	ldr	r3, [r3, #0]
 8004d5c:	330c      	adds	r3, #12
 8004d5e:	613b      	str	r3, [r7, #16]
   __ASM volatile ("ldrex %0, %1" : "=r" (result) : "Q" (*addr) );
 8004d60:	693b      	ldr	r3, [r7, #16]
 8004d62:	e853 3f00 	ldrex	r3, [r3]
 8004d66:	60fb      	str	r3, [r7, #12]
   return(result);
 8004d68:	68fb      	ldr	r3, [r7, #12]
 8004d6a:	f023 0310 	bic.w	r3, r3, #16
 8004d6e:	f8c7 30c0 	str.w	r3, [r7, #192]	; 0xc0
 8004d72:	687b      	ldr	r3, [r7, #4]
 8004d74:	681b      	ldr	r3, [r3, #0]
 8004d76:	330c      	adds	r3, #12
 8004d78:	f8d7 20c0 	ldr.w	r2, [r7, #192]	; 0xc0
 8004d7c:	61fa      	str	r2, [r7, #28]
 8004d7e:	61bb      	str	r3, [r7, #24]
   __ASM volatile ("strex %0, %2, %1" : "=&r" (result), "=Q" (*addr) : "r" (value) );
 8004d80:	69b9      	ldr	r1, [r7, #24]
 8004d82:	69fa      	ldr	r2, [r7, #28]
 8004d84:	e841 2300 	strex	r3, r2, [r1]
 8004d88:	617b      	str	r3, [r7, #20]
   return(result);
 8004d8a:	697b      	ldr	r3, [r7, #20]
 8004d8c:	2b00      	cmp	r3, #0
 8004d8e:	d1e3      	bne.n	8004d58 <HAL_UART_IRQHandler+0x488>

        /* Initialize type of RxEvent that correspond to RxEvent callback execution;
           In this case, Rx Event type is Idle Event */
        huart->RxEventType = HAL_UART_RXEVENT_IDLE;
 8004d90:	687b      	ldr	r3, [r7, #4]
 8004d92:	2202      	movs	r2, #2
 8004d94:	635a      	str	r2, [r3, #52]	; 0x34
#if (USE_HAL_UART_REGISTER_CALLBACKS == 1)
        /*Call registered Rx complete callback*/
        huart->RxEventCallback(huart, nb_rx_data);
#else
        /*Call legacy weak Rx Event callback*/
        HAL_UARTEx_RxEventCallback(huart, nb_rx_data);
 8004d96:	f8b7 30ce 	ldrh.w	r3, [r7, #206]	; 0xce
 8004d9a:	4619      	mov	r1, r3
 8004d9c:	6878      	ldr	r0, [r7, #4]
 8004d9e:	f000 f844 	bl	8004e2a <HAL_UARTEx_RxEventCallback>
#endif /* USE_HAL_UART_REGISTER_CALLBACKS */
      }
      return;
 8004da2:	e023      	b.n	8004dec <HAL_UART_IRQHandler+0x51c>
    }
  }

  /* UART in mode Transmitter ------------------------------------------------*/
  if (((isrflags & USART_SR_TXE) != RESET) && ((cr1its & USART_CR1_TXEIE) != RESET))
 8004da4:	f8d7 30e4 	ldr.w	r3, [r7, #228]	; 0xe4
 8004da8:	f003 0380 	and.w	r3, r3, #128	; 0x80
 8004dac:	2b00      	cmp	r3, #0
 8004dae:	d009      	beq.n	8004dc4 <HAL_UART_IRQHandler+0x4f4>
 8004db0:	f8d7 30e0 	ldr.w	r3, [r7, #224]	; 0xe0
 8004db4:	f003 0380 	and.w	r3, r3, #128	; 0x80
 8004db8:	2b00      	cmp	r3, #0
 8004dba:	d003      	beq.n	8004dc4 <HAL_UART_IRQHandler+0x4f4>
  {
    UART_Transmit_IT(huart);
 8004dbc:	6878      	ldr	r0, [r7, #4]
 8004dbe:	f000 f923 	bl	8005008 <UART_Transmit_IT>
    return;
 8004dc2:	e014      	b.n	8004dee <HAL_UART_IRQHandler+0x51e>
  }

  /* UART in mode Transmitter end --------------------------------------------*/
  if (((isrflags & USART_SR_TC) != RESET) && ((cr1its & USART_CR1_TCIE) != RESET))
 8004dc4:	f8d7 30e4 	ldr.w	r3, [r7, #228]	; 0xe4
 8004dc8:	f003 0340 	and.w	r3, r3, #64	; 0x40
 8004dcc:	2b00      	cmp	r3, #0
 8004dce:	d00e      	beq.n	8004dee <HAL_UART_IRQHandler+0x51e>
 8004dd0:	f8d7 30e0 	ldr.w	r3, [r7, #224]	; 0xe0
 8004dd4:	f003 0340 	and.w	r3, r3, #64	; 0x40
 8004dd8:	2b00      	cmp	r3, #0
 8004dda:	d008      	beq.n	8004dee <HAL_UART_IRQHandler+0x51e>
  {
    UART_EndTransmit_IT(huart);
 8004ddc:	6878      	ldr	r0, [r7, #4]
 8004dde:	f000 f962 	bl	80050a6 <UART_EndTransmit_IT>
    return;
 8004de2:	e004      	b.n	8004dee <HAL_UART_IRQHandler+0x51e>
    return;
 8004de4:	bf00      	nop
 8004de6:	e002      	b.n	8004dee <HAL_UART_IRQHandler+0x51e>
      return;
 8004de8:	bf00      	nop
 8004dea:	e000      	b.n	8004dee <HAL_UART_IRQHandler+0x51e>
      return;
 8004dec:	bf00      	nop
  }
}
 8004dee:	37e8      	adds	r7, #232	; 0xe8
 8004df0:	46bd      	mov	sp, r7
 8004df2:	bd80      	pop	{r7, pc}

08004df4 <HAL_UART_TxCpltCallback>:
  * @param  huart  Pointer to a UART_HandleTypeDef structure that contains
  *                the configuration information for the specified UART module.
  * @retval None
  */
__weak void HAL_UART_TxCpltCallback(UART_HandleTypeDef *huart)
{
 8004df4:	b480      	push	{r7}
 8004df6:	b083      	sub	sp, #12
 8004df8:	af00      	add	r7, sp, #0
 8004dfa:	6078      	str	r0, [r7, #4]
  /* Prevent unused argument(s) compilation warning */
  UNUSED(huart);
  /* NOTE: This function should not be modified, when the callback is needed,
           the HAL_UART_TxCpltCallback could be implemented in the user file
   */
}
 8004dfc:	bf00      	nop
 8004dfe:	370c      	adds	r7, #12
 8004e00:	46bd      	mov	sp, r7
 8004e02:	bc80      	pop	{r7}
 8004e04:	4770      	bx	lr

08004e06 <HAL_UART_RxCpltCallback>:
  * @param  huart  Pointer to a UART_HandleTypeDef structure that contains
  *                the configuration information for the specified UART module.
  * @retval None
  */
__weak void HAL_UART_RxCpltCallback(UART_HandleTypeDef *huart)
{
 8004e06:	b480      	push	{r7}
 8004e08:	b083      	sub	sp, #12
 8004e0a:	af00      	add	r7, sp, #0
 8004e0c:	6078      	str	r0, [r7, #4]
  /* Prevent unused argument(s) compilation warning */
  UNUSED(huart);
  /* NOTE: This function should not be modified, when the callback is needed,
           the HAL_UART_RxCpltCallback could be implemented in the user file
   */
}
 8004e0e:	bf00      	nop
 8004e10:	370c      	adds	r7, #12
 8004e12:	46bd      	mov	sp, r7
 8004e14:	bc80      	pop	{r7}
 8004e16:	4770      	bx	lr

08004e18 <HAL_UART_ErrorCallback>:
  * @param  huart  Pointer to a UART_HandleTypeDef structure that contains
  *                the configuration information for the specified UART module.
  * @retval None
  */
__weak void HAL_UART_ErrorCallback(UART_HandleTypeDef *huart)
{
 8004e18:	b480      	push	{r7}
 8004e1a:	b083      	sub	sp, #12
 8004e1c:	af00      	add	r7, sp, #0
 8004e1e:	6078      	str	r0, [r7, #4]
  /* Prevent unused argument(s) compilation warning */
  UNUSED(huart);
  /* NOTE: This function should not be modified, when the callback is needed,
           the HAL_UART_ErrorCallback could be implemented in the user file
   */
}
 8004e20:	bf00      	nop
 8004e22:	370c      	adds	r7, #12
 8004e24:	46bd      	mov	sp, r7
 8004e26:	bc80      	pop	{r7}
 8004e28:	4770      	bx	lr

08004e2a <HAL_UARTEx_RxEventCallback>:
  * @param  Size  Number of data available in application reception buffer (indicates a position in
  *               reception buffer until which, data are available)
  * @retval None
  */
__weak void HAL_UARTEx_RxEventCallback(UART_HandleTypeDef *huart, uint16_t Size)
{
 8004e2a:	b480      	push	{r7}
 8004e2c:	b083      	sub	sp, #12
 8004e2e:	af00      	add	r7, sp, #0
 8004e30:	6078      	str	r0, [r7, #4]
 8004e32:	460b      	mov	r3, r1
 8004e34:	807b      	strh	r3, [r7, #2]
  UNUSED(Size);

  /* NOTE : This function should not be modified, when the callback is needed,
            the HAL_UARTEx_RxEventCallback can be implemented in the user file.
   */
}
 8004e36:	bf00      	nop
 8004e38:	370c      	adds	r7, #12
 8004e3a:	46bd      	mov	sp, r7
 8004e3c:	bc80      	pop	{r7}
 8004e3e:	4770      	bx	lr

08004e40 <UART_WaitOnFlagUntilTimeout>:
  * @param  Timeout Timeout duration
  * @retval HAL status
  */
static HAL_StatusTypeDef UART_WaitOnFlagUntilTimeout(UART_HandleTypeDef *huart, uint32_t Flag, FlagStatus Status,
                                                     uint32_t Tickstart, uint32_t Timeout)
{
 8004e40:	b580      	push	{r7, lr}
 8004e42:	b090      	sub	sp, #64	; 0x40
 8004e44:	af00      	add	r7, sp, #0
 8004e46:	60f8      	str	r0, [r7, #12]
 8004e48:	60b9      	str	r1, [r7, #8]
 8004e4a:	603b      	str	r3, [r7, #0]
 8004e4c:	4613      	mov	r3, r2
 8004e4e:	71fb      	strb	r3, [r7, #7]
  /* Wait until flag is set */
  while ((__HAL_UART_GET_FLAG(huart, Flag) ? SET : RESET) == Status)
 8004e50:	e050      	b.n	8004ef4 <UART_WaitOnFlagUntilTimeout+0xb4>
  {
    /* Check for the Timeout */
    if (Timeout != HAL_MAX_DELAY)
 8004e52:	6cbb      	ldr	r3, [r7, #72]	; 0x48
 8004e54:	f1b3 3fff 	cmp.w	r3, #4294967295
 8004e58:	d04c      	beq.n	8004ef4 <UART_WaitOnFlagUntilTimeout+0xb4>
    {
      if ((Timeout == 0U) || ((HAL_GetTick() - Tickstart) > Timeout))
 8004e5a:	6cbb      	ldr	r3, [r7, #72]	; 0x48
 8004e5c:	2b00      	cmp	r3, #0
 8004e5e:	d007      	beq.n	8004e70 <UART_WaitOnFlagUntilTimeout+0x30>
 8004e60:	f7fd f982 	bl	8002168 <HAL_GetTick>
 8004e64:	4602      	mov	r2, r0
 8004e66:	683b      	ldr	r3, [r7, #0]
 8004e68:	1ad3      	subs	r3, r2, r3
 8004e6a:	6cba      	ldr	r2, [r7, #72]	; 0x48
 8004e6c:	429a      	cmp	r2, r3
 8004e6e:	d241      	bcs.n	8004ef4 <UART_WaitOnFlagUntilTimeout+0xb4>
      {
        /* Disable TXE, RXNE, PE and ERR (Frame error, noise error, overrun error) interrupts for the interrupt process */
        ATOMIC_CLEAR_BIT(huart->Instance->CR1, (USART_CR1_RXNEIE | USART_CR1_PEIE | USART_CR1_TXEIE));
 8004e70:	68fb      	ldr	r3, [r7, #12]
 8004e72:	681b      	ldr	r3, [r3, #0]
 8004e74:	330c      	adds	r3, #12
 8004e76:	62bb      	str	r3, [r7, #40]	; 0x28
   __ASM volatile ("ldrex %0, %1" : "=r" (result) : "Q" (*addr) );
 8004e78:	6abb      	ldr	r3, [r7, #40]	; 0x28
 8004e7a:	e853 3f00 	ldrex	r3, [r3]
 8004e7e:	627b      	str	r3, [r7, #36]	; 0x24
   return(result);
 8004e80:	6a7b      	ldr	r3, [r7, #36]	; 0x24
 8004e82:	f423 73d0 	bic.w	r3, r3, #416	; 0x1a0
 8004e86:	63fb      	str	r3, [r7, #60]	; 0x3c
 8004e88:	68fb      	ldr	r3, [r7, #12]
 8004e8a:	681b      	ldr	r3, [r3, #0]
 8004e8c:	330c      	adds	r3, #12
 8004e8e:	6bfa      	ldr	r2, [r7, #60]	; 0x3c
 8004e90:	637a      	str	r2, [r7, #52]	; 0x34
 8004e92:	633b      	str	r3, [r7, #48]	; 0x30
   __ASM volatile ("strex %0, %2, %1" : "=&r" (result), "=Q" (*addr) : "r" (value) );
 8004e94:	6b39      	ldr	r1, [r7, #48]	; 0x30
 8004e96:	6b7a      	ldr	r2, [r7, #52]	; 0x34
 8004e98:	e841 2300 	strex	r3, r2, [r1]
 8004e9c:	62fb      	str	r3, [r7, #44]	; 0x2c
   return(result);
 8004e9e:	6afb      	ldr	r3, [r7, #44]	; 0x2c
 8004ea0:	2b00      	cmp	r3, #0
 8004ea2:	d1e5      	bne.n	8004e70 <UART_WaitOnFlagUntilTimeout+0x30>
        ATOMIC_CLEAR_BIT(huart->Instance->CR3, USART_CR3_EIE);
 8004ea4:	68fb      	ldr	r3, [r7, #12]
 8004ea6:	681b      	ldr	r3, [r3, #0]
 8004ea8:	3314      	adds	r3, #20
 8004eaa:	617b      	str	r3, [r7, #20]
   __ASM volatile ("ldrex %0, %1" : "=r" (result) : "Q" (*addr) );
 8004eac:	697b      	ldr	r3, [r7, #20]
 8004eae:	e853 3f00 	ldrex	r3, [r3]
 8004eb2:	613b      	str	r3, [r7, #16]
   return(result);
 8004eb4:	693b      	ldr	r3, [r7, #16]
 8004eb6:	f023 0301 	bic.w	r3, r3, #1
 8004eba:	63bb      	str	r3, [r7, #56]	; 0x38
 8004ebc:	68fb      	ldr	r3, [r7, #12]
 8004ebe:	681b      	ldr	r3, [r3, #0]
 8004ec0:	3314      	adds	r3, #20
 8004ec2:	6bba      	ldr	r2, [r7, #56]	; 0x38
 8004ec4:	623a      	str	r2, [r7, #32]
 8004ec6:	61fb      	str	r3, [r7, #28]
   __ASM volatile ("strex %0, %2, %1" : "=&r" (result), "=Q" (*addr) : "r" (value) );
 8004ec8:	69f9      	ldr	r1, [r7, #28]
 8004eca:	6a3a      	ldr	r2, [r7, #32]
 8004ecc:	e841 2300 	strex	r3, r2, [r1]
 8004ed0:	61bb      	str	r3, [r7, #24]
   return(result);
 8004ed2:	69bb      	ldr	r3, [r7, #24]
 8004ed4:	2b00      	cmp	r3, #0
 8004ed6:	d1e5      	bne.n	8004ea4 <UART_WaitOnFlagUntilTimeout+0x64>

        huart->gState  = HAL_UART_STATE_READY;
 8004ed8:	68fb      	ldr	r3, [r7, #12]
 8004eda:	2220      	movs	r2, #32
 8004edc:	f883 2041 	strb.w	r2, [r3, #65]	; 0x41
        huart->RxState = HAL_UART_STATE_READY;
 8004ee0:	68fb      	ldr	r3, [r7, #12]
 8004ee2:	2220      	movs	r2, #32
 8004ee4:	f883 2042 	strb.w	r2, [r3, #66]	; 0x42

        /* Process Unlocked */
        __HAL_UNLOCK(huart);
 8004ee8:	68fb      	ldr	r3, [r7, #12]
 8004eea:	2200      	movs	r2, #0
 8004eec:	f883 2040 	strb.w	r2, [r3, #64]	; 0x40

        return HAL_TIMEOUT;
 8004ef0:	2303      	movs	r3, #3
 8004ef2:	e00f      	b.n	8004f14 <UART_WaitOnFlagUntilTimeout+0xd4>
  while ((__HAL_UART_GET_FLAG(huart, Flag) ? SET : RESET) == Status)
 8004ef4:	68fb      	ldr	r3, [r7, #12]
 8004ef6:	681b      	ldr	r3, [r3, #0]
 8004ef8:	681a      	ldr	r2, [r3, #0]
 8004efa:	68bb      	ldr	r3, [r7, #8]
 8004efc:	4013      	ands	r3, r2
 8004efe:	68ba      	ldr	r2, [r7, #8]
 8004f00:	429a      	cmp	r2, r3
 8004f02:	bf0c      	ite	eq
 8004f04:	2301      	moveq	r3, #1
 8004f06:	2300      	movne	r3, #0
 8004f08:	b2db      	uxtb	r3, r3
 8004f0a:	461a      	mov	r2, r3
 8004f0c:	79fb      	ldrb	r3, [r7, #7]
 8004f0e:	429a      	cmp	r2, r3
 8004f10:	d09f      	beq.n	8004e52 <UART_WaitOnFlagUntilTimeout+0x12>
      }
    }
  }
  return HAL_OK;
 8004f12:	2300      	movs	r3, #0
}
 8004f14:	4618      	mov	r0, r3
 8004f16:	3740      	adds	r7, #64	; 0x40
 8004f18:	46bd      	mov	sp, r7
 8004f1a:	bd80      	pop	{r7, pc}

08004f1c <UART_EndRxTransfer>:
  * @brief  End ongoing Rx transfer on UART peripheral (following error detection or Reception completion).
  * @param  huart UART handle.
  * @retval None
  */
static void UART_EndRxTransfer(UART_HandleTypeDef *huart)
{
 8004f1c:	b480      	push	{r7}
 8004f1e:	b095      	sub	sp, #84	; 0x54
 8004f20:	af00      	add	r7, sp, #0
 8004f22:	6078      	str	r0, [r7, #4]
  /* Disable RXNE, PE and ERR (Frame error, noise error, overrun error) interrupts */
  ATOMIC_CLEAR_BIT(huart->Instance->CR1, (USART_CR1_RXNEIE | USART_CR1_PEIE));
 8004f24:	687b      	ldr	r3, [r7, #4]
 8004f26:	681b      	ldr	r3, [r3, #0]
 8004f28:	330c      	adds	r3, #12
 8004f2a:	637b      	str	r3, [r7, #52]	; 0x34
   __ASM volatile ("ldrex %0, %1" : "=r" (result) : "Q" (*addr) );
 8004f2c:	6b7b      	ldr	r3, [r7, #52]	; 0x34
 8004f2e:	e853 3f00 	ldrex	r3, [r3]
 8004f32:	633b      	str	r3, [r7, #48]	; 0x30
   return(result);
 8004f34:	6b3b      	ldr	r3, [r7, #48]	; 0x30
 8004f36:	f423 7390 	bic.w	r3, r3, #288	; 0x120
 8004f3a:	64fb      	str	r3, [r7, #76]	; 0x4c
 8004f3c:	687b      	ldr	r3, [r7, #4]
 8004f3e:	681b      	ldr	r3, [r3, #0]
 8004f40:	330c      	adds	r3, #12
 8004f42:	6cfa      	ldr	r2, [r7, #76]	; 0x4c
 8004f44:	643a      	str	r2, [r7, #64]	; 0x40
 8004f46:	63fb      	str	r3, [r7, #60]	; 0x3c
   __ASM volatile ("strex %0, %2, %1" : "=&r" (result), "=Q" (*addr) : "r" (value) );
 8004f48:	6bf9      	ldr	r1, [r7, #60]	; 0x3c
 8004f4a:	6c3a      	ldr	r2, [r7, #64]	; 0x40
 8004f4c:	e841 2300 	strex	r3, r2, [r1]
 8004f50:	63bb      	str	r3, [r7, #56]	; 0x38
   return(result);
 8004f52:	6bbb      	ldr	r3, [r7, #56]	; 0x38
 8004f54:	2b00      	cmp	r3, #0
 8004f56:	d1e5      	bne.n	8004f24 <UART_EndRxTransfer+0x8>
  ATOMIC_CLEAR_BIT(huart->Instance->CR3, USART_CR3_EIE);
 8004f58:	687b      	ldr	r3, [r7, #4]
 8004f5a:	681b      	ldr	r3, [r3, #0]
 8004f5c:	3314      	adds	r3, #20
 8004f5e:	623b      	str	r3, [r7, #32]
   __ASM volatile ("ldrex %0, %1" : "=r" (result) : "Q" (*addr) );
 8004f60:	6a3b      	ldr	r3, [r7, #32]
 8004f62:	e853 3f00 	ldrex	r3, [r3]
 8004f66:	61fb      	str	r3, [r7, #28]
   return(result);
 8004f68:	69fb      	ldr	r3, [r7, #28]
 8004f6a:	f023 0301 	bic.w	r3, r3, #1
 8004f6e:	64bb      	str	r3, [r7, #72]	; 0x48
 8004f70:	687b      	ldr	r3, [r7, #4]
 8004f72:	681b      	ldr	r3, [r3, #0]
 8004f74:	3314      	adds	r3, #20
 8004f76:	6cba      	ldr	r2, [r7, #72]	; 0x48
 8004f78:	62fa      	str	r2, [r7, #44]	; 0x2c
 8004f7a:	62bb      	str	r3, [r7, #40]	; 0x28
   __ASM volatile ("strex %0, %2, %1" : "=&r" (result), "=Q" (*addr) : "r" (value) );
 8004f7c:	6ab9      	ldr	r1, [r7, #40]	; 0x28
 8004f7e:	6afa      	ldr	r2, [r7, #44]	; 0x2c
 8004f80:	e841 2300 	strex	r3, r2, [r1]
 8004f84:	627b      	str	r3, [r7, #36]	; 0x24
   return(result);
 8004f86:	6a7b      	ldr	r3, [r7, #36]	; 0x24
 8004f88:	2b00      	cmp	r3, #0
 8004f8a:	d1e5      	bne.n	8004f58 <UART_EndRxTransfer+0x3c>

  /* In case of reception waiting for IDLE event, disable also the IDLE IE interrupt source */
  if (huart->ReceptionType == HAL_UART_RECEPTION_TOIDLE)
 8004f8c:	687b      	ldr	r3, [r7, #4]
 8004f8e:	6b1b      	ldr	r3, [r3, #48]	; 0x30
 8004f90:	2b01      	cmp	r3, #1
 8004f92:	d119      	bne.n	8004fc8 <UART_EndRxTransfer+0xac>
  {
    ATOMIC_CLEAR_BIT(huart->Instance->CR1, USART_CR1_IDLEIE);
 8004f94:	687b      	ldr	r3, [r7, #4]
 8004f96:	681b      	ldr	r3, [r3, #0]
 8004f98:	330c      	adds	r3, #12
 8004f9a:	60fb      	str	r3, [r7, #12]
   __ASM volatile ("ldrex %0, %1" : "=r" (result) : "Q" (*addr) );
 8004f9c:	68fb      	ldr	r3, [r7, #12]
 8004f9e:	e853 3f00 	ldrex	r3, [r3]
 8004fa2:	60bb      	str	r3, [r7, #8]
   return(result);
 8004fa4:	68bb      	ldr	r3, [r7, #8]
 8004fa6:	f023 0310 	bic.w	r3, r3, #16
 8004faa:	647b      	str	r3, [r7, #68]	; 0x44
 8004fac:	687b      	ldr	r3, [r7, #4]
 8004fae:	681b      	ldr	r3, [r3, #0]
 8004fb0:	330c      	adds	r3, #12
 8004fb2:	6c7a      	ldr	r2, [r7, #68]	; 0x44
 8004fb4:	61ba      	str	r2, [r7, #24]
 8004fb6:	617b      	str	r3, [r7, #20]
   __ASM volatile ("strex %0, %2, %1" : "=&r" (result), "=Q" (*addr) : "r" (value) );
 8004fb8:	6979      	ldr	r1, [r7, #20]
 8004fba:	69ba      	ldr	r2, [r7, #24]
 8004fbc:	e841 2300 	strex	r3, r2, [r1]
 8004fc0:	613b      	str	r3, [r7, #16]
   return(result);
 8004fc2:	693b      	ldr	r3, [r7, #16]
 8004fc4:	2b00      	cmp	r3, #0
 8004fc6:	d1e5      	bne.n	8004f94 <UART_EndRxTransfer+0x78>
  }

  /* At end of Rx process, restore huart->RxState to Ready */
  huart->RxState = HAL_UART_STATE_READY;
 8004fc8:	687b      	ldr	r3, [r7, #4]
 8004fca:	2220      	movs	r2, #32
 8004fcc:	f883 2042 	strb.w	r2, [r3, #66]	; 0x42
  huart->ReceptionType = HAL_UART_RECEPTION_STANDARD;
 8004fd0:	687b      	ldr	r3, [r7, #4]
 8004fd2:	2200      	movs	r2, #0
 8004fd4:	631a      	str	r2, [r3, #48]	; 0x30
}
 8004fd6:	bf00      	nop
 8004fd8:	3754      	adds	r7, #84	; 0x54
 8004fda:	46bd      	mov	sp, r7
 8004fdc:	bc80      	pop	{r7}
 8004fde:	4770      	bx	lr

08004fe0 <UART_DMAAbortOnError>:
  * @param  hdma  Pointer to a DMA_HandleTypeDef structure that contains
  *               the configuration information for the specified DMA module.
  * @retval None
  */
static void UART_DMAAbortOnError(DMA_HandleTypeDef *hdma)
{
 8004fe0:	b580      	push	{r7, lr}
 8004fe2:	b084      	sub	sp, #16
 8004fe4:	af00      	add	r7, sp, #0
 8004fe6:	6078      	str	r0, [r7, #4]
  UART_HandleTypeDef *huart = (UART_HandleTypeDef *)((DMA_HandleTypeDef *)hdma)->Parent;
 8004fe8:	687b      	ldr	r3, [r7, #4]
 8004fea:	6a5b      	ldr	r3, [r3, #36]	; 0x24
 8004fec:	60fb      	str	r3, [r7, #12]
  huart->RxXferCount = 0x00U;
 8004fee:	68fb      	ldr	r3, [r7, #12]
 8004ff0:	2200      	movs	r2, #0
 8004ff2:	85da      	strh	r2, [r3, #46]	; 0x2e
  huart->TxXferCount = 0x00U;
 8004ff4:	68fb      	ldr	r3, [r7, #12]
 8004ff6:	2200      	movs	r2, #0
 8004ff8:	84da      	strh	r2, [r3, #38]	; 0x26
#if (USE_HAL_UART_REGISTER_CALLBACKS == 1)
  /*Call registered error callback*/
  huart->ErrorCallback(huart);
#else
  /*Call legacy weak error callback*/
  HAL_UART_ErrorCallback(huart);
 8004ffa:	68f8      	ldr	r0, [r7, #12]
 8004ffc:	f7ff ff0c 	bl	8004e18 <HAL_UART_ErrorCallback>
#endif /* USE_HAL_UART_REGISTER_CALLBACKS */
}
 8005000:	bf00      	nop
 8005002:	3710      	adds	r7, #16
 8005004:	46bd      	mov	sp, r7
 8005006:	bd80      	pop	{r7, pc}

08005008 <UART_Transmit_IT>:
  * @param  huart  Pointer to a UART_HandleTypeDef structure that contains
  *                the configuration information for the specified UART module.
  * @retval HAL status
  */
static HAL_StatusTypeDef UART_Transmit_IT(UART_HandleTypeDef *huart)
{
 8005008:	b480      	push	{r7}
 800500a:	b085      	sub	sp, #20
 800500c:	af00      	add	r7, sp, #0
 800500e:	6078      	str	r0, [r7, #4]
  const uint16_t *tmp;

  /* Check that a Tx process is ongoing */
  if (huart->gState == HAL_UART_STATE_BUSY_TX)
 8005010:	687b      	ldr	r3, [r7, #4]
 8005012:	f893 3041 	ldrb.w	r3, [r3, #65]	; 0x41
 8005016:	b2db      	uxtb	r3, r3
 8005018:	2b21      	cmp	r3, #33	; 0x21
 800501a:	d13e      	bne.n	800509a <UART_Transmit_IT+0x92>
  {
    if ((huart->Init.WordLength == UART_WORDLENGTH_9B) && (huart->Init.Parity == UART_PARITY_NONE))
 800501c:	687b      	ldr	r3, [r7, #4]
 800501e:	689b      	ldr	r3, [r3, #8]
 8005020:	f5b3 5f80 	cmp.w	r3, #4096	; 0x1000
 8005024:	d114      	bne.n	8005050 <UART_Transmit_IT+0x48>
 8005026:	687b      	ldr	r3, [r7, #4]
 8005028:	691b      	ldr	r3, [r3, #16]
 800502a:	2b00      	cmp	r3, #0
 800502c:	d110      	bne.n	8005050 <UART_Transmit_IT+0x48>
    {
      tmp = (const uint16_t *) huart->pTxBuffPtr;
 800502e:	687b      	ldr	r3, [r7, #4]
 8005030:	6a1b      	ldr	r3, [r3, #32]
 8005032:	60fb      	str	r3, [r7, #12]
      huart->Instance->DR = (uint16_t)(*tmp & (uint16_t)0x01FF);
 8005034:	68fb      	ldr	r3, [r7, #12]
 8005036:	881b      	ldrh	r3, [r3, #0]
 8005038:	461a      	mov	r2, r3
 800503a:	687b      	ldr	r3, [r7, #4]
 800503c:	681b      	ldr	r3, [r3, #0]
 800503e:	f3c2 0208 	ubfx	r2, r2, #0, #9
 8005042:	605a      	str	r2, [r3, #4]
      huart->pTxBuffPtr += 2U;
 8005044:	687b      	ldr	r3, [r7, #4]
 8005046:	6a1b      	ldr	r3, [r3, #32]
 8005048:	1c9a      	adds	r2, r3, #2
 800504a:	687b      	ldr	r3, [r7, #4]
 800504c:	621a      	str	r2, [r3, #32]
 800504e:	e008      	b.n	8005062 <UART_Transmit_IT+0x5a>
    }
    else
    {
      huart->Instance->DR = (uint8_t)(*huart->pTxBuffPtr++ & (uint8_t)0x00FF);
 8005050:	687b      	ldr	r3, [r7, #4]
 8005052:	6a1b      	ldr	r3, [r3, #32]
 8005054:	1c59      	adds	r1, r3, #1
 8005056:	687a      	ldr	r2, [r7, #4]
 8005058:	6211      	str	r1, [r2, #32]
 800505a:	781a      	ldrb	r2, [r3, #0]
 800505c:	687b      	ldr	r3, [r7, #4]
 800505e:	681b      	ldr	r3, [r3, #0]
 8005060:	605a      	str	r2, [r3, #4]
    }

    if (--huart->TxXferCount == 0U)
 8005062:	687b      	ldr	r3, [r7, #4]
 8005064:	8cdb      	ldrh	r3, [r3, #38]	; 0x26
 8005066:	b29b      	uxth	r3, r3
 8005068:	3b01      	subs	r3, #1
 800506a:	b29b      	uxth	r3, r3
 800506c:	687a      	ldr	r2, [r7, #4]
 800506e:	4619      	mov	r1, r3
 8005070:	84d1      	strh	r1, [r2, #38]	; 0x26
 8005072:	2b00      	cmp	r3, #0
 8005074:	d10f      	bne.n	8005096 <UART_Transmit_IT+0x8e>
    {
      /* Disable the UART Transmit Data Register Empty Interrupt */
      __HAL_UART_DISABLE_IT(huart, UART_IT_TXE);
 8005076:	687b      	ldr	r3, [r7, #4]
 8005078:	681b      	ldr	r3, [r3, #0]
 800507a:	68da      	ldr	r2, [r3, #12]
 800507c:	687b      	ldr	r3, [r7, #4]
 800507e:	681b      	ldr	r3, [r3, #0]
 8005080:	f022 0280 	bic.w	r2, r2, #128	; 0x80
 8005084:	60da      	str	r2, [r3, #12]

      /* Enable the UART Transmit Complete Interrupt */
      __HAL_UART_ENABLE_IT(huart, UART_IT_TC);
 8005086:	687b      	ldr	r3, [r7, #4]
 8005088:	681b      	ldr	r3, [r3, #0]
 800508a:	68da      	ldr	r2, [r3, #12]
 800508c:	687b      	ldr	r3, [r7, #4]
 800508e:	681b      	ldr	r3, [r3, #0]
 8005090:	f042 0240 	orr.w	r2, r2, #64	; 0x40
 8005094:	60da      	str	r2, [r3, #12]
    }
    return HAL_OK;
 8005096:	2300      	movs	r3, #0
 8005098:	e000      	b.n	800509c <UART_Transmit_IT+0x94>
  }
  else
  {
    return HAL_BUSY;
 800509a:	2302      	movs	r3, #2
  }
}
 800509c:	4618      	mov	r0, r3
 800509e:	3714      	adds	r7, #20
 80050a0:	46bd      	mov	sp, r7
 80050a2:	bc80      	pop	{r7}
 80050a4:	4770      	bx	lr

080050a6 <UART_EndTransmit_IT>:
  * @param  huart  Pointer to a UART_HandleTypeDef structure that contains
  *                the configuration information for the specified UART module.
  * @retval HAL status
  */
static HAL_StatusTypeDef UART_EndTransmit_IT(UART_HandleTypeDef *huart)
{
 80050a6:	b580      	push	{r7, lr}
 80050a8:	b082      	sub	sp, #8
 80050aa:	af00      	add	r7, sp, #0
 80050ac:	6078      	str	r0, [r7, #4]
  /* Disable the UART Transmit Complete Interrupt */
  __HAL_UART_DISABLE_IT(huart, UART_IT_TC);
 80050ae:	687b      	ldr	r3, [r7, #4]
 80050b0:	681b      	ldr	r3, [r3, #0]
 80050b2:	68da      	ldr	r2, [r3, #12]
 80050b4:	687b      	ldr	r3, [r7, #4]
 80050b6:	681b      	ldr	r3, [r3, #0]
 80050b8:	f022 0240 	bic.w	r2, r2, #64	; 0x40
 80050bc:	60da      	str	r2, [r3, #12]

  /* Tx process is ended, restore huart->gState to Ready */
  huart->gState = HAL_UART_STATE_READY;
 80050be:	687b      	ldr	r3, [r7, #4]
 80050c0:	2220      	movs	r2, #32
 80050c2:	f883 2041 	strb.w	r2, [r3, #65]	; 0x41
#if (USE_HAL_UART_REGISTER_CALLBACKS == 1)
  /*Call registered Tx complete callback*/
  huart->TxCpltCallback(huart);
#else
  /*Call legacy weak Tx complete callback*/
  HAL_UART_TxCpltCallback(huart);
 80050c6:	6878      	ldr	r0, [r7, #4]
 80050c8:	f7ff fe94 	bl	8004df4 <HAL_UART_TxCpltCallback>
#endif /* USE_HAL_UART_REGISTER_CALLBACKS */

  return HAL_OK;
 80050cc:	2300      	movs	r3, #0
}
 80050ce:	4618      	mov	r0, r3
 80050d0:	3708      	adds	r7, #8
 80050d2:	46bd      	mov	sp, r7
 80050d4:	bd80      	pop	{r7, pc}

080050d6 <UART_Receive_IT>:
  * @param  huart  Pointer to a UART_HandleTypeDef structure that contains
  *                the configuration information for the specified UART module.
  * @retval HAL status
  */
static HAL_StatusTypeDef UART_Receive_IT(UART_HandleTypeDef *huart)
{
 80050d6:	b580      	push	{r7, lr}
 80050d8:	b08c      	sub	sp, #48	; 0x30
 80050da:	af00      	add	r7, sp, #0
 80050dc:	6078      	str	r0, [r7, #4]
  uint8_t  *pdata8bits;
  uint16_t *pdata16bits;

  /* Check that a Rx process is ongoing */
  if (huart->RxState == HAL_UART_STATE_BUSY_RX)
 80050de:	687b      	ldr	r3, [r7, #4]
 80050e0:	f893 3042 	ldrb.w	r3, [r3, #66]	; 0x42
 80050e4:	b2db      	uxtb	r3, r3
 80050e6:	2b22      	cmp	r3, #34	; 0x22
 80050e8:	f040 80ae 	bne.w	8005248 <UART_Receive_IT+0x172>
  {
    if ((huart->Init.WordLength == UART_WORDLENGTH_9B) && (huart->Init.Parity == UART_PARITY_NONE))
 80050ec:	687b      	ldr	r3, [r7, #4]
 80050ee:	689b      	ldr	r3, [r3, #8]
 80050f0:	f5b3 5f80 	cmp.w	r3, #4096	; 0x1000
 80050f4:	d117      	bne.n	8005126 <UART_Receive_IT+0x50>
 80050f6:	687b      	ldr	r3, [r7, #4]
 80050f8:	691b      	ldr	r3, [r3, #16]
 80050fa:	2b00      	cmp	r3, #0
 80050fc:	d113      	bne.n	8005126 <UART_Receive_IT+0x50>
    {
      pdata8bits  = NULL;
 80050fe:	2300      	movs	r3, #0
 8005100:	62fb      	str	r3, [r7, #44]	; 0x2c
      pdata16bits = (uint16_t *) huart->pRxBuffPtr;
 8005102:	687b      	ldr	r3, [r7, #4]
 8005104:	6a9b      	ldr	r3, [r3, #40]	; 0x28
 8005106:	62bb      	str	r3, [r7, #40]	; 0x28
      *pdata16bits = (uint16_t)(huart->Instance->DR & (uint16_t)0x01FF);
 8005108:	687b      	ldr	r3, [r7, #4]
 800510a:	681b      	ldr	r3, [r3, #0]
 800510c:	685b      	ldr	r3, [r3, #4]
 800510e:	b29b      	uxth	r3, r3
 8005110:	f3c3 0308 	ubfx	r3, r3, #0, #9
 8005114:	b29a      	uxth	r2, r3
 8005116:	6abb      	ldr	r3, [r7, #40]	; 0x28
 8005118:	801a      	strh	r2, [r3, #0]
      huart->pRxBuffPtr += 2U;
 800511a:	687b      	ldr	r3, [r7, #4]
 800511c:	6a9b      	ldr	r3, [r3, #40]	; 0x28
 800511e:	1c9a      	adds	r2, r3, #2
 8005120:	687b      	ldr	r3, [r7, #4]
 8005122:	629a      	str	r2, [r3, #40]	; 0x28
 8005124:	e026      	b.n	8005174 <UART_Receive_IT+0x9e>
    }
    else
    {
      pdata8bits = (uint8_t *) huart->pRxBuffPtr;
 8005126:	687b      	ldr	r3, [r7, #4]
 8005128:	6a9b      	ldr	r3, [r3, #40]	; 0x28
 800512a:	62fb      	str	r3, [r7, #44]	; 0x2c
      pdata16bits  = NULL;
 800512c:	2300      	movs	r3, #0
 800512e:	62bb      	str	r3, [r7, #40]	; 0x28

      if ((huart->Init.WordLength == UART_WORDLENGTH_9B) || ((huart->Init.WordLength == UART_WORDLENGTH_8B) && (huart->Init.Parity == UART_PARITY_NONE)))
 8005130:	687b      	ldr	r3, [r7, #4]
 8005132:	689b      	ldr	r3, [r3, #8]
 8005134:	f5b3 5f80 	cmp.w	r3, #4096	; 0x1000
 8005138:	d007      	beq.n	800514a <UART_Receive_IT+0x74>
 800513a:	687b      	ldr	r3, [r7, #4]
 800513c:	689b      	ldr	r3, [r3, #8]
 800513e:	2b00      	cmp	r3, #0
 8005140:	d10a      	bne.n	8005158 <UART_Receive_IT+0x82>
 8005142:	687b      	ldr	r3, [r7, #4]
 8005144:	691b      	ldr	r3, [r3, #16]
 8005146:	2b00      	cmp	r3, #0
 8005148:	d106      	bne.n	8005158 <UART_Receive_IT+0x82>
      {
        *pdata8bits = (uint8_t)(huart->Instance->DR & (uint8_t)0x00FF);
 800514a:	687b      	ldr	r3, [r7, #4]
 800514c:	681b      	ldr	r3, [r3, #0]
 800514e:	685b      	ldr	r3, [r3, #4]
 8005150:	b2da      	uxtb	r2, r3
 8005152:	6afb      	ldr	r3, [r7, #44]	; 0x2c
 8005154:	701a      	strb	r2, [r3, #0]
 8005156:	e008      	b.n	800516a <UART_Receive_IT+0x94>
      }
      else
      {
        *pdata8bits = (uint8_t)(huart->Instance->DR & (uint8_t)0x007F);
 8005158:	687b      	ldr	r3, [r7, #4]
 800515a:	681b      	ldr	r3, [r3, #0]
 800515c:	685b      	ldr	r3, [r3, #4]
 800515e:	b2db      	uxtb	r3, r3
 8005160:	f003 037f 	and.w	r3, r3, #127	; 0x7f
 8005164:	b2da      	uxtb	r2, r3
 8005166:	6afb      	ldr	r3, [r7, #44]	; 0x2c
 8005168:	701a      	strb	r2, [r3, #0]
      }
      huart->pRxBuffPtr += 1U;
 800516a:	687b      	ldr	r3, [r7, #4]
 800516c:	6a9b      	ldr	r3, [r3, #40]	; 0x28
 800516e:	1c5a      	adds	r2, r3, #1
 8005170:	687b      	ldr	r3, [r7, #4]
 8005172:	629a      	str	r2, [r3, #40]	; 0x28
    }

    if (--huart->RxXferCount == 0U)
 8005174:	687b      	ldr	r3, [r7, #4]
 8005176:	8ddb      	ldrh	r3, [r3, #46]	; 0x2e
 8005178:	b29b      	uxth	r3, r3
 800517a:	3b01      	subs	r3, #1
 800517c:	b29b      	uxth	r3, r3
 800517e:	687a      	ldr	r2, [r7, #4]
 8005180:	4619      	mov	r1, r3
 8005182:	85d1      	strh	r1, [r2, #46]	; 0x2e
 8005184:	2b00      	cmp	r3, #0
 8005186:	d15d      	bne.n	8005244 <UART_Receive_IT+0x16e>
    {
      /* Disable the UART Data Register not empty Interrupt */
      __HAL_UART_DISABLE_IT(huart, UART_IT_RXNE);
 8005188:	687b      	ldr	r3, [r7, #4]
 800518a:	681b      	ldr	r3, [r3, #0]
 800518c:	68da      	ldr	r2, [r3, #12]
 800518e:	687b      	ldr	r3, [r7, #4]
 8005190:	681b      	ldr	r3, [r3, #0]
 8005192:	f022 0220 	bic.w	r2, r2, #32
 8005196:	60da      	str	r2, [r3, #12]

      /* Disable the UART Parity Error Interrupt */
      __HAL_UART_DISABLE_IT(huart, UART_IT_PE);
 8005198:	687b      	ldr	r3, [r7, #4]
 800519a:	681b      	ldr	r3, [r3, #0]
 800519c:	68da      	ldr	r2, [r3, #12]
 800519e:	687b      	ldr	r3, [r7, #4]
 80051a0:	681b      	ldr	r3, [r3, #0]
 80051a2:	f422 7280 	bic.w	r2, r2, #256	; 0x100
 80051a6:	60da      	str	r2, [r3, #12]

      /* Disable the UART Error Interrupt: (Frame error, noise error, overrun error) */
      __HAL_UART_DISABLE_IT(huart, UART_IT_ERR);
 80051a8:	687b      	ldr	r3, [r7, #4]
 80051aa:	681b      	ldr	r3, [r3, #0]
 80051ac:	695a      	ldr	r2, [r3, #20]
 80051ae:	687b      	ldr	r3, [r7, #4]
 80051b0:	681b      	ldr	r3, [r3, #0]
 80051b2:	f022 0201 	bic.w	r2, r2, #1
 80051b6:	615a      	str	r2, [r3, #20]

      /* Rx process is completed, restore huart->RxState to Ready */
      huart->RxState = HAL_UART_STATE_READY;
 80051b8:	687b      	ldr	r3, [r7, #4]
 80051ba:	2220      	movs	r2, #32
 80051bc:	f883 2042 	strb.w	r2, [r3, #66]	; 0x42

      /* Initialize type of RxEvent to Transfer Complete */
      huart->RxEventType = HAL_UART_RXEVENT_TC;
 80051c0:	687b      	ldr	r3, [r7, #4]
 80051c2:	2200      	movs	r2, #0
 80051c4:	635a      	str	r2, [r3, #52]	; 0x34

      /* Check current reception Mode :
         If Reception till IDLE event has been selected : */
      if (huart->ReceptionType == HAL_UART_RECEPTION_TOIDLE)
 80051c6:	687b      	ldr	r3, [r7, #4]
 80051c8:	6b1b      	ldr	r3, [r3, #48]	; 0x30
 80051ca:	2b01      	cmp	r3, #1
 80051cc:	d135      	bne.n	800523a <UART_Receive_IT+0x164>
      {
        /* Set reception type to Standard */
        huart->ReceptionType = HAL_UART_RECEPTION_STANDARD;
 80051ce:	687b      	ldr	r3, [r7, #4]
 80051d0:	2200      	movs	r2, #0
 80051d2:	631a      	str	r2, [r3, #48]	; 0x30

        /* Disable IDLE interrupt */
        ATOMIC_CLEAR_BIT(huart->Instance->CR1, USART_CR1_IDLEIE);
 80051d4:	687b      	ldr	r3, [r7, #4]
 80051d6:	681b      	ldr	r3, [r3, #0]
 80051d8:	330c      	adds	r3, #12
 80051da:	617b      	str	r3, [r7, #20]
   __ASM volatile ("ldrex %0, %1" : "=r" (result) : "Q" (*addr) );
 80051dc:	697b      	ldr	r3, [r7, #20]
 80051de:	e853 3f00 	ldrex	r3, [r3]
 80051e2:	613b      	str	r3, [r7, #16]
   return(result);
 80051e4:	693b      	ldr	r3, [r7, #16]
 80051e6:	f023 0310 	bic.w	r3, r3, #16
 80051ea:	627b      	str	r3, [r7, #36]	; 0x24
 80051ec:	687b      	ldr	r3, [r7, #4]
 80051ee:	681b      	ldr	r3, [r3, #0]
 80051f0:	330c      	adds	r3, #12
 80051f2:	6a7a      	ldr	r2, [r7, #36]	; 0x24
 80051f4:	623a      	str	r2, [r7, #32]
 80051f6:	61fb      	str	r3, [r7, #28]
   __ASM volatile ("strex %0, %2, %1" : "=&r" (result), "=Q" (*addr) : "r" (value) );
 80051f8:	69f9      	ldr	r1, [r7, #28]
 80051fa:	6a3a      	ldr	r2, [r7, #32]
 80051fc:	e841 2300 	strex	r3, r2, [r1]
 8005200:	61bb      	str	r3, [r7, #24]
   return(result);
 8005202:	69bb      	ldr	r3, [r7, #24]
 8005204:	2b00      	cmp	r3, #0
 8005206:	d1e5      	bne.n	80051d4 <UART_Receive_IT+0xfe>

        /* Check if IDLE flag is set */
        if (__HAL_UART_GET_FLAG(huart, UART_FLAG_IDLE))
 8005208:	687b      	ldr	r3, [r7, #4]
 800520a:	681b      	ldr	r3, [r3, #0]
 800520c:	681b      	ldr	r3, [r3, #0]
 800520e:	f003 0310 	and.w	r3, r3, #16
 8005212:	2b10      	cmp	r3, #16
 8005214:	d10a      	bne.n	800522c <UART_Receive_IT+0x156>
        {
          /* Clear IDLE flag in ISR */
          __HAL_UART_CLEAR_IDLEFLAG(huart);
 8005216:	2300      	movs	r3, #0
 8005218:	60fb      	str	r3, [r7, #12]
 800521a:	687b      	ldr	r3, [r7, #4]
 800521c:	681b      	ldr	r3, [r3, #0]
 800521e:	681b      	ldr	r3, [r3, #0]
 8005220:	60fb      	str	r3, [r7, #12]
 8005222:	687b      	ldr	r3, [r7, #4]
 8005224:	681b      	ldr	r3, [r3, #0]
 8005226:	685b      	ldr	r3, [r3, #4]
 8005228:	60fb      	str	r3, [r7, #12]
 800522a:	68fb      	ldr	r3, [r7, #12]
#if (USE_HAL_UART_REGISTER_CALLBACKS == 1)
        /*Call registered Rx Event callback*/
        huart->RxEventCallback(huart, huart->RxXferSize);
#else
        /*Call legacy weak Rx Event callback*/
        HAL_UARTEx_RxEventCallback(huart, huart->RxXferSize);
 800522c:	687b      	ldr	r3, [r7, #4]
 800522e:	8d9b      	ldrh	r3, [r3, #44]	; 0x2c
 8005230:	4619      	mov	r1, r3
 8005232:	6878      	ldr	r0, [r7, #4]
 8005234:	f7ff fdf9 	bl	8004e2a <HAL_UARTEx_RxEventCallback>
 8005238:	e002      	b.n	8005240 <UART_Receive_IT+0x16a>
#if (USE_HAL_UART_REGISTER_CALLBACKS == 1)
        /*Call registered Rx complete callback*/
        huart->RxCpltCallback(huart);
#else
        /*Call legacy weak Rx complete callback*/
        HAL_UART_RxCpltCallback(huart);
 800523a:	6878      	ldr	r0, [r7, #4]
 800523c:	f7ff fde3 	bl	8004e06 <HAL_UART_RxCpltCallback>
#endif /* USE_HAL_UART_REGISTER_CALLBACKS */
      }

      return HAL_OK;
 8005240:	2300      	movs	r3, #0
 8005242:	e002      	b.n	800524a <UART_Receive_IT+0x174>
    }
    return HAL_OK;
 8005244:	2300      	movs	r3, #0
 8005246:	e000      	b.n	800524a <UART_Receive_IT+0x174>
  }
  else
  {
    return HAL_BUSY;
 8005248:	2302      	movs	r3, #2
  }
}
 800524a:	4618      	mov	r0, r3
 800524c:	3730      	adds	r7, #48	; 0x30
 800524e:	46bd      	mov	sp, r7
 8005250:	bd80      	pop	{r7, pc}
	...

08005254 <UART_SetConfig>:
  * @param  huart  Pointer to a UART_HandleTypeDef structure that contains
  *                the configuration information for the specified UART module.
  * @retval None
  */
static void UART_SetConfig(UART_HandleTypeDef *huart)
{
 8005254:	b580      	push	{r7, lr}
 8005256:	b084      	sub	sp, #16
 8005258:	af00      	add	r7, sp, #0
 800525a:	6078      	str	r0, [r7, #4]
  assert_param(IS_UART_MODE(huart->Init.Mode));

  /*-------------------------- USART CR2 Configuration -----------------------*/
  /* Configure the UART Stop Bits: Set STOP[13:12] bits
     according to huart->Init.StopBits value */
  MODIFY_REG(huart->Instance->CR2, USART_CR2_STOP, huart->Init.StopBits);
 800525c:	687b      	ldr	r3, [r7, #4]
 800525e:	681b      	ldr	r3, [r3, #0]
 8005260:	691b      	ldr	r3, [r3, #16]
 8005262:	f423 5140 	bic.w	r1, r3, #12288	; 0x3000
 8005266:	687b      	ldr	r3, [r7, #4]
 8005268:	68da      	ldr	r2, [r3, #12]
 800526a:	687b      	ldr	r3, [r7, #4]
 800526c:	681b      	ldr	r3, [r3, #0]
 800526e:	430a      	orrs	r2, r1
 8005270:	611a      	str	r2, [r3, #16]
     Set the M bits according to huart->Init.WordLength value
     Set PCE and PS bits according to huart->Init.Parity value
     Set TE and RE bits according to huart->Init.Mode value
     Set OVER8 bit according to huart->Init.OverSampling value */

  tmpreg = (uint32_t)huart->Init.WordLength | huart->Init.Parity | huart->Init.Mode | huart->Init.OverSampling;
 8005272:	687b      	ldr	r3, [r7, #4]
 8005274:	689a      	ldr	r2, [r3, #8]
 8005276:	687b      	ldr	r3, [r7, #4]
 8005278:	691b      	ldr	r3, [r3, #16]
 800527a:	431a      	orrs	r2, r3
 800527c:	687b      	ldr	r3, [r7, #4]
 800527e:	695b      	ldr	r3, [r3, #20]
 8005280:	431a      	orrs	r2, r3
 8005282:	687b      	ldr	r3, [r7, #4]
 8005284:	69db      	ldr	r3, [r3, #28]
 8005286:	4313      	orrs	r3, r2
 8005288:	60bb      	str	r3, [r7, #8]
  MODIFY_REG(huart->Instance->CR1,
 800528a:	687b      	ldr	r3, [r7, #4]
 800528c:	681b      	ldr	r3, [r3, #0]
 800528e:	68db      	ldr	r3, [r3, #12]
 8005290:	f423 4316 	bic.w	r3, r3, #38400	; 0x9600
 8005294:	f023 030c 	bic.w	r3, r3, #12
 8005298:	687a      	ldr	r2, [r7, #4]
 800529a:	6812      	ldr	r2, [r2, #0]
 800529c:	68b9      	ldr	r1, [r7, #8]
 800529e:	430b      	orrs	r3, r1
 80052a0:	60d3      	str	r3, [r2, #12]
             (uint32_t)(USART_CR1_M | USART_CR1_PCE | USART_CR1_PS | USART_CR1_TE | USART_CR1_RE | USART_CR1_OVER8),
             tmpreg);

  /*-------------------------- USART CR3 Configuration -----------------------*/
  /* Configure the UART HFC: Set CTSE and RTSE bits according to huart->Init.HwFlowCtl value */
  MODIFY_REG(huart->Instance->CR3, (USART_CR3_RTSE | USART_CR3_CTSE), huart->Init.HwFlowCtl);
 80052a2:	687b      	ldr	r3, [r7, #4]
 80052a4:	681b      	ldr	r3, [r3, #0]
 80052a6:	695b      	ldr	r3, [r3, #20]
 80052a8:	f423 7140 	bic.w	r1, r3, #768	; 0x300
 80052ac:	687b      	ldr	r3, [r7, #4]
 80052ae:	699a      	ldr	r2, [r3, #24]
 80052b0:	687b      	ldr	r3, [r7, #4]
 80052b2:	681b      	ldr	r3, [r3, #0]
 80052b4:	430a      	orrs	r2, r1
 80052b6:	615a      	str	r2, [r3, #20]


  if((huart->Instance == USART1))
 80052b8:	687b      	ldr	r3, [r7, #4]
 80052ba:	681b      	ldr	r3, [r3, #0]
 80052bc:	4a55      	ldr	r2, [pc, #340]	; (8005414 <UART_SetConfig+0x1c0>)
 80052be:	4293      	cmp	r3, r2
 80052c0:	d103      	bne.n	80052ca <UART_SetConfig+0x76>
  {
    pclk = HAL_RCC_GetPCLK2Freq();
 80052c2:	f7fe fdfd 	bl	8003ec0 <HAL_RCC_GetPCLK2Freq>
 80052c6:	60f8      	str	r0, [r7, #12]
 80052c8:	e002      	b.n	80052d0 <UART_SetConfig+0x7c>
  }
  else
  {
    pclk = HAL_RCC_GetPCLK1Freq();
 80052ca:	f7fe fde5 	bl	8003e98 <HAL_RCC_GetPCLK1Freq>
 80052ce:	60f8      	str	r0, [r7, #12]
  }

  /*-------------------------- USART BRR Configuration ---------------------*/
  if (huart->Init.OverSampling == UART_OVERSAMPLING_8)
 80052d0:	687b      	ldr	r3, [r7, #4]
 80052d2:	69db      	ldr	r3, [r3, #28]
 80052d4:	f5b3 4f00 	cmp.w	r3, #32768	; 0x8000
 80052d8:	d14c      	bne.n	8005374 <UART_SetConfig+0x120>
  {
    huart->Instance->BRR = UART_BRR_SAMPLING8(pclk, huart->Init.BaudRate);
 80052da:	68fa      	ldr	r2, [r7, #12]
 80052dc:	4613      	mov	r3, r2
 80052de:	009b      	lsls	r3, r3, #2
 80052e0:	4413      	add	r3, r2
 80052e2:	009a      	lsls	r2, r3, #2
 80052e4:	441a      	add	r2, r3
 80052e6:	687b      	ldr	r3, [r7, #4]
 80052e8:	685b      	ldr	r3, [r3, #4]
 80052ea:	005b      	lsls	r3, r3, #1
 80052ec:	fbb2 f3f3 	udiv	r3, r2, r3
 80052f0:	4a49      	ldr	r2, [pc, #292]	; (8005418 <UART_SetConfig+0x1c4>)
 80052f2:	fba2 2303 	umull	r2, r3, r2, r3
 80052f6:	095b      	lsrs	r3, r3, #5
 80052f8:	0119      	lsls	r1, r3, #4
 80052fa:	68fa      	ldr	r2, [r7, #12]
 80052fc:	4613      	mov	r3, r2
 80052fe:	009b      	lsls	r3, r3, #2
 8005300:	4413      	add	r3, r2
 8005302:	009a      	lsls	r2, r3, #2
 8005304:	441a      	add	r2, r3
 8005306:	687b      	ldr	r3, [r7, #4]
 8005308:	685b      	ldr	r3, [r3, #4]
 800530a:	005b      	lsls	r3, r3, #1
 800530c:	fbb2 f2f3 	udiv	r2, r2, r3
 8005310:	4b41      	ldr	r3, [pc, #260]	; (8005418 <UART_SetConfig+0x1c4>)
 8005312:	fba3 0302 	umull	r0, r3, r3, r2
 8005316:	095b      	lsrs	r3, r3, #5
 8005318:	2064      	movs	r0, #100	; 0x64
 800531a:	fb00 f303 	mul.w	r3, r0, r3
 800531e:	1ad3      	subs	r3, r2, r3
 8005320:	00db      	lsls	r3, r3, #3
 8005322:	3332      	adds	r3, #50	; 0x32
 8005324:	4a3c      	ldr	r2, [pc, #240]	; (8005418 <UART_SetConfig+0x1c4>)
 8005326:	fba2 2303 	umull	r2, r3, r2, r3
 800532a:	095b      	lsrs	r3, r3, #5
 800532c:	005b      	lsls	r3, r3, #1
 800532e:	f403 73f8 	and.w	r3, r3, #496	; 0x1f0
 8005332:	4419      	add	r1, r3
 8005334:	68fa      	ldr	r2, [r7, #12]
 8005336:	4613      	mov	r3, r2
 8005338:	009b      	lsls	r3, r3, #2
 800533a:	4413      	add	r3, r2
 800533c:	009a      	lsls	r2, r3, #2
 800533e:	441a      	add	r2, r3
 8005340:	687b      	ldr	r3, [r7, #4]
 8005342:	685b      	ldr	r3, [r3, #4]
 8005344:	005b      	lsls	r3, r3, #1
 8005346:	fbb2 f2f3 	udiv	r2, r2, r3
 800534a:	4b33      	ldr	r3, [pc, #204]	; (8005418 <UART_SetConfig+0x1c4>)
 800534c:	fba3 0302 	umull	r0, r3, r3, r2
 8005350:	095b      	lsrs	r3, r3, #5
 8005352:	2064      	movs	r0, #100	; 0x64
 8005354:	fb00 f303 	mul.w	r3, r0, r3
 8005358:	1ad3      	subs	r3, r2, r3
 800535a:	00db      	lsls	r3, r3, #3
 800535c:	3332      	adds	r3, #50	; 0x32
 800535e:	4a2e      	ldr	r2, [pc, #184]	; (8005418 <UART_SetConfig+0x1c4>)
 8005360:	fba2 2303 	umull	r2, r3, r2, r3
 8005364:	095b      	lsrs	r3, r3, #5
 8005366:	f003 0207 	and.w	r2, r3, #7
 800536a:	687b      	ldr	r3, [r7, #4]
 800536c:	681b      	ldr	r3, [r3, #0]
 800536e:	440a      	add	r2, r1
 8005370:	609a      	str	r2, [r3, #8]
  }
  else
  {
    huart->Instance->BRR = UART_BRR_SAMPLING16(pclk, huart->Init.BaudRate);
  }
}
 8005372:	e04a      	b.n	800540a <UART_SetConfig+0x1b6>
    huart->Instance->BRR = UART_BRR_SAMPLING16(pclk, huart->Init.BaudRate);
 8005374:	68fa      	ldr	r2, [r7, #12]
 8005376:	4613      	mov	r3, r2
 8005378:	009b      	lsls	r3, r3, #2
 800537a:	4413      	add	r3, r2
 800537c:	009a      	lsls	r2, r3, #2
 800537e:	441a      	add	r2, r3
 8005380:	687b      	ldr	r3, [r7, #4]
 8005382:	685b      	ldr	r3, [r3, #4]
 8005384:	009b      	lsls	r3, r3, #2
 8005386:	fbb2 f3f3 	udiv	r3, r2, r3
 800538a:	4a23      	ldr	r2, [pc, #140]	; (8005418 <UART_SetConfig+0x1c4>)
 800538c:	fba2 2303 	umull	r2, r3, r2, r3
 8005390:	095b      	lsrs	r3, r3, #5
 8005392:	0119      	lsls	r1, r3, #4
 8005394:	68fa      	ldr	r2, [r7, #12]
 8005396:	4613      	mov	r3, r2
 8005398:	009b      	lsls	r3, r3, #2
 800539a:	4413      	add	r3, r2
 800539c:	009a      	lsls	r2, r3, #2
 800539e:	441a      	add	r2, r3
 80053a0:	687b      	ldr	r3, [r7, #4]
 80053a2:	685b      	ldr	r3, [r3, #4]
 80053a4:	009b      	lsls	r3, r3, #2
 80053a6:	fbb2 f2f3 	udiv	r2, r2, r3
 80053aa:	4b1b      	ldr	r3, [pc, #108]	; (8005418 <UART_SetConfig+0x1c4>)
 80053ac:	fba3 0302 	umull	r0, r3, r3, r2
 80053b0:	095b      	lsrs	r3, r3, #5
 80053b2:	2064      	movs	r0, #100	; 0x64
 80053b4:	fb00 f303 	mul.w	r3, r0, r3
 80053b8:	1ad3      	subs	r3, r2, r3
 80053ba:	011b      	lsls	r3, r3, #4
 80053bc:	3332      	adds	r3, #50	; 0x32
 80053be:	4a16      	ldr	r2, [pc, #88]	; (8005418 <UART_SetConfig+0x1c4>)
 80053c0:	fba2 2303 	umull	r2, r3, r2, r3
 80053c4:	095b      	lsrs	r3, r3, #5
 80053c6:	f003 03f0 	and.w	r3, r3, #240	; 0xf0
 80053ca:	4419      	add	r1, r3
 80053cc:	68fa      	ldr	r2, [r7, #12]
 80053ce:	4613      	mov	r3, r2
 80053d0:	009b      	lsls	r3, r3, #2
 80053d2:	4413      	add	r3, r2
 80053d4:	009a      	lsls	r2, r3, #2
 80053d6:	441a      	add	r2, r3
 80053d8:	687b      	ldr	r3, [r7, #4]
 80053da:	685b      	ldr	r3, [r3, #4]
 80053dc:	009b      	lsls	r3, r3, #2
 80053de:	fbb2 f2f3 	udiv	r2, r2, r3
 80053e2:	4b0d      	ldr	r3, [pc, #52]	; (8005418 <UART_SetConfig+0x1c4>)
 80053e4:	fba3 0302 	umull	r0, r3, r3, r2
 80053e8:	095b      	lsrs	r3, r3, #5
 80053ea:	2064      	movs	r0, #100	; 0x64
 80053ec:	fb00 f303 	mul.w	r3, r0, r3
 80053f0:	1ad3      	subs	r3, r2, r3
 80053f2:	011b      	lsls	r3, r3, #4
 80053f4:	3332      	adds	r3, #50	; 0x32
 80053f6:	4a08      	ldr	r2, [pc, #32]	; (8005418 <UART_SetConfig+0x1c4>)
 80053f8:	fba2 2303 	umull	r2, r3, r2, r3
 80053fc:	095b      	lsrs	r3, r3, #5
 80053fe:	f003 020f 	and.w	r2, r3, #15
 8005402:	687b      	ldr	r3, [r7, #4]
 8005404:	681b      	ldr	r3, [r3, #0]
 8005406:	440a      	add	r2, r1
 8005408:	609a      	str	r2, [r3, #8]
}
 800540a:	bf00      	nop
 800540c:	3710      	adds	r7, #16
 800540e:	46bd      	mov	sp, r7
 8005410:	bd80      	pop	{r7, pc}
 8005412:	bf00      	nop
 8005414:	40013800 	.word	0x40013800
 8005418:	51eb851f 	.word	0x51eb851f

0800541c <__errno>:
 800541c:	4b01      	ldr	r3, [pc, #4]	; (8005424 <__errno+0x8>)
 800541e:	6818      	ldr	r0, [r3, #0]
 8005420:	4770      	bx	lr
 8005422:	bf00      	nop
 8005424:	2000004c 	.word	0x2000004c

08005428 <__libc_init_array>:
 8005428:	b570      	push	{r4, r5, r6, lr}
 800542a:	2600      	movs	r6, #0
 800542c:	4d0c      	ldr	r5, [pc, #48]	; (8005460 <__libc_init_array+0x38>)
 800542e:	4c0d      	ldr	r4, [pc, #52]	; (8005464 <__libc_init_array+0x3c>)
 8005430:	1b64      	subs	r4, r4, r5
 8005432:	10a4      	asrs	r4, r4, #2
 8005434:	42a6      	cmp	r6, r4
 8005436:	d109      	bne.n	800544c <__libc_init_array+0x24>
 8005438:	f000 ff82 	bl	8006340 <_init>
 800543c:	2600      	movs	r6, #0
 800543e:	4d0a      	ldr	r5, [pc, #40]	; (8005468 <__libc_init_array+0x40>)
 8005440:	4c0a      	ldr	r4, [pc, #40]	; (800546c <__libc_init_array+0x44>)
 8005442:	1b64      	subs	r4, r4, r5
 8005444:	10a4      	asrs	r4, r4, #2
 8005446:	42a6      	cmp	r6, r4
 8005448:	d105      	bne.n	8005456 <__libc_init_array+0x2e>
 800544a:	bd70      	pop	{r4, r5, r6, pc}
 800544c:	f855 3b04 	ldr.w	r3, [r5], #4
 8005450:	4798      	blx	r3
 8005452:	3601      	adds	r6, #1
 8005454:	e7ee      	b.n	8005434 <__libc_init_array+0xc>
 8005456:	f855 3b04 	ldr.w	r3, [r5], #4
 800545a:	4798      	blx	r3
 800545c:	3601      	adds	r6, #1
 800545e:	e7f2      	b.n	8005446 <__libc_init_array+0x1e>
 8005460:	080079c0 	.word	0x080079c0
 8005464:	080079c0 	.word	0x080079c0
 8005468:	080079c0 	.word	0x080079c0
 800546c:	080079c4 	.word	0x080079c4

08005470 <memset>:
 8005470:	4603      	mov	r3, r0
 8005472:	4402      	add	r2, r0
 8005474:	4293      	cmp	r3, r2
 8005476:	d100      	bne.n	800547a <memset+0xa>
 8005478:	4770      	bx	lr
 800547a:	f803 1b01 	strb.w	r1, [r3], #1
 800547e:	e7f9      	b.n	8005474 <memset+0x4>

08005480 <iprintf>:
 8005480:	b40f      	push	{r0, r1, r2, r3}
 8005482:	4b0a      	ldr	r3, [pc, #40]	; (80054ac <iprintf+0x2c>)
 8005484:	b513      	push	{r0, r1, r4, lr}
 8005486:	681c      	ldr	r4, [r3, #0]
 8005488:	b124      	cbz	r4, 8005494 <iprintf+0x14>
 800548a:	69a3      	ldr	r3, [r4, #24]
 800548c:	b913      	cbnz	r3, 8005494 <iprintf+0x14>
 800548e:	4620      	mov	r0, r4
 8005490:	f000 f866 	bl	8005560 <__sinit>
 8005494:	ab05      	add	r3, sp, #20
 8005496:	4620      	mov	r0, r4
 8005498:	9a04      	ldr	r2, [sp, #16]
 800549a:	68a1      	ldr	r1, [r4, #8]
 800549c:	9301      	str	r3, [sp, #4]
 800549e:	f000 f981 	bl	80057a4 <_vfiprintf_r>
 80054a2:	b002      	add	sp, #8
 80054a4:	e8bd 4010 	ldmia.w	sp!, {r4, lr}
 80054a8:	b004      	add	sp, #16
 80054aa:	4770      	bx	lr
 80054ac:	2000004c 	.word	0x2000004c

080054b0 <std>:
 80054b0:	2300      	movs	r3, #0
 80054b2:	b510      	push	{r4, lr}
 80054b4:	4604      	mov	r4, r0
 80054b6:	e9c0 3300 	strd	r3, r3, [r0]
 80054ba:	e9c0 3304 	strd	r3, r3, [r0, #16]
 80054be:	6083      	str	r3, [r0, #8]
 80054c0:	8181      	strh	r1, [r0, #12]
 80054c2:	6643      	str	r3, [r0, #100]	; 0x64
 80054c4:	81c2      	strh	r2, [r0, #14]
 80054c6:	6183      	str	r3, [r0, #24]
 80054c8:	4619      	mov	r1, r3
 80054ca:	2208      	movs	r2, #8
 80054cc:	305c      	adds	r0, #92	; 0x5c
 80054ce:	f7ff ffcf 	bl	8005470 <memset>
 80054d2:	4b05      	ldr	r3, [pc, #20]	; (80054e8 <std+0x38>)
 80054d4:	6224      	str	r4, [r4, #32]
 80054d6:	6263      	str	r3, [r4, #36]	; 0x24
 80054d8:	4b04      	ldr	r3, [pc, #16]	; (80054ec <std+0x3c>)
 80054da:	62a3      	str	r3, [r4, #40]	; 0x28
 80054dc:	4b04      	ldr	r3, [pc, #16]	; (80054f0 <std+0x40>)
 80054de:	62e3      	str	r3, [r4, #44]	; 0x2c
 80054e0:	4b04      	ldr	r3, [pc, #16]	; (80054f4 <std+0x44>)
 80054e2:	6323      	str	r3, [r4, #48]	; 0x30
 80054e4:	bd10      	pop	{r4, pc}
 80054e6:	bf00      	nop
 80054e8:	08005d51 	.word	0x08005d51
 80054ec:	08005d73 	.word	0x08005d73
 80054f0:	08005dab 	.word	0x08005dab
 80054f4:	08005dcf 	.word	0x08005dcf

080054f8 <_cleanup_r>:
 80054f8:	4901      	ldr	r1, [pc, #4]	; (8005500 <_cleanup_r+0x8>)
 80054fa:	f000 b8af 	b.w	800565c <_fwalk_reent>
 80054fe:	bf00      	nop
 8005500:	080060a9 	.word	0x080060a9

08005504 <__sfmoreglue>:
 8005504:	b570      	push	{r4, r5, r6, lr}
 8005506:	2568      	movs	r5, #104	; 0x68
 8005508:	1e4a      	subs	r2, r1, #1
 800550a:	4355      	muls	r5, r2
 800550c:	460e      	mov	r6, r1
 800550e:	f105 0174 	add.w	r1, r5, #116	; 0x74
 8005512:	f000 f8c5 	bl	80056a0 <_malloc_r>
 8005516:	4604      	mov	r4, r0
 8005518:	b140      	cbz	r0, 800552c <__sfmoreglue+0x28>
 800551a:	2100      	movs	r1, #0
 800551c:	e9c0 1600 	strd	r1, r6, [r0]
 8005520:	300c      	adds	r0, #12
 8005522:	60a0      	str	r0, [r4, #8]
 8005524:	f105 0268 	add.w	r2, r5, #104	; 0x68
 8005528:	f7ff ffa2 	bl	8005470 <memset>
 800552c:	4620      	mov	r0, r4
 800552e:	bd70      	pop	{r4, r5, r6, pc}

08005530 <__sfp_lock_acquire>:
 8005530:	4801      	ldr	r0, [pc, #4]	; (8005538 <__sfp_lock_acquire+0x8>)
 8005532:	f000 b8b3 	b.w	800569c <__retarget_lock_acquire_recursive>
 8005536:	bf00      	nop
 8005538:	20000618 	.word	0x20000618

0800553c <__sfp_lock_release>:
 800553c:	4801      	ldr	r0, [pc, #4]	; (8005544 <__sfp_lock_release+0x8>)
 800553e:	f000 b8ae 	b.w	800569e <__retarget_lock_release_recursive>
 8005542:	bf00      	nop
 8005544:	20000618 	.word	0x20000618

08005548 <__sinit_lock_acquire>:
 8005548:	4801      	ldr	r0, [pc, #4]	; (8005550 <__sinit_lock_acquire+0x8>)
 800554a:	f000 b8a7 	b.w	800569c <__retarget_lock_acquire_recursive>
 800554e:	bf00      	nop
 8005550:	20000613 	.word	0x20000613

08005554 <__sinit_lock_release>:
 8005554:	4801      	ldr	r0, [pc, #4]	; (800555c <__sinit_lock_release+0x8>)
 8005556:	f000 b8a2 	b.w	800569e <__retarget_lock_release_recursive>
 800555a:	bf00      	nop
 800555c:	20000613 	.word	0x20000613

08005560 <__sinit>:
 8005560:	b510      	push	{r4, lr}
 8005562:	4604      	mov	r4, r0
 8005564:	f7ff fff0 	bl	8005548 <__sinit_lock_acquire>
 8005568:	69a3      	ldr	r3, [r4, #24]
 800556a:	b11b      	cbz	r3, 8005574 <__sinit+0x14>
 800556c:	e8bd 4010 	ldmia.w	sp!, {r4, lr}
 8005570:	f7ff bff0 	b.w	8005554 <__sinit_lock_release>
 8005574:	e9c4 3312 	strd	r3, r3, [r4, #72]	; 0x48
 8005578:	6523      	str	r3, [r4, #80]	; 0x50
 800557a:	4b13      	ldr	r3, [pc, #76]	; (80055c8 <__sinit+0x68>)
 800557c:	4a13      	ldr	r2, [pc, #76]	; (80055cc <__sinit+0x6c>)
 800557e:	681b      	ldr	r3, [r3, #0]
 8005580:	62a2      	str	r2, [r4, #40]	; 0x28
 8005582:	42a3      	cmp	r3, r4
 8005584:	bf08      	it	eq
 8005586:	2301      	moveq	r3, #1
 8005588:	4620      	mov	r0, r4
 800558a:	bf08      	it	eq
 800558c:	61a3      	streq	r3, [r4, #24]
 800558e:	f000 f81f 	bl	80055d0 <__sfp>
 8005592:	6060      	str	r0, [r4, #4]
 8005594:	4620      	mov	r0, r4
 8005596:	f000 f81b 	bl	80055d0 <__sfp>
 800559a:	60a0      	str	r0, [r4, #8]
 800559c:	4620      	mov	r0, r4
 800559e:	f000 f817 	bl	80055d0 <__sfp>
 80055a2:	2200      	movs	r2, #0
 80055a4:	2104      	movs	r1, #4
 80055a6:	60e0      	str	r0, [r4, #12]
 80055a8:	6860      	ldr	r0, [r4, #4]
 80055aa:	f7ff ff81 	bl	80054b0 <std>
 80055ae:	2201      	movs	r2, #1
 80055b0:	2109      	movs	r1, #9
 80055b2:	68a0      	ldr	r0, [r4, #8]
 80055b4:	f7ff ff7c 	bl	80054b0 <std>
 80055b8:	2202      	movs	r2, #2
 80055ba:	2112      	movs	r1, #18
 80055bc:	68e0      	ldr	r0, [r4, #12]
 80055be:	f7ff ff77 	bl	80054b0 <std>
 80055c2:	2301      	movs	r3, #1
 80055c4:	61a3      	str	r3, [r4, #24]
 80055c6:	e7d1      	b.n	800556c <__sinit+0xc>
 80055c8:	08007920 	.word	0x08007920
 80055cc:	080054f9 	.word	0x080054f9

080055d0 <__sfp>:
 80055d0:	b5f8      	push	{r3, r4, r5, r6, r7, lr}
 80055d2:	4607      	mov	r7, r0
 80055d4:	f7ff ffac 	bl	8005530 <__sfp_lock_acquire>
 80055d8:	4b1e      	ldr	r3, [pc, #120]	; (8005654 <__sfp+0x84>)
 80055da:	681e      	ldr	r6, [r3, #0]
 80055dc:	69b3      	ldr	r3, [r6, #24]
 80055de:	b913      	cbnz	r3, 80055e6 <__sfp+0x16>
 80055e0:	4630      	mov	r0, r6
 80055e2:	f7ff ffbd 	bl	8005560 <__sinit>
 80055e6:	3648      	adds	r6, #72	; 0x48
 80055e8:	e9d6 3401 	ldrd	r3, r4, [r6, #4]
 80055ec:	3b01      	subs	r3, #1
 80055ee:	d503      	bpl.n	80055f8 <__sfp+0x28>
 80055f0:	6833      	ldr	r3, [r6, #0]
 80055f2:	b30b      	cbz	r3, 8005638 <__sfp+0x68>
 80055f4:	6836      	ldr	r6, [r6, #0]
 80055f6:	e7f7      	b.n	80055e8 <__sfp+0x18>
 80055f8:	f9b4 500c 	ldrsh.w	r5, [r4, #12]
 80055fc:	b9d5      	cbnz	r5, 8005634 <__sfp+0x64>
 80055fe:	4b16      	ldr	r3, [pc, #88]	; (8005658 <__sfp+0x88>)
 8005600:	f104 0058 	add.w	r0, r4, #88	; 0x58
 8005604:	60e3      	str	r3, [r4, #12]
 8005606:	6665      	str	r5, [r4, #100]	; 0x64
 8005608:	f000 f847 	bl	800569a <__retarget_lock_init_recursive>
 800560c:	f7ff ff96 	bl	800553c <__sfp_lock_release>
 8005610:	2208      	movs	r2, #8
 8005612:	4629      	mov	r1, r5
 8005614:	e9c4 5501 	strd	r5, r5, [r4, #4]
 8005618:	e9c4 5504 	strd	r5, r5, [r4, #16]
 800561c:	6025      	str	r5, [r4, #0]
 800561e:	61a5      	str	r5, [r4, #24]
 8005620:	f104 005c 	add.w	r0, r4, #92	; 0x5c
 8005624:	f7ff ff24 	bl	8005470 <memset>
 8005628:	e9c4 550d 	strd	r5, r5, [r4, #52]	; 0x34
 800562c:	e9c4 5512 	strd	r5, r5, [r4, #72]	; 0x48
 8005630:	4620      	mov	r0, r4
 8005632:	bdf8      	pop	{r3, r4, r5, r6, r7, pc}
 8005634:	3468      	adds	r4, #104	; 0x68
 8005636:	e7d9      	b.n	80055ec <__sfp+0x1c>
 8005638:	2104      	movs	r1, #4
 800563a:	4638      	mov	r0, r7
 800563c:	f7ff ff62 	bl	8005504 <__sfmoreglue>
 8005640:	4604      	mov	r4, r0
 8005642:	6030      	str	r0, [r6, #0]
 8005644:	2800      	cmp	r0, #0
 8005646:	d1d5      	bne.n	80055f4 <__sfp+0x24>
 8005648:	f7ff ff78 	bl	800553c <__sfp_lock_release>
 800564c:	230c      	movs	r3, #12
 800564e:	603b      	str	r3, [r7, #0]
 8005650:	e7ee      	b.n	8005630 <__sfp+0x60>
 8005652:	bf00      	nop
 8005654:	08007920 	.word	0x08007920
 8005658:	ffff0001 	.word	0xffff0001

0800565c <_fwalk_reent>:
 800565c:	e92d 43f8 	stmdb	sp!, {r3, r4, r5, r6, r7, r8, r9, lr}
 8005660:	4606      	mov	r6, r0
 8005662:	4688      	mov	r8, r1
 8005664:	2700      	movs	r7, #0
 8005666:	f100 0448 	add.w	r4, r0, #72	; 0x48
 800566a:	e9d4 9501 	ldrd	r9, r5, [r4, #4]
 800566e:	f1b9 0901 	subs.w	r9, r9, #1
 8005672:	d505      	bpl.n	8005680 <_fwalk_reent+0x24>
 8005674:	6824      	ldr	r4, [r4, #0]
 8005676:	2c00      	cmp	r4, #0
 8005678:	d1f7      	bne.n	800566a <_fwalk_reent+0xe>
 800567a:	4638      	mov	r0, r7
 800567c:	e8bd 83f8 	ldmia.w	sp!, {r3, r4, r5, r6, r7, r8, r9, pc}
 8005680:	89ab      	ldrh	r3, [r5, #12]
 8005682:	2b01      	cmp	r3, #1
 8005684:	d907      	bls.n	8005696 <_fwalk_reent+0x3a>
 8005686:	f9b5 300e 	ldrsh.w	r3, [r5, #14]
 800568a:	3301      	adds	r3, #1
 800568c:	d003      	beq.n	8005696 <_fwalk_reent+0x3a>
 800568e:	4629      	mov	r1, r5
 8005690:	4630      	mov	r0, r6
 8005692:	47c0      	blx	r8
 8005694:	4307      	orrs	r7, r0
 8005696:	3568      	adds	r5, #104	; 0x68
 8005698:	e7e9      	b.n	800566e <_fwalk_reent+0x12>

0800569a <__retarget_lock_init_recursive>:
 800569a:	4770      	bx	lr

0800569c <__retarget_lock_acquire_recursive>:
 800569c:	4770      	bx	lr

0800569e <__retarget_lock_release_recursive>:
 800569e:	4770      	bx	lr

080056a0 <_malloc_r>:
 80056a0:	b5f8      	push	{r3, r4, r5, r6, r7, lr}
 80056a2:	1ccd      	adds	r5, r1, #3
 80056a4:	f025 0503 	bic.w	r5, r5, #3
 80056a8:	3508      	adds	r5, #8
 80056aa:	2d0c      	cmp	r5, #12
 80056ac:	bf38      	it	cc
 80056ae:	250c      	movcc	r5, #12
 80056b0:	2d00      	cmp	r5, #0
 80056b2:	4606      	mov	r6, r0
 80056b4:	db01      	blt.n	80056ba <_malloc_r+0x1a>
 80056b6:	42a9      	cmp	r1, r5
 80056b8:	d903      	bls.n	80056c2 <_malloc_r+0x22>
 80056ba:	230c      	movs	r3, #12
 80056bc:	6033      	str	r3, [r6, #0]
 80056be:	2000      	movs	r0, #0
 80056c0:	bdf8      	pop	{r3, r4, r5, r6, r7, pc}
 80056c2:	f000 fdb1 	bl	8006228 <__malloc_lock>
 80056c6:	4921      	ldr	r1, [pc, #132]	; (800574c <_malloc_r+0xac>)
 80056c8:	680a      	ldr	r2, [r1, #0]
 80056ca:	4614      	mov	r4, r2
 80056cc:	b99c      	cbnz	r4, 80056f6 <_malloc_r+0x56>
 80056ce:	4f20      	ldr	r7, [pc, #128]	; (8005750 <_malloc_r+0xb0>)
 80056d0:	683b      	ldr	r3, [r7, #0]
 80056d2:	b923      	cbnz	r3, 80056de <_malloc_r+0x3e>
 80056d4:	4621      	mov	r1, r4
 80056d6:	4630      	mov	r0, r6
 80056d8:	f000 fb2a 	bl	8005d30 <_sbrk_r>
 80056dc:	6038      	str	r0, [r7, #0]
 80056de:	4629      	mov	r1, r5
 80056e0:	4630      	mov	r0, r6
 80056e2:	f000 fb25 	bl	8005d30 <_sbrk_r>
 80056e6:	1c43      	adds	r3, r0, #1
 80056e8:	d123      	bne.n	8005732 <_malloc_r+0x92>
 80056ea:	230c      	movs	r3, #12
 80056ec:	4630      	mov	r0, r6
 80056ee:	6033      	str	r3, [r6, #0]
 80056f0:	f000 fda0 	bl	8006234 <__malloc_unlock>
 80056f4:	e7e3      	b.n	80056be <_malloc_r+0x1e>
 80056f6:	6823      	ldr	r3, [r4, #0]
 80056f8:	1b5b      	subs	r3, r3, r5
 80056fa:	d417      	bmi.n	800572c <_malloc_r+0x8c>
 80056fc:	2b0b      	cmp	r3, #11
 80056fe:	d903      	bls.n	8005708 <_malloc_r+0x68>
 8005700:	6023      	str	r3, [r4, #0]
 8005702:	441c      	add	r4, r3
 8005704:	6025      	str	r5, [r4, #0]
 8005706:	e004      	b.n	8005712 <_malloc_r+0x72>
 8005708:	6863      	ldr	r3, [r4, #4]
 800570a:	42a2      	cmp	r2, r4
 800570c:	bf0c      	ite	eq
 800570e:	600b      	streq	r3, [r1, #0]
 8005710:	6053      	strne	r3, [r2, #4]
 8005712:	4630      	mov	r0, r6
 8005714:	f000 fd8e 	bl	8006234 <__malloc_unlock>
 8005718:	f104 000b 	add.w	r0, r4, #11
 800571c:	1d23      	adds	r3, r4, #4
 800571e:	f020 0007 	bic.w	r0, r0, #7
 8005722:	1ac2      	subs	r2, r0, r3
 8005724:	d0cc      	beq.n	80056c0 <_malloc_r+0x20>
 8005726:	1a1b      	subs	r3, r3, r0
 8005728:	50a3      	str	r3, [r4, r2]
 800572a:	e7c9      	b.n	80056c0 <_malloc_r+0x20>
 800572c:	4622      	mov	r2, r4
 800572e:	6864      	ldr	r4, [r4, #4]
 8005730:	e7cc      	b.n	80056cc <_malloc_r+0x2c>
 8005732:	1cc4      	adds	r4, r0, #3
 8005734:	f024 0403 	bic.w	r4, r4, #3
 8005738:	42a0      	cmp	r0, r4
 800573a:	d0e3      	beq.n	8005704 <_malloc_r+0x64>
 800573c:	1a21      	subs	r1, r4, r0
 800573e:	4630      	mov	r0, r6
 8005740:	f000 faf6 	bl	8005d30 <_sbrk_r>
 8005744:	3001      	adds	r0, #1
 8005746:	d1dd      	bne.n	8005704 <_malloc_r+0x64>
 8005748:	e7cf      	b.n	80056ea <_malloc_r+0x4a>
 800574a:	bf00      	nop
 800574c:	20000510 	.word	0x20000510
 8005750:	20000514 	.word	0x20000514

08005754 <__sfputc_r>:
 8005754:	6893      	ldr	r3, [r2, #8]
 8005756:	b410      	push	{r4}
 8005758:	3b01      	subs	r3, #1
 800575a:	2b00      	cmp	r3, #0
 800575c:	6093      	str	r3, [r2, #8]
 800575e:	da07      	bge.n	8005770 <__sfputc_r+0x1c>
 8005760:	6994      	ldr	r4, [r2, #24]
 8005762:	42a3      	cmp	r3, r4
 8005764:	db01      	blt.n	800576a <__sfputc_r+0x16>
 8005766:	290a      	cmp	r1, #10
 8005768:	d102      	bne.n	8005770 <__sfputc_r+0x1c>
 800576a:	bc10      	pop	{r4}
 800576c:	f000 bb34 	b.w	8005dd8 <__swbuf_r>
 8005770:	6813      	ldr	r3, [r2, #0]
 8005772:	1c58      	adds	r0, r3, #1
 8005774:	6010      	str	r0, [r2, #0]
 8005776:	7019      	strb	r1, [r3, #0]
 8005778:	4608      	mov	r0, r1
 800577a:	bc10      	pop	{r4}
 800577c:	4770      	bx	lr

0800577e <__sfputs_r>:
 800577e:	b5f8      	push	{r3, r4, r5, r6, r7, lr}
 8005780:	4606      	mov	r6, r0
 8005782:	460f      	mov	r7, r1
 8005784:	4614      	mov	r4, r2
 8005786:	18d5      	adds	r5, r2, r3
 8005788:	42ac      	cmp	r4, r5
 800578a:	d101      	bne.n	8005790 <__sfputs_r+0x12>
 800578c:	2000      	movs	r0, #0
 800578e:	e007      	b.n	80057a0 <__sfputs_r+0x22>
 8005790:	463a      	mov	r2, r7
 8005792:	4630      	mov	r0, r6
 8005794:	f814 1b01 	ldrb.w	r1, [r4], #1
 8005798:	f7ff ffdc 	bl	8005754 <__sfputc_r>
 800579c:	1c43      	adds	r3, r0, #1
 800579e:	d1f3      	bne.n	8005788 <__sfputs_r+0xa>
 80057a0:	bdf8      	pop	{r3, r4, r5, r6, r7, pc}
	...

080057a4 <_vfiprintf_r>:
 80057a4:	e92d 4ff0 	stmdb	sp!, {r4, r5, r6, r7, r8, r9, sl, fp, lr}
 80057a8:	460d      	mov	r5, r1
 80057aa:	4614      	mov	r4, r2
 80057ac:	4698      	mov	r8, r3
 80057ae:	4606      	mov	r6, r0
 80057b0:	b09d      	sub	sp, #116	; 0x74
 80057b2:	b118      	cbz	r0, 80057bc <_vfiprintf_r+0x18>
 80057b4:	6983      	ldr	r3, [r0, #24]
 80057b6:	b90b      	cbnz	r3, 80057bc <_vfiprintf_r+0x18>
 80057b8:	f7ff fed2 	bl	8005560 <__sinit>
 80057bc:	4b89      	ldr	r3, [pc, #548]	; (80059e4 <_vfiprintf_r+0x240>)
 80057be:	429d      	cmp	r5, r3
 80057c0:	d11b      	bne.n	80057fa <_vfiprintf_r+0x56>
 80057c2:	6875      	ldr	r5, [r6, #4]
 80057c4:	6e6b      	ldr	r3, [r5, #100]	; 0x64
 80057c6:	07d9      	lsls	r1, r3, #31
 80057c8:	d405      	bmi.n	80057d6 <_vfiprintf_r+0x32>
 80057ca:	89ab      	ldrh	r3, [r5, #12]
 80057cc:	059a      	lsls	r2, r3, #22
 80057ce:	d402      	bmi.n	80057d6 <_vfiprintf_r+0x32>
 80057d0:	6da8      	ldr	r0, [r5, #88]	; 0x58
 80057d2:	f7ff ff63 	bl	800569c <__retarget_lock_acquire_recursive>
 80057d6:	89ab      	ldrh	r3, [r5, #12]
 80057d8:	071b      	lsls	r3, r3, #28
 80057da:	d501      	bpl.n	80057e0 <_vfiprintf_r+0x3c>
 80057dc:	692b      	ldr	r3, [r5, #16]
 80057de:	b9eb      	cbnz	r3, 800581c <_vfiprintf_r+0x78>
 80057e0:	4629      	mov	r1, r5
 80057e2:	4630      	mov	r0, r6
 80057e4:	f000 fb5c 	bl	8005ea0 <__swsetup_r>
 80057e8:	b1c0      	cbz	r0, 800581c <_vfiprintf_r+0x78>
 80057ea:	6e6b      	ldr	r3, [r5, #100]	; 0x64
 80057ec:	07dc      	lsls	r4, r3, #31
 80057ee:	d50e      	bpl.n	800580e <_vfiprintf_r+0x6a>
 80057f0:	f04f 30ff 	mov.w	r0, #4294967295
 80057f4:	b01d      	add	sp, #116	; 0x74
 80057f6:	e8bd 8ff0 	ldmia.w	sp!, {r4, r5, r6, r7, r8, r9, sl, fp, pc}
 80057fa:	4b7b      	ldr	r3, [pc, #492]	; (80059e8 <_vfiprintf_r+0x244>)
 80057fc:	429d      	cmp	r5, r3
 80057fe:	d101      	bne.n	8005804 <_vfiprintf_r+0x60>
 8005800:	68b5      	ldr	r5, [r6, #8]
 8005802:	e7df      	b.n	80057c4 <_vfiprintf_r+0x20>
 8005804:	4b79      	ldr	r3, [pc, #484]	; (80059ec <_vfiprintf_r+0x248>)
 8005806:	429d      	cmp	r5, r3
 8005808:	bf08      	it	eq
 800580a:	68f5      	ldreq	r5, [r6, #12]
 800580c:	e7da      	b.n	80057c4 <_vfiprintf_r+0x20>
 800580e:	89ab      	ldrh	r3, [r5, #12]
 8005810:	0598      	lsls	r0, r3, #22
 8005812:	d4ed      	bmi.n	80057f0 <_vfiprintf_r+0x4c>
 8005814:	6da8      	ldr	r0, [r5, #88]	; 0x58
 8005816:	f7ff ff42 	bl	800569e <__retarget_lock_release_recursive>
 800581a:	e7e9      	b.n	80057f0 <_vfiprintf_r+0x4c>
 800581c:	2300      	movs	r3, #0
 800581e:	9309      	str	r3, [sp, #36]	; 0x24
 8005820:	2320      	movs	r3, #32
 8005822:	f88d 3029 	strb.w	r3, [sp, #41]	; 0x29
 8005826:	2330      	movs	r3, #48	; 0x30
 8005828:	f04f 0901 	mov.w	r9, #1
 800582c:	f8cd 800c 	str.w	r8, [sp, #12]
 8005830:	f8df 81bc 	ldr.w	r8, [pc, #444]	; 80059f0 <_vfiprintf_r+0x24c>
 8005834:	f88d 302a 	strb.w	r3, [sp, #42]	; 0x2a
 8005838:	4623      	mov	r3, r4
 800583a:	469a      	mov	sl, r3
 800583c:	f813 2b01 	ldrb.w	r2, [r3], #1
 8005840:	b10a      	cbz	r2, 8005846 <_vfiprintf_r+0xa2>
 8005842:	2a25      	cmp	r2, #37	; 0x25
 8005844:	d1f9      	bne.n	800583a <_vfiprintf_r+0x96>
 8005846:	ebba 0b04 	subs.w	fp, sl, r4
 800584a:	d00b      	beq.n	8005864 <_vfiprintf_r+0xc0>
 800584c:	465b      	mov	r3, fp
 800584e:	4622      	mov	r2, r4
 8005850:	4629      	mov	r1, r5
 8005852:	4630      	mov	r0, r6
 8005854:	f7ff ff93 	bl	800577e <__sfputs_r>
 8005858:	3001      	adds	r0, #1
 800585a:	f000 80aa 	beq.w	80059b2 <_vfiprintf_r+0x20e>
 800585e:	9a09      	ldr	r2, [sp, #36]	; 0x24
 8005860:	445a      	add	r2, fp
 8005862:	9209      	str	r2, [sp, #36]	; 0x24
 8005864:	f89a 3000 	ldrb.w	r3, [sl]
 8005868:	2b00      	cmp	r3, #0
 800586a:	f000 80a2 	beq.w	80059b2 <_vfiprintf_r+0x20e>
 800586e:	2300      	movs	r3, #0
 8005870:	f04f 32ff 	mov.w	r2, #4294967295
 8005874:	e9cd 2305 	strd	r2, r3, [sp, #20]
 8005878:	f10a 0a01 	add.w	sl, sl, #1
 800587c:	9304      	str	r3, [sp, #16]
 800587e:	9307      	str	r3, [sp, #28]
 8005880:	f88d 3053 	strb.w	r3, [sp, #83]	; 0x53
 8005884:	931a      	str	r3, [sp, #104]	; 0x68
 8005886:	4654      	mov	r4, sl
 8005888:	2205      	movs	r2, #5
 800588a:	f814 1b01 	ldrb.w	r1, [r4], #1
 800588e:	4858      	ldr	r0, [pc, #352]	; (80059f0 <_vfiprintf_r+0x24c>)
 8005890:	f000 fcbc 	bl	800620c <memchr>
 8005894:	9a04      	ldr	r2, [sp, #16]
 8005896:	b9d8      	cbnz	r0, 80058d0 <_vfiprintf_r+0x12c>
 8005898:	06d1      	lsls	r1, r2, #27
 800589a:	bf44      	itt	mi
 800589c:	2320      	movmi	r3, #32
 800589e:	f88d 3053 	strbmi.w	r3, [sp, #83]	; 0x53
 80058a2:	0713      	lsls	r3, r2, #28
 80058a4:	bf44      	itt	mi
 80058a6:	232b      	movmi	r3, #43	; 0x2b
 80058a8:	f88d 3053 	strbmi.w	r3, [sp, #83]	; 0x53
 80058ac:	f89a 3000 	ldrb.w	r3, [sl]
 80058b0:	2b2a      	cmp	r3, #42	; 0x2a
 80058b2:	d015      	beq.n	80058e0 <_vfiprintf_r+0x13c>
 80058b4:	4654      	mov	r4, sl
 80058b6:	2000      	movs	r0, #0
 80058b8:	f04f 0c0a 	mov.w	ip, #10
 80058bc:	9a07      	ldr	r2, [sp, #28]
 80058be:	4621      	mov	r1, r4
 80058c0:	f811 3b01 	ldrb.w	r3, [r1], #1
 80058c4:	3b30      	subs	r3, #48	; 0x30
 80058c6:	2b09      	cmp	r3, #9
 80058c8:	d94e      	bls.n	8005968 <_vfiprintf_r+0x1c4>
 80058ca:	b1b0      	cbz	r0, 80058fa <_vfiprintf_r+0x156>
 80058cc:	9207      	str	r2, [sp, #28]
 80058ce:	e014      	b.n	80058fa <_vfiprintf_r+0x156>
 80058d0:	eba0 0308 	sub.w	r3, r0, r8
 80058d4:	fa09 f303 	lsl.w	r3, r9, r3
 80058d8:	4313      	orrs	r3, r2
 80058da:	46a2      	mov	sl, r4
 80058dc:	9304      	str	r3, [sp, #16]
 80058de:	e7d2      	b.n	8005886 <_vfiprintf_r+0xe2>
 80058e0:	9b03      	ldr	r3, [sp, #12]
 80058e2:	1d19      	adds	r1, r3, #4
 80058e4:	681b      	ldr	r3, [r3, #0]
 80058e6:	9103      	str	r1, [sp, #12]
 80058e8:	2b00      	cmp	r3, #0
 80058ea:	bfbb      	ittet	lt
 80058ec:	425b      	neglt	r3, r3
 80058ee:	f042 0202 	orrlt.w	r2, r2, #2
 80058f2:	9307      	strge	r3, [sp, #28]
 80058f4:	9307      	strlt	r3, [sp, #28]
 80058f6:	bfb8      	it	lt
 80058f8:	9204      	strlt	r2, [sp, #16]
 80058fa:	7823      	ldrb	r3, [r4, #0]
 80058fc:	2b2e      	cmp	r3, #46	; 0x2e
 80058fe:	d10c      	bne.n	800591a <_vfiprintf_r+0x176>
 8005900:	7863      	ldrb	r3, [r4, #1]
 8005902:	2b2a      	cmp	r3, #42	; 0x2a
 8005904:	d135      	bne.n	8005972 <_vfiprintf_r+0x1ce>
 8005906:	9b03      	ldr	r3, [sp, #12]
 8005908:	3402      	adds	r4, #2
 800590a:	1d1a      	adds	r2, r3, #4
 800590c:	681b      	ldr	r3, [r3, #0]
 800590e:	9203      	str	r2, [sp, #12]
 8005910:	2b00      	cmp	r3, #0
 8005912:	bfb8      	it	lt
 8005914:	f04f 33ff 	movlt.w	r3, #4294967295
 8005918:	9305      	str	r3, [sp, #20]
 800591a:	f8df a0e4 	ldr.w	sl, [pc, #228]	; 8005a00 <_vfiprintf_r+0x25c>
 800591e:	2203      	movs	r2, #3
 8005920:	4650      	mov	r0, sl
 8005922:	7821      	ldrb	r1, [r4, #0]
 8005924:	f000 fc72 	bl	800620c <memchr>
 8005928:	b140      	cbz	r0, 800593c <_vfiprintf_r+0x198>
 800592a:	2340      	movs	r3, #64	; 0x40
 800592c:	eba0 000a 	sub.w	r0, r0, sl
 8005930:	fa03 f000 	lsl.w	r0, r3, r0
 8005934:	9b04      	ldr	r3, [sp, #16]
 8005936:	3401      	adds	r4, #1
 8005938:	4303      	orrs	r3, r0
 800593a:	9304      	str	r3, [sp, #16]
 800593c:	f814 1b01 	ldrb.w	r1, [r4], #1
 8005940:	2206      	movs	r2, #6
 8005942:	482c      	ldr	r0, [pc, #176]	; (80059f4 <_vfiprintf_r+0x250>)
 8005944:	f88d 1028 	strb.w	r1, [sp, #40]	; 0x28
 8005948:	f000 fc60 	bl	800620c <memchr>
 800594c:	2800      	cmp	r0, #0
 800594e:	d03f      	beq.n	80059d0 <_vfiprintf_r+0x22c>
 8005950:	4b29      	ldr	r3, [pc, #164]	; (80059f8 <_vfiprintf_r+0x254>)
 8005952:	bb1b      	cbnz	r3, 800599c <_vfiprintf_r+0x1f8>
 8005954:	9b03      	ldr	r3, [sp, #12]
 8005956:	3307      	adds	r3, #7
 8005958:	f023 0307 	bic.w	r3, r3, #7
 800595c:	3308      	adds	r3, #8
 800595e:	9303      	str	r3, [sp, #12]
 8005960:	9b09      	ldr	r3, [sp, #36]	; 0x24
 8005962:	443b      	add	r3, r7
 8005964:	9309      	str	r3, [sp, #36]	; 0x24
 8005966:	e767      	b.n	8005838 <_vfiprintf_r+0x94>
 8005968:	460c      	mov	r4, r1
 800596a:	2001      	movs	r0, #1
 800596c:	fb0c 3202 	mla	r2, ip, r2, r3
 8005970:	e7a5      	b.n	80058be <_vfiprintf_r+0x11a>
 8005972:	2300      	movs	r3, #0
 8005974:	f04f 0c0a 	mov.w	ip, #10
 8005978:	4619      	mov	r1, r3
 800597a:	3401      	adds	r4, #1
 800597c:	9305      	str	r3, [sp, #20]
 800597e:	4620      	mov	r0, r4
 8005980:	f810 2b01 	ldrb.w	r2, [r0], #1
 8005984:	3a30      	subs	r2, #48	; 0x30
 8005986:	2a09      	cmp	r2, #9
 8005988:	d903      	bls.n	8005992 <_vfiprintf_r+0x1ee>
 800598a:	2b00      	cmp	r3, #0
 800598c:	d0c5      	beq.n	800591a <_vfiprintf_r+0x176>
 800598e:	9105      	str	r1, [sp, #20]
 8005990:	e7c3      	b.n	800591a <_vfiprintf_r+0x176>
 8005992:	4604      	mov	r4, r0
 8005994:	2301      	movs	r3, #1
 8005996:	fb0c 2101 	mla	r1, ip, r1, r2
 800599a:	e7f0      	b.n	800597e <_vfiprintf_r+0x1da>
 800599c:	ab03      	add	r3, sp, #12
 800599e:	9300      	str	r3, [sp, #0]
 80059a0:	462a      	mov	r2, r5
 80059a2:	4630      	mov	r0, r6
 80059a4:	4b15      	ldr	r3, [pc, #84]	; (80059fc <_vfiprintf_r+0x258>)
 80059a6:	a904      	add	r1, sp, #16
 80059a8:	f3af 8000 	nop.w
 80059ac:	4607      	mov	r7, r0
 80059ae:	1c78      	adds	r0, r7, #1
 80059b0:	d1d6      	bne.n	8005960 <_vfiprintf_r+0x1bc>
 80059b2:	6e6b      	ldr	r3, [r5, #100]	; 0x64
 80059b4:	07d9      	lsls	r1, r3, #31
 80059b6:	d405      	bmi.n	80059c4 <_vfiprintf_r+0x220>
 80059b8:	89ab      	ldrh	r3, [r5, #12]
 80059ba:	059a      	lsls	r2, r3, #22
 80059bc:	d402      	bmi.n	80059c4 <_vfiprintf_r+0x220>
 80059be:	6da8      	ldr	r0, [r5, #88]	; 0x58
 80059c0:	f7ff fe6d 	bl	800569e <__retarget_lock_release_recursive>
 80059c4:	89ab      	ldrh	r3, [r5, #12]
 80059c6:	065b      	lsls	r3, r3, #25
 80059c8:	f53f af12 	bmi.w	80057f0 <_vfiprintf_r+0x4c>
 80059cc:	9809      	ldr	r0, [sp, #36]	; 0x24
 80059ce:	e711      	b.n	80057f4 <_vfiprintf_r+0x50>
 80059d0:	ab03      	add	r3, sp, #12
 80059d2:	9300      	str	r3, [sp, #0]
 80059d4:	462a      	mov	r2, r5
 80059d6:	4630      	mov	r0, r6
 80059d8:	4b08      	ldr	r3, [pc, #32]	; (80059fc <_vfiprintf_r+0x258>)
 80059da:	a904      	add	r1, sp, #16
 80059dc:	f000 f882 	bl	8005ae4 <_printf_i>
 80059e0:	e7e4      	b.n	80059ac <_vfiprintf_r+0x208>
 80059e2:	bf00      	nop
 80059e4:	08007944 	.word	0x08007944
 80059e8:	08007964 	.word	0x08007964
 80059ec:	08007924 	.word	0x08007924
 80059f0:	08007984 	.word	0x08007984
 80059f4:	0800798e 	.word	0x0800798e
 80059f8:	00000000 	.word	0x00000000
 80059fc:	0800577f 	.word	0x0800577f
 8005a00:	0800798a 	.word	0x0800798a

08005a04 <_printf_common>:
 8005a04:	e92d 47f0 	stmdb	sp!, {r4, r5, r6, r7, r8, r9, sl, lr}
 8005a08:	4616      	mov	r6, r2
 8005a0a:	4699      	mov	r9, r3
 8005a0c:	688a      	ldr	r2, [r1, #8]
 8005a0e:	690b      	ldr	r3, [r1, #16]
 8005a10:	4607      	mov	r7, r0
 8005a12:	4293      	cmp	r3, r2
 8005a14:	bfb8      	it	lt
 8005a16:	4613      	movlt	r3, r2
 8005a18:	6033      	str	r3, [r6, #0]
 8005a1a:	f891 2043 	ldrb.w	r2, [r1, #67]	; 0x43
 8005a1e:	460c      	mov	r4, r1
 8005a20:	f8dd 8020 	ldr.w	r8, [sp, #32]
 8005a24:	b10a      	cbz	r2, 8005a2a <_printf_common+0x26>
 8005a26:	3301      	adds	r3, #1
 8005a28:	6033      	str	r3, [r6, #0]
 8005a2a:	6823      	ldr	r3, [r4, #0]
 8005a2c:	0699      	lsls	r1, r3, #26
 8005a2e:	bf42      	ittt	mi
 8005a30:	6833      	ldrmi	r3, [r6, #0]
 8005a32:	3302      	addmi	r3, #2
 8005a34:	6033      	strmi	r3, [r6, #0]
 8005a36:	6825      	ldr	r5, [r4, #0]
 8005a38:	f015 0506 	ands.w	r5, r5, #6
 8005a3c:	d106      	bne.n	8005a4c <_printf_common+0x48>
 8005a3e:	f104 0a19 	add.w	sl, r4, #25
 8005a42:	68e3      	ldr	r3, [r4, #12]
 8005a44:	6832      	ldr	r2, [r6, #0]
 8005a46:	1a9b      	subs	r3, r3, r2
 8005a48:	42ab      	cmp	r3, r5
 8005a4a:	dc28      	bgt.n	8005a9e <_printf_common+0x9a>
 8005a4c:	f894 2043 	ldrb.w	r2, [r4, #67]	; 0x43
 8005a50:	1e13      	subs	r3, r2, #0
 8005a52:	6822      	ldr	r2, [r4, #0]
 8005a54:	bf18      	it	ne
 8005a56:	2301      	movne	r3, #1
 8005a58:	0692      	lsls	r2, r2, #26
 8005a5a:	d42d      	bmi.n	8005ab8 <_printf_common+0xb4>
 8005a5c:	4649      	mov	r1, r9
 8005a5e:	4638      	mov	r0, r7
 8005a60:	f104 0243 	add.w	r2, r4, #67	; 0x43
 8005a64:	47c0      	blx	r8
 8005a66:	3001      	adds	r0, #1
 8005a68:	d020      	beq.n	8005aac <_printf_common+0xa8>
 8005a6a:	6823      	ldr	r3, [r4, #0]
 8005a6c:	68e5      	ldr	r5, [r4, #12]
 8005a6e:	f003 0306 	and.w	r3, r3, #6
 8005a72:	2b04      	cmp	r3, #4
 8005a74:	bf18      	it	ne
 8005a76:	2500      	movne	r5, #0
 8005a78:	6832      	ldr	r2, [r6, #0]
 8005a7a:	f04f 0600 	mov.w	r6, #0
 8005a7e:	68a3      	ldr	r3, [r4, #8]
 8005a80:	bf08      	it	eq
 8005a82:	1aad      	subeq	r5, r5, r2
 8005a84:	6922      	ldr	r2, [r4, #16]
 8005a86:	bf08      	it	eq
 8005a88:	ea25 75e5 	biceq.w	r5, r5, r5, asr #31
 8005a8c:	4293      	cmp	r3, r2
 8005a8e:	bfc4      	itt	gt
 8005a90:	1a9b      	subgt	r3, r3, r2
 8005a92:	18ed      	addgt	r5, r5, r3
 8005a94:	341a      	adds	r4, #26
 8005a96:	42b5      	cmp	r5, r6
 8005a98:	d11a      	bne.n	8005ad0 <_printf_common+0xcc>
 8005a9a:	2000      	movs	r0, #0
 8005a9c:	e008      	b.n	8005ab0 <_printf_common+0xac>
 8005a9e:	2301      	movs	r3, #1
 8005aa0:	4652      	mov	r2, sl
 8005aa2:	4649      	mov	r1, r9
 8005aa4:	4638      	mov	r0, r7
 8005aa6:	47c0      	blx	r8
 8005aa8:	3001      	adds	r0, #1
 8005aaa:	d103      	bne.n	8005ab4 <_printf_common+0xb0>
 8005aac:	f04f 30ff 	mov.w	r0, #4294967295
 8005ab0:	e8bd 87f0 	ldmia.w	sp!, {r4, r5, r6, r7, r8, r9, sl, pc}
 8005ab4:	3501      	adds	r5, #1
 8005ab6:	e7c4      	b.n	8005a42 <_printf_common+0x3e>
 8005ab8:	2030      	movs	r0, #48	; 0x30
 8005aba:	18e1      	adds	r1, r4, r3
 8005abc:	f881 0043 	strb.w	r0, [r1, #67]	; 0x43
 8005ac0:	1c5a      	adds	r2, r3, #1
 8005ac2:	f894 1045 	ldrb.w	r1, [r4, #69]	; 0x45
 8005ac6:	4422      	add	r2, r4
 8005ac8:	3302      	adds	r3, #2
 8005aca:	f882 1043 	strb.w	r1, [r2, #67]	; 0x43
 8005ace:	e7c5      	b.n	8005a5c <_printf_common+0x58>
 8005ad0:	2301      	movs	r3, #1
 8005ad2:	4622      	mov	r2, r4
 8005ad4:	4649      	mov	r1, r9
 8005ad6:	4638      	mov	r0, r7
 8005ad8:	47c0      	blx	r8
 8005ada:	3001      	adds	r0, #1
 8005adc:	d0e6      	beq.n	8005aac <_printf_common+0xa8>
 8005ade:	3601      	adds	r6, #1
 8005ae0:	e7d9      	b.n	8005a96 <_printf_common+0x92>
	...

08005ae4 <_printf_i>:
 8005ae4:	e92d 47ff 	stmdb	sp!, {r0, r1, r2, r3, r4, r5, r6, r7, r8, r9, sl, lr}
 8005ae8:	460c      	mov	r4, r1
 8005aea:	7e27      	ldrb	r7, [r4, #24]
 8005aec:	4691      	mov	r9, r2
 8005aee:	2f78      	cmp	r7, #120	; 0x78
 8005af0:	4680      	mov	r8, r0
 8005af2:	469a      	mov	sl, r3
 8005af4:	990c      	ldr	r1, [sp, #48]	; 0x30
 8005af6:	f104 0243 	add.w	r2, r4, #67	; 0x43
 8005afa:	d807      	bhi.n	8005b0c <_printf_i+0x28>
 8005afc:	2f62      	cmp	r7, #98	; 0x62
 8005afe:	d80a      	bhi.n	8005b16 <_printf_i+0x32>
 8005b00:	2f00      	cmp	r7, #0
 8005b02:	f000 80d9 	beq.w	8005cb8 <_printf_i+0x1d4>
 8005b06:	2f58      	cmp	r7, #88	; 0x58
 8005b08:	f000 80a4 	beq.w	8005c54 <_printf_i+0x170>
 8005b0c:	f104 0642 	add.w	r6, r4, #66	; 0x42
 8005b10:	f884 7042 	strb.w	r7, [r4, #66]	; 0x42
 8005b14:	e03a      	b.n	8005b8c <_printf_i+0xa8>
 8005b16:	f1a7 0363 	sub.w	r3, r7, #99	; 0x63
 8005b1a:	2b15      	cmp	r3, #21
 8005b1c:	d8f6      	bhi.n	8005b0c <_printf_i+0x28>
 8005b1e:	a001      	add	r0, pc, #4	; (adr r0, 8005b24 <_printf_i+0x40>)
 8005b20:	f850 f023 	ldr.w	pc, [r0, r3, lsl #2]
 8005b24:	08005b7d 	.word	0x08005b7d
 8005b28:	08005b91 	.word	0x08005b91
 8005b2c:	08005b0d 	.word	0x08005b0d
 8005b30:	08005b0d 	.word	0x08005b0d
 8005b34:	08005b0d 	.word	0x08005b0d
 8005b38:	08005b0d 	.word	0x08005b0d
 8005b3c:	08005b91 	.word	0x08005b91
 8005b40:	08005b0d 	.word	0x08005b0d
 8005b44:	08005b0d 	.word	0x08005b0d
 8005b48:	08005b0d 	.word	0x08005b0d
 8005b4c:	08005b0d 	.word	0x08005b0d
 8005b50:	08005c9f 	.word	0x08005c9f
 8005b54:	08005bc1 	.word	0x08005bc1
 8005b58:	08005c81 	.word	0x08005c81
 8005b5c:	08005b0d 	.word	0x08005b0d
 8005b60:	08005b0d 	.word	0x08005b0d
 8005b64:	08005cc1 	.word	0x08005cc1
 8005b68:	08005b0d 	.word	0x08005b0d
 8005b6c:	08005bc1 	.word	0x08005bc1
 8005b70:	08005b0d 	.word	0x08005b0d
 8005b74:	08005b0d 	.word	0x08005b0d
 8005b78:	08005c89 	.word	0x08005c89
 8005b7c:	680b      	ldr	r3, [r1, #0]
 8005b7e:	f104 0642 	add.w	r6, r4, #66	; 0x42
 8005b82:	1d1a      	adds	r2, r3, #4
 8005b84:	681b      	ldr	r3, [r3, #0]
 8005b86:	600a      	str	r2, [r1, #0]
 8005b88:	f884 3042 	strb.w	r3, [r4, #66]	; 0x42
 8005b8c:	2301      	movs	r3, #1
 8005b8e:	e0a4      	b.n	8005cda <_printf_i+0x1f6>
 8005b90:	6825      	ldr	r5, [r4, #0]
 8005b92:	6808      	ldr	r0, [r1, #0]
 8005b94:	062e      	lsls	r6, r5, #24
 8005b96:	f100 0304 	add.w	r3, r0, #4
 8005b9a:	d50a      	bpl.n	8005bb2 <_printf_i+0xce>
 8005b9c:	6805      	ldr	r5, [r0, #0]
 8005b9e:	600b      	str	r3, [r1, #0]
 8005ba0:	2d00      	cmp	r5, #0
 8005ba2:	da03      	bge.n	8005bac <_printf_i+0xc8>
 8005ba4:	232d      	movs	r3, #45	; 0x2d
 8005ba6:	426d      	negs	r5, r5
 8005ba8:	f884 3043 	strb.w	r3, [r4, #67]	; 0x43
 8005bac:	230a      	movs	r3, #10
 8005bae:	485e      	ldr	r0, [pc, #376]	; (8005d28 <_printf_i+0x244>)
 8005bb0:	e019      	b.n	8005be6 <_printf_i+0x102>
 8005bb2:	f015 0f40 	tst.w	r5, #64	; 0x40
 8005bb6:	6805      	ldr	r5, [r0, #0]
 8005bb8:	600b      	str	r3, [r1, #0]
 8005bba:	bf18      	it	ne
 8005bbc:	b22d      	sxthne	r5, r5
 8005bbe:	e7ef      	b.n	8005ba0 <_printf_i+0xbc>
 8005bc0:	680b      	ldr	r3, [r1, #0]
 8005bc2:	6825      	ldr	r5, [r4, #0]
 8005bc4:	1d18      	adds	r0, r3, #4
 8005bc6:	6008      	str	r0, [r1, #0]
 8005bc8:	0628      	lsls	r0, r5, #24
 8005bca:	d501      	bpl.n	8005bd0 <_printf_i+0xec>
 8005bcc:	681d      	ldr	r5, [r3, #0]
 8005bce:	e002      	b.n	8005bd6 <_printf_i+0xf2>
 8005bd0:	0669      	lsls	r1, r5, #25
 8005bd2:	d5fb      	bpl.n	8005bcc <_printf_i+0xe8>
 8005bd4:	881d      	ldrh	r5, [r3, #0]
 8005bd6:	2f6f      	cmp	r7, #111	; 0x6f
 8005bd8:	bf0c      	ite	eq
 8005bda:	2308      	moveq	r3, #8
 8005bdc:	230a      	movne	r3, #10
 8005bde:	4852      	ldr	r0, [pc, #328]	; (8005d28 <_printf_i+0x244>)
 8005be0:	2100      	movs	r1, #0
 8005be2:	f884 1043 	strb.w	r1, [r4, #67]	; 0x43
 8005be6:	6866      	ldr	r6, [r4, #4]
 8005be8:	2e00      	cmp	r6, #0
 8005bea:	bfa8      	it	ge
 8005bec:	6821      	ldrge	r1, [r4, #0]
 8005bee:	60a6      	str	r6, [r4, #8]
 8005bf0:	bfa4      	itt	ge
 8005bf2:	f021 0104 	bicge.w	r1, r1, #4
 8005bf6:	6021      	strge	r1, [r4, #0]
 8005bf8:	b90d      	cbnz	r5, 8005bfe <_printf_i+0x11a>
 8005bfa:	2e00      	cmp	r6, #0
 8005bfc:	d04d      	beq.n	8005c9a <_printf_i+0x1b6>
 8005bfe:	4616      	mov	r6, r2
 8005c00:	fbb5 f1f3 	udiv	r1, r5, r3
 8005c04:	fb03 5711 	mls	r7, r3, r1, r5
 8005c08:	5dc7      	ldrb	r7, [r0, r7]
 8005c0a:	f806 7d01 	strb.w	r7, [r6, #-1]!
 8005c0e:	462f      	mov	r7, r5
 8005c10:	42bb      	cmp	r3, r7
 8005c12:	460d      	mov	r5, r1
 8005c14:	d9f4      	bls.n	8005c00 <_printf_i+0x11c>
 8005c16:	2b08      	cmp	r3, #8
 8005c18:	d10b      	bne.n	8005c32 <_printf_i+0x14e>
 8005c1a:	6823      	ldr	r3, [r4, #0]
 8005c1c:	07df      	lsls	r7, r3, #31
 8005c1e:	d508      	bpl.n	8005c32 <_printf_i+0x14e>
 8005c20:	6923      	ldr	r3, [r4, #16]
 8005c22:	6861      	ldr	r1, [r4, #4]
 8005c24:	4299      	cmp	r1, r3
 8005c26:	bfde      	ittt	le
 8005c28:	2330      	movle	r3, #48	; 0x30
 8005c2a:	f806 3c01 	strble.w	r3, [r6, #-1]
 8005c2e:	f106 36ff 	addle.w	r6, r6, #4294967295
 8005c32:	1b92      	subs	r2, r2, r6
 8005c34:	6122      	str	r2, [r4, #16]
 8005c36:	464b      	mov	r3, r9
 8005c38:	4621      	mov	r1, r4
 8005c3a:	4640      	mov	r0, r8
 8005c3c:	f8cd a000 	str.w	sl, [sp]
 8005c40:	aa03      	add	r2, sp, #12
 8005c42:	f7ff fedf 	bl	8005a04 <_printf_common>
 8005c46:	3001      	adds	r0, #1
 8005c48:	d14c      	bne.n	8005ce4 <_printf_i+0x200>
 8005c4a:	f04f 30ff 	mov.w	r0, #4294967295
 8005c4e:	b004      	add	sp, #16
 8005c50:	e8bd 87f0 	ldmia.w	sp!, {r4, r5, r6, r7, r8, r9, sl, pc}
 8005c54:	4834      	ldr	r0, [pc, #208]	; (8005d28 <_printf_i+0x244>)
 8005c56:	f884 7045 	strb.w	r7, [r4, #69]	; 0x45
 8005c5a:	680e      	ldr	r6, [r1, #0]
 8005c5c:	6823      	ldr	r3, [r4, #0]
 8005c5e:	f856 5b04 	ldr.w	r5, [r6], #4
 8005c62:	061f      	lsls	r7, r3, #24
 8005c64:	600e      	str	r6, [r1, #0]
 8005c66:	d514      	bpl.n	8005c92 <_printf_i+0x1ae>
 8005c68:	07d9      	lsls	r1, r3, #31
 8005c6a:	bf44      	itt	mi
 8005c6c:	f043 0320 	orrmi.w	r3, r3, #32
 8005c70:	6023      	strmi	r3, [r4, #0]
 8005c72:	b91d      	cbnz	r5, 8005c7c <_printf_i+0x198>
 8005c74:	6823      	ldr	r3, [r4, #0]
 8005c76:	f023 0320 	bic.w	r3, r3, #32
 8005c7a:	6023      	str	r3, [r4, #0]
 8005c7c:	2310      	movs	r3, #16
 8005c7e:	e7af      	b.n	8005be0 <_printf_i+0xfc>
 8005c80:	6823      	ldr	r3, [r4, #0]
 8005c82:	f043 0320 	orr.w	r3, r3, #32
 8005c86:	6023      	str	r3, [r4, #0]
 8005c88:	2378      	movs	r3, #120	; 0x78
 8005c8a:	4828      	ldr	r0, [pc, #160]	; (8005d2c <_printf_i+0x248>)
 8005c8c:	f884 3045 	strb.w	r3, [r4, #69]	; 0x45
 8005c90:	e7e3      	b.n	8005c5a <_printf_i+0x176>
 8005c92:	065e      	lsls	r6, r3, #25
 8005c94:	bf48      	it	mi
 8005c96:	b2ad      	uxthmi	r5, r5
 8005c98:	e7e6      	b.n	8005c68 <_printf_i+0x184>
 8005c9a:	4616      	mov	r6, r2
 8005c9c:	e7bb      	b.n	8005c16 <_printf_i+0x132>
 8005c9e:	680b      	ldr	r3, [r1, #0]
 8005ca0:	6826      	ldr	r6, [r4, #0]
 8005ca2:	1d1d      	adds	r5, r3, #4
 8005ca4:	6960      	ldr	r0, [r4, #20]
 8005ca6:	600d      	str	r5, [r1, #0]
 8005ca8:	0635      	lsls	r5, r6, #24
 8005caa:	681b      	ldr	r3, [r3, #0]
 8005cac:	d501      	bpl.n	8005cb2 <_printf_i+0x1ce>
 8005cae:	6018      	str	r0, [r3, #0]
 8005cb0:	e002      	b.n	8005cb8 <_printf_i+0x1d4>
 8005cb2:	0671      	lsls	r1, r6, #25
 8005cb4:	d5fb      	bpl.n	8005cae <_printf_i+0x1ca>
 8005cb6:	8018      	strh	r0, [r3, #0]
 8005cb8:	2300      	movs	r3, #0
 8005cba:	4616      	mov	r6, r2
 8005cbc:	6123      	str	r3, [r4, #16]
 8005cbe:	e7ba      	b.n	8005c36 <_printf_i+0x152>
 8005cc0:	680b      	ldr	r3, [r1, #0]
 8005cc2:	1d1a      	adds	r2, r3, #4
 8005cc4:	600a      	str	r2, [r1, #0]
 8005cc6:	681e      	ldr	r6, [r3, #0]
 8005cc8:	2100      	movs	r1, #0
 8005cca:	4630      	mov	r0, r6
 8005ccc:	6862      	ldr	r2, [r4, #4]
 8005cce:	f000 fa9d 	bl	800620c <memchr>
 8005cd2:	b108      	cbz	r0, 8005cd8 <_printf_i+0x1f4>
 8005cd4:	1b80      	subs	r0, r0, r6
 8005cd6:	6060      	str	r0, [r4, #4]
 8005cd8:	6863      	ldr	r3, [r4, #4]
 8005cda:	6123      	str	r3, [r4, #16]
 8005cdc:	2300      	movs	r3, #0
 8005cde:	f884 3043 	strb.w	r3, [r4, #67]	; 0x43
 8005ce2:	e7a8      	b.n	8005c36 <_printf_i+0x152>
 8005ce4:	4632      	mov	r2, r6
 8005ce6:	4649      	mov	r1, r9
 8005ce8:	4640      	mov	r0, r8
 8005cea:	6923      	ldr	r3, [r4, #16]
 8005cec:	47d0      	blx	sl
 8005cee:	3001      	adds	r0, #1
 8005cf0:	d0ab      	beq.n	8005c4a <_printf_i+0x166>
 8005cf2:	6823      	ldr	r3, [r4, #0]
 8005cf4:	079b      	lsls	r3, r3, #30
 8005cf6:	d413      	bmi.n	8005d20 <_printf_i+0x23c>
 8005cf8:	68e0      	ldr	r0, [r4, #12]
 8005cfa:	9b03      	ldr	r3, [sp, #12]
 8005cfc:	4298      	cmp	r0, r3
 8005cfe:	bfb8      	it	lt
 8005d00:	4618      	movlt	r0, r3
 8005d02:	e7a4      	b.n	8005c4e <_printf_i+0x16a>
 8005d04:	2301      	movs	r3, #1
 8005d06:	4632      	mov	r2, r6
 8005d08:	4649      	mov	r1, r9
 8005d0a:	4640      	mov	r0, r8
 8005d0c:	47d0      	blx	sl
 8005d0e:	3001      	adds	r0, #1
 8005d10:	d09b      	beq.n	8005c4a <_printf_i+0x166>
 8005d12:	3501      	adds	r5, #1
 8005d14:	68e3      	ldr	r3, [r4, #12]
 8005d16:	9903      	ldr	r1, [sp, #12]
 8005d18:	1a5b      	subs	r3, r3, r1
 8005d1a:	42ab      	cmp	r3, r5
 8005d1c:	dcf2      	bgt.n	8005d04 <_printf_i+0x220>
 8005d1e:	e7eb      	b.n	8005cf8 <_printf_i+0x214>
 8005d20:	2500      	movs	r5, #0
 8005d22:	f104 0619 	add.w	r6, r4, #25
 8005d26:	e7f5      	b.n	8005d14 <_printf_i+0x230>
 8005d28:	08007995 	.word	0x08007995
 8005d2c:	080079a6 	.word	0x080079a6

08005d30 <_sbrk_r>:
 8005d30:	b538      	push	{r3, r4, r5, lr}
 8005d32:	2300      	movs	r3, #0
 8005d34:	4d05      	ldr	r5, [pc, #20]	; (8005d4c <_sbrk_r+0x1c>)
 8005d36:	4604      	mov	r4, r0
 8005d38:	4608      	mov	r0, r1
 8005d3a:	602b      	str	r3, [r5, #0]
 8005d3c:	f7fc f856 	bl	8001dec <_sbrk>
 8005d40:	1c43      	adds	r3, r0, #1
 8005d42:	d102      	bne.n	8005d4a <_sbrk_r+0x1a>
 8005d44:	682b      	ldr	r3, [r5, #0]
 8005d46:	b103      	cbz	r3, 8005d4a <_sbrk_r+0x1a>
 8005d48:	6023      	str	r3, [r4, #0]
 8005d4a:	bd38      	pop	{r3, r4, r5, pc}
 8005d4c:	2000061c 	.word	0x2000061c

08005d50 <__sread>:
 8005d50:	b510      	push	{r4, lr}
 8005d52:	460c      	mov	r4, r1
 8005d54:	f9b1 100e 	ldrsh.w	r1, [r1, #14]
 8005d58:	f000 fabe 	bl	80062d8 <_read_r>
 8005d5c:	2800      	cmp	r0, #0
 8005d5e:	bfab      	itete	ge
 8005d60:	6d63      	ldrge	r3, [r4, #84]	; 0x54
 8005d62:	89a3      	ldrhlt	r3, [r4, #12]
 8005d64:	181b      	addge	r3, r3, r0
 8005d66:	f423 5380 	biclt.w	r3, r3, #4096	; 0x1000
 8005d6a:	bfac      	ite	ge
 8005d6c:	6563      	strge	r3, [r4, #84]	; 0x54
 8005d6e:	81a3      	strhlt	r3, [r4, #12]
 8005d70:	bd10      	pop	{r4, pc}

08005d72 <__swrite>:
 8005d72:	e92d 41f0 	stmdb	sp!, {r4, r5, r6, r7, r8, lr}
 8005d76:	461f      	mov	r7, r3
 8005d78:	898b      	ldrh	r3, [r1, #12]
 8005d7a:	4605      	mov	r5, r0
 8005d7c:	05db      	lsls	r3, r3, #23
 8005d7e:	460c      	mov	r4, r1
 8005d80:	4616      	mov	r6, r2
 8005d82:	d505      	bpl.n	8005d90 <__swrite+0x1e>
 8005d84:	2302      	movs	r3, #2
 8005d86:	2200      	movs	r2, #0
 8005d88:	f9b1 100e 	ldrsh.w	r1, [r1, #14]
 8005d8c:	f000 f9c8 	bl	8006120 <_lseek_r>
 8005d90:	89a3      	ldrh	r3, [r4, #12]
 8005d92:	4632      	mov	r2, r6
 8005d94:	f423 5380 	bic.w	r3, r3, #4096	; 0x1000
 8005d98:	81a3      	strh	r3, [r4, #12]
 8005d9a:	4628      	mov	r0, r5
 8005d9c:	463b      	mov	r3, r7
 8005d9e:	f9b4 100e 	ldrsh.w	r1, [r4, #14]
 8005da2:	e8bd 41f0 	ldmia.w	sp!, {r4, r5, r6, r7, r8, lr}
 8005da6:	f000 b869 	b.w	8005e7c <_write_r>

08005daa <__sseek>:
 8005daa:	b510      	push	{r4, lr}
 8005dac:	460c      	mov	r4, r1
 8005dae:	f9b1 100e 	ldrsh.w	r1, [r1, #14]
 8005db2:	f000 f9b5 	bl	8006120 <_lseek_r>
 8005db6:	1c43      	adds	r3, r0, #1
 8005db8:	89a3      	ldrh	r3, [r4, #12]
 8005dba:	bf15      	itete	ne
 8005dbc:	6560      	strne	r0, [r4, #84]	; 0x54
 8005dbe:	f423 5380 	biceq.w	r3, r3, #4096	; 0x1000
 8005dc2:	f443 5380 	orrne.w	r3, r3, #4096	; 0x1000
 8005dc6:	81a3      	strheq	r3, [r4, #12]
 8005dc8:	bf18      	it	ne
 8005dca:	81a3      	strhne	r3, [r4, #12]
 8005dcc:	bd10      	pop	{r4, pc}

08005dce <__sclose>:
 8005dce:	f9b1 100e 	ldrsh.w	r1, [r1, #14]
 8005dd2:	f000 b8d3 	b.w	8005f7c <_close_r>
	...

08005dd8 <__swbuf_r>:
 8005dd8:	b5f8      	push	{r3, r4, r5, r6, r7, lr}
 8005dda:	460e      	mov	r6, r1
 8005ddc:	4614      	mov	r4, r2
 8005dde:	4605      	mov	r5, r0
 8005de0:	b118      	cbz	r0, 8005dea <__swbuf_r+0x12>
 8005de2:	6983      	ldr	r3, [r0, #24]
 8005de4:	b90b      	cbnz	r3, 8005dea <__swbuf_r+0x12>
 8005de6:	f7ff fbbb 	bl	8005560 <__sinit>
 8005dea:	4b21      	ldr	r3, [pc, #132]	; (8005e70 <__swbuf_r+0x98>)
 8005dec:	429c      	cmp	r4, r3
 8005dee:	d12b      	bne.n	8005e48 <__swbuf_r+0x70>
 8005df0:	686c      	ldr	r4, [r5, #4]
 8005df2:	69a3      	ldr	r3, [r4, #24]
 8005df4:	60a3      	str	r3, [r4, #8]
 8005df6:	89a3      	ldrh	r3, [r4, #12]
 8005df8:	071a      	lsls	r2, r3, #28
 8005dfa:	d52f      	bpl.n	8005e5c <__swbuf_r+0x84>
 8005dfc:	6923      	ldr	r3, [r4, #16]
 8005dfe:	b36b      	cbz	r3, 8005e5c <__swbuf_r+0x84>
 8005e00:	6923      	ldr	r3, [r4, #16]
 8005e02:	6820      	ldr	r0, [r4, #0]
 8005e04:	b2f6      	uxtb	r6, r6
 8005e06:	1ac0      	subs	r0, r0, r3
 8005e08:	6963      	ldr	r3, [r4, #20]
 8005e0a:	4637      	mov	r7, r6
 8005e0c:	4283      	cmp	r3, r0
 8005e0e:	dc04      	bgt.n	8005e1a <__swbuf_r+0x42>
 8005e10:	4621      	mov	r1, r4
 8005e12:	4628      	mov	r0, r5
 8005e14:	f000 f948 	bl	80060a8 <_fflush_r>
 8005e18:	bb30      	cbnz	r0, 8005e68 <__swbuf_r+0x90>
 8005e1a:	68a3      	ldr	r3, [r4, #8]
 8005e1c:	3001      	adds	r0, #1
 8005e1e:	3b01      	subs	r3, #1
 8005e20:	60a3      	str	r3, [r4, #8]
 8005e22:	6823      	ldr	r3, [r4, #0]
 8005e24:	1c5a      	adds	r2, r3, #1
 8005e26:	6022      	str	r2, [r4, #0]
 8005e28:	701e      	strb	r6, [r3, #0]
 8005e2a:	6963      	ldr	r3, [r4, #20]
 8005e2c:	4283      	cmp	r3, r0
 8005e2e:	d004      	beq.n	8005e3a <__swbuf_r+0x62>
 8005e30:	89a3      	ldrh	r3, [r4, #12]
 8005e32:	07db      	lsls	r3, r3, #31
 8005e34:	d506      	bpl.n	8005e44 <__swbuf_r+0x6c>
 8005e36:	2e0a      	cmp	r6, #10
 8005e38:	d104      	bne.n	8005e44 <__swbuf_r+0x6c>
 8005e3a:	4621      	mov	r1, r4
 8005e3c:	4628      	mov	r0, r5
 8005e3e:	f000 f933 	bl	80060a8 <_fflush_r>
 8005e42:	b988      	cbnz	r0, 8005e68 <__swbuf_r+0x90>
 8005e44:	4638      	mov	r0, r7
 8005e46:	bdf8      	pop	{r3, r4, r5, r6, r7, pc}
 8005e48:	4b0a      	ldr	r3, [pc, #40]	; (8005e74 <__swbuf_r+0x9c>)
 8005e4a:	429c      	cmp	r4, r3
 8005e4c:	d101      	bne.n	8005e52 <__swbuf_r+0x7a>
 8005e4e:	68ac      	ldr	r4, [r5, #8]
 8005e50:	e7cf      	b.n	8005df2 <__swbuf_r+0x1a>
 8005e52:	4b09      	ldr	r3, [pc, #36]	; (8005e78 <__swbuf_r+0xa0>)
 8005e54:	429c      	cmp	r4, r3
 8005e56:	bf08      	it	eq
 8005e58:	68ec      	ldreq	r4, [r5, #12]
 8005e5a:	e7ca      	b.n	8005df2 <__swbuf_r+0x1a>
 8005e5c:	4621      	mov	r1, r4
 8005e5e:	4628      	mov	r0, r5
 8005e60:	f000 f81e 	bl	8005ea0 <__swsetup_r>
 8005e64:	2800      	cmp	r0, #0
 8005e66:	d0cb      	beq.n	8005e00 <__swbuf_r+0x28>
 8005e68:	f04f 37ff 	mov.w	r7, #4294967295
 8005e6c:	e7ea      	b.n	8005e44 <__swbuf_r+0x6c>
 8005e6e:	bf00      	nop
 8005e70:	08007944 	.word	0x08007944
 8005e74:	08007964 	.word	0x08007964
 8005e78:	08007924 	.word	0x08007924

08005e7c <_write_r>:
 8005e7c:	b538      	push	{r3, r4, r5, lr}
 8005e7e:	4604      	mov	r4, r0
 8005e80:	4608      	mov	r0, r1
 8005e82:	4611      	mov	r1, r2
 8005e84:	2200      	movs	r2, #0
 8005e86:	4d05      	ldr	r5, [pc, #20]	; (8005e9c <_write_r+0x20>)
 8005e88:	602a      	str	r2, [r5, #0]
 8005e8a:	461a      	mov	r2, r3
 8005e8c:	f7fc f856 	bl	8001f3c <_write>
 8005e90:	1c43      	adds	r3, r0, #1
 8005e92:	d102      	bne.n	8005e9a <_write_r+0x1e>
 8005e94:	682b      	ldr	r3, [r5, #0]
 8005e96:	b103      	cbz	r3, 8005e9a <_write_r+0x1e>
 8005e98:	6023      	str	r3, [r4, #0]
 8005e9a:	bd38      	pop	{r3, r4, r5, pc}
 8005e9c:	2000061c 	.word	0x2000061c

08005ea0 <__swsetup_r>:
 8005ea0:	4b32      	ldr	r3, [pc, #200]	; (8005f6c <__swsetup_r+0xcc>)
 8005ea2:	b570      	push	{r4, r5, r6, lr}
 8005ea4:	681d      	ldr	r5, [r3, #0]
 8005ea6:	4606      	mov	r6, r0
 8005ea8:	460c      	mov	r4, r1
 8005eaa:	b125      	cbz	r5, 8005eb6 <__swsetup_r+0x16>
 8005eac:	69ab      	ldr	r3, [r5, #24]
 8005eae:	b913      	cbnz	r3, 8005eb6 <__swsetup_r+0x16>
 8005eb0:	4628      	mov	r0, r5
 8005eb2:	f7ff fb55 	bl	8005560 <__sinit>
 8005eb6:	4b2e      	ldr	r3, [pc, #184]	; (8005f70 <__swsetup_r+0xd0>)
 8005eb8:	429c      	cmp	r4, r3
 8005eba:	d10f      	bne.n	8005edc <__swsetup_r+0x3c>
 8005ebc:	686c      	ldr	r4, [r5, #4]
 8005ebe:	89a3      	ldrh	r3, [r4, #12]
 8005ec0:	f9b4 200c 	ldrsh.w	r2, [r4, #12]
 8005ec4:	0719      	lsls	r1, r3, #28
 8005ec6:	d42c      	bmi.n	8005f22 <__swsetup_r+0x82>
 8005ec8:	06dd      	lsls	r5, r3, #27
 8005eca:	d411      	bmi.n	8005ef0 <__swsetup_r+0x50>
 8005ecc:	2309      	movs	r3, #9
 8005ece:	6033      	str	r3, [r6, #0]
 8005ed0:	f042 0340 	orr.w	r3, r2, #64	; 0x40
 8005ed4:	f04f 30ff 	mov.w	r0, #4294967295
 8005ed8:	81a3      	strh	r3, [r4, #12]
 8005eda:	e03e      	b.n	8005f5a <__swsetup_r+0xba>
 8005edc:	4b25      	ldr	r3, [pc, #148]	; (8005f74 <__swsetup_r+0xd4>)
 8005ede:	429c      	cmp	r4, r3
 8005ee0:	d101      	bne.n	8005ee6 <__swsetup_r+0x46>
 8005ee2:	68ac      	ldr	r4, [r5, #8]
 8005ee4:	e7eb      	b.n	8005ebe <__swsetup_r+0x1e>
 8005ee6:	4b24      	ldr	r3, [pc, #144]	; (8005f78 <__swsetup_r+0xd8>)
 8005ee8:	429c      	cmp	r4, r3
 8005eea:	bf08      	it	eq
 8005eec:	68ec      	ldreq	r4, [r5, #12]
 8005eee:	e7e6      	b.n	8005ebe <__swsetup_r+0x1e>
 8005ef0:	0758      	lsls	r0, r3, #29
 8005ef2:	d512      	bpl.n	8005f1a <__swsetup_r+0x7a>
 8005ef4:	6b61      	ldr	r1, [r4, #52]	; 0x34
 8005ef6:	b141      	cbz	r1, 8005f0a <__swsetup_r+0x6a>
 8005ef8:	f104 0344 	add.w	r3, r4, #68	; 0x44
 8005efc:	4299      	cmp	r1, r3
 8005efe:	d002      	beq.n	8005f06 <__swsetup_r+0x66>
 8005f00:	4630      	mov	r0, r6
 8005f02:	f000 f99d 	bl	8006240 <_free_r>
 8005f06:	2300      	movs	r3, #0
 8005f08:	6363      	str	r3, [r4, #52]	; 0x34
 8005f0a:	89a3      	ldrh	r3, [r4, #12]
 8005f0c:	f023 0324 	bic.w	r3, r3, #36	; 0x24
 8005f10:	81a3      	strh	r3, [r4, #12]
 8005f12:	2300      	movs	r3, #0
 8005f14:	6063      	str	r3, [r4, #4]
 8005f16:	6923      	ldr	r3, [r4, #16]
 8005f18:	6023      	str	r3, [r4, #0]
 8005f1a:	89a3      	ldrh	r3, [r4, #12]
 8005f1c:	f043 0308 	orr.w	r3, r3, #8
 8005f20:	81a3      	strh	r3, [r4, #12]
 8005f22:	6923      	ldr	r3, [r4, #16]
 8005f24:	b94b      	cbnz	r3, 8005f3a <__swsetup_r+0x9a>
 8005f26:	89a3      	ldrh	r3, [r4, #12]
 8005f28:	f403 7320 	and.w	r3, r3, #640	; 0x280
 8005f2c:	f5b3 7f00 	cmp.w	r3, #512	; 0x200
 8005f30:	d003      	beq.n	8005f3a <__swsetup_r+0x9a>
 8005f32:	4621      	mov	r1, r4
 8005f34:	4630      	mov	r0, r6
 8005f36:	f000 f929 	bl	800618c <__smakebuf_r>
 8005f3a:	89a0      	ldrh	r0, [r4, #12]
 8005f3c:	f9b4 200c 	ldrsh.w	r2, [r4, #12]
 8005f40:	f010 0301 	ands.w	r3, r0, #1
 8005f44:	d00a      	beq.n	8005f5c <__swsetup_r+0xbc>
 8005f46:	2300      	movs	r3, #0
 8005f48:	60a3      	str	r3, [r4, #8]
 8005f4a:	6963      	ldr	r3, [r4, #20]
 8005f4c:	425b      	negs	r3, r3
 8005f4e:	61a3      	str	r3, [r4, #24]
 8005f50:	6923      	ldr	r3, [r4, #16]
 8005f52:	b943      	cbnz	r3, 8005f66 <__swsetup_r+0xc6>
 8005f54:	f010 0080 	ands.w	r0, r0, #128	; 0x80
 8005f58:	d1ba      	bne.n	8005ed0 <__swsetup_r+0x30>
 8005f5a:	bd70      	pop	{r4, r5, r6, pc}
 8005f5c:	0781      	lsls	r1, r0, #30
 8005f5e:	bf58      	it	pl
 8005f60:	6963      	ldrpl	r3, [r4, #20]
 8005f62:	60a3      	str	r3, [r4, #8]
 8005f64:	e7f4      	b.n	8005f50 <__swsetup_r+0xb0>
 8005f66:	2000      	movs	r0, #0
 8005f68:	e7f7      	b.n	8005f5a <__swsetup_r+0xba>
 8005f6a:	bf00      	nop
 8005f6c:	2000004c 	.word	0x2000004c
 8005f70:	08007944 	.word	0x08007944
 8005f74:	08007964 	.word	0x08007964
 8005f78:	08007924 	.word	0x08007924

08005f7c <_close_r>:
 8005f7c:	b538      	push	{r3, r4, r5, lr}
 8005f7e:	2300      	movs	r3, #0
 8005f80:	4d05      	ldr	r5, [pc, #20]	; (8005f98 <_close_r+0x1c>)
 8005f82:	4604      	mov	r4, r0
 8005f84:	4608      	mov	r0, r1
 8005f86:	602b      	str	r3, [r5, #0]
 8005f88:	f7fb feff 	bl	8001d8a <_close>
 8005f8c:	1c43      	adds	r3, r0, #1
 8005f8e:	d102      	bne.n	8005f96 <_close_r+0x1a>
 8005f90:	682b      	ldr	r3, [r5, #0]
 8005f92:	b103      	cbz	r3, 8005f96 <_close_r+0x1a>
 8005f94:	6023      	str	r3, [r4, #0]
 8005f96:	bd38      	pop	{r3, r4, r5, pc}
 8005f98:	2000061c 	.word	0x2000061c

08005f9c <__sflush_r>:
 8005f9c:	898a      	ldrh	r2, [r1, #12]
 8005f9e:	e92d 41f0 	stmdb	sp!, {r4, r5, r6, r7, r8, lr}
 8005fa2:	4605      	mov	r5, r0
 8005fa4:	0710      	lsls	r0, r2, #28
 8005fa6:	460c      	mov	r4, r1
 8005fa8:	d458      	bmi.n	800605c <__sflush_r+0xc0>
 8005faa:	684b      	ldr	r3, [r1, #4]
 8005fac:	2b00      	cmp	r3, #0
 8005fae:	dc05      	bgt.n	8005fbc <__sflush_r+0x20>
 8005fb0:	6c0b      	ldr	r3, [r1, #64]	; 0x40
 8005fb2:	2b00      	cmp	r3, #0
 8005fb4:	dc02      	bgt.n	8005fbc <__sflush_r+0x20>
 8005fb6:	2000      	movs	r0, #0
 8005fb8:	e8bd 81f0 	ldmia.w	sp!, {r4, r5, r6, r7, r8, pc}
 8005fbc:	6ae6      	ldr	r6, [r4, #44]	; 0x2c
 8005fbe:	2e00      	cmp	r6, #0
 8005fc0:	d0f9      	beq.n	8005fb6 <__sflush_r+0x1a>
 8005fc2:	2300      	movs	r3, #0
 8005fc4:	f412 5280 	ands.w	r2, r2, #4096	; 0x1000
 8005fc8:	682f      	ldr	r7, [r5, #0]
 8005fca:	602b      	str	r3, [r5, #0]
 8005fcc:	d032      	beq.n	8006034 <__sflush_r+0x98>
 8005fce:	6d60      	ldr	r0, [r4, #84]	; 0x54
 8005fd0:	89a3      	ldrh	r3, [r4, #12]
 8005fd2:	075a      	lsls	r2, r3, #29
 8005fd4:	d505      	bpl.n	8005fe2 <__sflush_r+0x46>
 8005fd6:	6863      	ldr	r3, [r4, #4]
 8005fd8:	1ac0      	subs	r0, r0, r3
 8005fda:	6b63      	ldr	r3, [r4, #52]	; 0x34
 8005fdc:	b10b      	cbz	r3, 8005fe2 <__sflush_r+0x46>
 8005fde:	6c23      	ldr	r3, [r4, #64]	; 0x40
 8005fe0:	1ac0      	subs	r0, r0, r3
 8005fe2:	2300      	movs	r3, #0
 8005fe4:	4602      	mov	r2, r0
 8005fe6:	6ae6      	ldr	r6, [r4, #44]	; 0x2c
 8005fe8:	4628      	mov	r0, r5
 8005fea:	6a21      	ldr	r1, [r4, #32]
 8005fec:	47b0      	blx	r6
 8005fee:	1c43      	adds	r3, r0, #1
 8005ff0:	89a3      	ldrh	r3, [r4, #12]
 8005ff2:	d106      	bne.n	8006002 <__sflush_r+0x66>
 8005ff4:	6829      	ldr	r1, [r5, #0]
 8005ff6:	291d      	cmp	r1, #29
 8005ff8:	d82c      	bhi.n	8006054 <__sflush_r+0xb8>
 8005ffa:	4a2a      	ldr	r2, [pc, #168]	; (80060a4 <__sflush_r+0x108>)
 8005ffc:	40ca      	lsrs	r2, r1
 8005ffe:	07d6      	lsls	r6, r2, #31
 8006000:	d528      	bpl.n	8006054 <__sflush_r+0xb8>
 8006002:	2200      	movs	r2, #0
 8006004:	6062      	str	r2, [r4, #4]
 8006006:	6922      	ldr	r2, [r4, #16]
 8006008:	04d9      	lsls	r1, r3, #19
 800600a:	6022      	str	r2, [r4, #0]
 800600c:	d504      	bpl.n	8006018 <__sflush_r+0x7c>
 800600e:	1c42      	adds	r2, r0, #1
 8006010:	d101      	bne.n	8006016 <__sflush_r+0x7a>
 8006012:	682b      	ldr	r3, [r5, #0]
 8006014:	b903      	cbnz	r3, 8006018 <__sflush_r+0x7c>
 8006016:	6560      	str	r0, [r4, #84]	; 0x54
 8006018:	6b61      	ldr	r1, [r4, #52]	; 0x34
 800601a:	602f      	str	r7, [r5, #0]
 800601c:	2900      	cmp	r1, #0
 800601e:	d0ca      	beq.n	8005fb6 <__sflush_r+0x1a>
 8006020:	f104 0344 	add.w	r3, r4, #68	; 0x44
 8006024:	4299      	cmp	r1, r3
 8006026:	d002      	beq.n	800602e <__sflush_r+0x92>
 8006028:	4628      	mov	r0, r5
 800602a:	f000 f909 	bl	8006240 <_free_r>
 800602e:	2000      	movs	r0, #0
 8006030:	6360      	str	r0, [r4, #52]	; 0x34
 8006032:	e7c1      	b.n	8005fb8 <__sflush_r+0x1c>
 8006034:	6a21      	ldr	r1, [r4, #32]
 8006036:	2301      	movs	r3, #1
 8006038:	4628      	mov	r0, r5
 800603a:	47b0      	blx	r6
 800603c:	1c41      	adds	r1, r0, #1
 800603e:	d1c7      	bne.n	8005fd0 <__sflush_r+0x34>
 8006040:	682b      	ldr	r3, [r5, #0]
 8006042:	2b00      	cmp	r3, #0
 8006044:	d0c4      	beq.n	8005fd0 <__sflush_r+0x34>
 8006046:	2b1d      	cmp	r3, #29
 8006048:	d001      	beq.n	800604e <__sflush_r+0xb2>
 800604a:	2b16      	cmp	r3, #22
 800604c:	d101      	bne.n	8006052 <__sflush_r+0xb6>
 800604e:	602f      	str	r7, [r5, #0]
 8006050:	e7b1      	b.n	8005fb6 <__sflush_r+0x1a>
 8006052:	89a3      	ldrh	r3, [r4, #12]
 8006054:	f043 0340 	orr.w	r3, r3, #64	; 0x40
 8006058:	81a3      	strh	r3, [r4, #12]
 800605a:	e7ad      	b.n	8005fb8 <__sflush_r+0x1c>
 800605c:	690f      	ldr	r7, [r1, #16]
 800605e:	2f00      	cmp	r7, #0
 8006060:	d0a9      	beq.n	8005fb6 <__sflush_r+0x1a>
 8006062:	0793      	lsls	r3, r2, #30
 8006064:	bf18      	it	ne
 8006066:	2300      	movne	r3, #0
 8006068:	680e      	ldr	r6, [r1, #0]
 800606a:	bf08      	it	eq
 800606c:	694b      	ldreq	r3, [r1, #20]
 800606e:	eba6 0807 	sub.w	r8, r6, r7
 8006072:	600f      	str	r7, [r1, #0]
 8006074:	608b      	str	r3, [r1, #8]
 8006076:	f1b8 0f00 	cmp.w	r8, #0
 800607a:	dd9c      	ble.n	8005fb6 <__sflush_r+0x1a>
 800607c:	4643      	mov	r3, r8
 800607e:	463a      	mov	r2, r7
 8006080:	4628      	mov	r0, r5
 8006082:	6a21      	ldr	r1, [r4, #32]
 8006084:	6aa6      	ldr	r6, [r4, #40]	; 0x28
 8006086:	47b0      	blx	r6
 8006088:	2800      	cmp	r0, #0
 800608a:	dc06      	bgt.n	800609a <__sflush_r+0xfe>
 800608c:	89a3      	ldrh	r3, [r4, #12]
 800608e:	f04f 30ff 	mov.w	r0, #4294967295
 8006092:	f043 0340 	orr.w	r3, r3, #64	; 0x40
 8006096:	81a3      	strh	r3, [r4, #12]
 8006098:	e78e      	b.n	8005fb8 <__sflush_r+0x1c>
 800609a:	4407      	add	r7, r0
 800609c:	eba8 0800 	sub.w	r8, r8, r0
 80060a0:	e7e9      	b.n	8006076 <__sflush_r+0xda>
 80060a2:	bf00      	nop
 80060a4:	20400001 	.word	0x20400001

080060a8 <_fflush_r>:
 80060a8:	b538      	push	{r3, r4, r5, lr}
 80060aa:	690b      	ldr	r3, [r1, #16]
 80060ac:	4605      	mov	r5, r0
 80060ae:	460c      	mov	r4, r1
 80060b0:	b913      	cbnz	r3, 80060b8 <_fflush_r+0x10>
 80060b2:	2500      	movs	r5, #0
 80060b4:	4628      	mov	r0, r5
 80060b6:	bd38      	pop	{r3, r4, r5, pc}
 80060b8:	b118      	cbz	r0, 80060c2 <_fflush_r+0x1a>
 80060ba:	6983      	ldr	r3, [r0, #24]
 80060bc:	b90b      	cbnz	r3, 80060c2 <_fflush_r+0x1a>
 80060be:	f7ff fa4f 	bl	8005560 <__sinit>
 80060c2:	4b14      	ldr	r3, [pc, #80]	; (8006114 <_fflush_r+0x6c>)
 80060c4:	429c      	cmp	r4, r3
 80060c6:	d11b      	bne.n	8006100 <_fflush_r+0x58>
 80060c8:	686c      	ldr	r4, [r5, #4]
 80060ca:	f9b4 300c 	ldrsh.w	r3, [r4, #12]
 80060ce:	2b00      	cmp	r3, #0
 80060d0:	d0ef      	beq.n	80060b2 <_fflush_r+0xa>
 80060d2:	6e62      	ldr	r2, [r4, #100]	; 0x64
 80060d4:	07d0      	lsls	r0, r2, #31
 80060d6:	d404      	bmi.n	80060e2 <_fflush_r+0x3a>
 80060d8:	0599      	lsls	r1, r3, #22
 80060da:	d402      	bmi.n	80060e2 <_fflush_r+0x3a>
 80060dc:	6da0      	ldr	r0, [r4, #88]	; 0x58
 80060de:	f7ff fadd 	bl	800569c <__retarget_lock_acquire_recursive>
 80060e2:	4628      	mov	r0, r5
 80060e4:	4621      	mov	r1, r4
 80060e6:	f7ff ff59 	bl	8005f9c <__sflush_r>
 80060ea:	6e63      	ldr	r3, [r4, #100]	; 0x64
 80060ec:	4605      	mov	r5, r0
 80060ee:	07da      	lsls	r2, r3, #31
 80060f0:	d4e0      	bmi.n	80060b4 <_fflush_r+0xc>
 80060f2:	89a3      	ldrh	r3, [r4, #12]
 80060f4:	059b      	lsls	r3, r3, #22
 80060f6:	d4dd      	bmi.n	80060b4 <_fflush_r+0xc>
 80060f8:	6da0      	ldr	r0, [r4, #88]	; 0x58
 80060fa:	f7ff fad0 	bl	800569e <__retarget_lock_release_recursive>
 80060fe:	e7d9      	b.n	80060b4 <_fflush_r+0xc>
 8006100:	4b05      	ldr	r3, [pc, #20]	; (8006118 <_fflush_r+0x70>)
 8006102:	429c      	cmp	r4, r3
 8006104:	d101      	bne.n	800610a <_fflush_r+0x62>
 8006106:	68ac      	ldr	r4, [r5, #8]
 8006108:	e7df      	b.n	80060ca <_fflush_r+0x22>
 800610a:	4b04      	ldr	r3, [pc, #16]	; (800611c <_fflush_r+0x74>)
 800610c:	429c      	cmp	r4, r3
 800610e:	bf08      	it	eq
 8006110:	68ec      	ldreq	r4, [r5, #12]
 8006112:	e7da      	b.n	80060ca <_fflush_r+0x22>
 8006114:	08007944 	.word	0x08007944
 8006118:	08007964 	.word	0x08007964
 800611c:	08007924 	.word	0x08007924

08006120 <_lseek_r>:
 8006120:	b538      	push	{r3, r4, r5, lr}
 8006122:	4604      	mov	r4, r0
 8006124:	4608      	mov	r0, r1
 8006126:	4611      	mov	r1, r2
 8006128:	2200      	movs	r2, #0
 800612a:	4d05      	ldr	r5, [pc, #20]	; (8006140 <_lseek_r+0x20>)
 800612c:	602a      	str	r2, [r5, #0]
 800612e:	461a      	mov	r2, r3
 8006130:	f7fb fe4f 	bl	8001dd2 <_lseek>
 8006134:	1c43      	adds	r3, r0, #1
 8006136:	d102      	bne.n	800613e <_lseek_r+0x1e>
 8006138:	682b      	ldr	r3, [r5, #0]
 800613a:	b103      	cbz	r3, 800613e <_lseek_r+0x1e>
 800613c:	6023      	str	r3, [r4, #0]
 800613e:	bd38      	pop	{r3, r4, r5, pc}
 8006140:	2000061c 	.word	0x2000061c

08006144 <__swhatbuf_r>:
 8006144:	b570      	push	{r4, r5, r6, lr}
 8006146:	460e      	mov	r6, r1
 8006148:	f9b1 100e 	ldrsh.w	r1, [r1, #14]
 800614c:	4614      	mov	r4, r2
 800614e:	2900      	cmp	r1, #0
 8006150:	461d      	mov	r5, r3
 8006152:	b096      	sub	sp, #88	; 0x58
 8006154:	da07      	bge.n	8006166 <__swhatbuf_r+0x22>
 8006156:	2300      	movs	r3, #0
 8006158:	602b      	str	r3, [r5, #0]
 800615a:	89b3      	ldrh	r3, [r6, #12]
 800615c:	061a      	lsls	r2, r3, #24
 800615e:	d410      	bmi.n	8006182 <__swhatbuf_r+0x3e>
 8006160:	f44f 6380 	mov.w	r3, #1024	; 0x400
 8006164:	e00e      	b.n	8006184 <__swhatbuf_r+0x40>
 8006166:	466a      	mov	r2, sp
 8006168:	f000 f8c8 	bl	80062fc <_fstat_r>
 800616c:	2800      	cmp	r0, #0
 800616e:	dbf2      	blt.n	8006156 <__swhatbuf_r+0x12>
 8006170:	9a01      	ldr	r2, [sp, #4]
 8006172:	f402 4270 	and.w	r2, r2, #61440	; 0xf000
 8006176:	f5a2 5300 	sub.w	r3, r2, #8192	; 0x2000
 800617a:	425a      	negs	r2, r3
 800617c:	415a      	adcs	r2, r3
 800617e:	602a      	str	r2, [r5, #0]
 8006180:	e7ee      	b.n	8006160 <__swhatbuf_r+0x1c>
 8006182:	2340      	movs	r3, #64	; 0x40
 8006184:	2000      	movs	r0, #0
 8006186:	6023      	str	r3, [r4, #0]
 8006188:	b016      	add	sp, #88	; 0x58
 800618a:	bd70      	pop	{r4, r5, r6, pc}

0800618c <__smakebuf_r>:
 800618c:	898b      	ldrh	r3, [r1, #12]
 800618e:	b573      	push	{r0, r1, r4, r5, r6, lr}
 8006190:	079d      	lsls	r5, r3, #30
 8006192:	4606      	mov	r6, r0
 8006194:	460c      	mov	r4, r1
 8006196:	d507      	bpl.n	80061a8 <__smakebuf_r+0x1c>
 8006198:	f104 0347 	add.w	r3, r4, #71	; 0x47
 800619c:	6023      	str	r3, [r4, #0]
 800619e:	6123      	str	r3, [r4, #16]
 80061a0:	2301      	movs	r3, #1
 80061a2:	6163      	str	r3, [r4, #20]
 80061a4:	b002      	add	sp, #8
 80061a6:	bd70      	pop	{r4, r5, r6, pc}
 80061a8:	466a      	mov	r2, sp
 80061aa:	ab01      	add	r3, sp, #4
 80061ac:	f7ff ffca 	bl	8006144 <__swhatbuf_r>
 80061b0:	9900      	ldr	r1, [sp, #0]
 80061b2:	4605      	mov	r5, r0
 80061b4:	4630      	mov	r0, r6
 80061b6:	f7ff fa73 	bl	80056a0 <_malloc_r>
 80061ba:	b948      	cbnz	r0, 80061d0 <__smakebuf_r+0x44>
 80061bc:	f9b4 300c 	ldrsh.w	r3, [r4, #12]
 80061c0:	059a      	lsls	r2, r3, #22
 80061c2:	d4ef      	bmi.n	80061a4 <__smakebuf_r+0x18>
 80061c4:	f023 0303 	bic.w	r3, r3, #3
 80061c8:	f043 0302 	orr.w	r3, r3, #2
 80061cc:	81a3      	strh	r3, [r4, #12]
 80061ce:	e7e3      	b.n	8006198 <__smakebuf_r+0xc>
 80061d0:	4b0d      	ldr	r3, [pc, #52]	; (8006208 <__smakebuf_r+0x7c>)
 80061d2:	62b3      	str	r3, [r6, #40]	; 0x28
 80061d4:	89a3      	ldrh	r3, [r4, #12]
 80061d6:	6020      	str	r0, [r4, #0]
 80061d8:	f043 0380 	orr.w	r3, r3, #128	; 0x80
 80061dc:	81a3      	strh	r3, [r4, #12]
 80061de:	9b00      	ldr	r3, [sp, #0]
 80061e0:	6120      	str	r0, [r4, #16]
 80061e2:	6163      	str	r3, [r4, #20]
 80061e4:	9b01      	ldr	r3, [sp, #4]
 80061e6:	b15b      	cbz	r3, 8006200 <__smakebuf_r+0x74>
 80061e8:	4630      	mov	r0, r6
 80061ea:	f9b4 100e 	ldrsh.w	r1, [r4, #14]
 80061ee:	f000 f897 	bl	8006320 <_isatty_r>
 80061f2:	b128      	cbz	r0, 8006200 <__smakebuf_r+0x74>
 80061f4:	89a3      	ldrh	r3, [r4, #12]
 80061f6:	f023 0303 	bic.w	r3, r3, #3
 80061fa:	f043 0301 	orr.w	r3, r3, #1
 80061fe:	81a3      	strh	r3, [r4, #12]
 8006200:	89a0      	ldrh	r0, [r4, #12]
 8006202:	4305      	orrs	r5, r0
 8006204:	81a5      	strh	r5, [r4, #12]
 8006206:	e7cd      	b.n	80061a4 <__smakebuf_r+0x18>
 8006208:	080054f9 	.word	0x080054f9

0800620c <memchr>:
 800620c:	4603      	mov	r3, r0
 800620e:	b510      	push	{r4, lr}
 8006210:	b2c9      	uxtb	r1, r1
 8006212:	4402      	add	r2, r0
 8006214:	4293      	cmp	r3, r2
 8006216:	4618      	mov	r0, r3
 8006218:	d101      	bne.n	800621e <memchr+0x12>
 800621a:	2000      	movs	r0, #0
 800621c:	e003      	b.n	8006226 <memchr+0x1a>
 800621e:	7804      	ldrb	r4, [r0, #0]
 8006220:	3301      	adds	r3, #1
 8006222:	428c      	cmp	r4, r1
 8006224:	d1f6      	bne.n	8006214 <memchr+0x8>
 8006226:	bd10      	pop	{r4, pc}

08006228 <__malloc_lock>:
 8006228:	4801      	ldr	r0, [pc, #4]	; (8006230 <__malloc_lock+0x8>)
 800622a:	f7ff ba37 	b.w	800569c <__retarget_lock_acquire_recursive>
 800622e:	bf00      	nop
 8006230:	20000614 	.word	0x20000614

08006234 <__malloc_unlock>:
 8006234:	4801      	ldr	r0, [pc, #4]	; (800623c <__malloc_unlock+0x8>)
 8006236:	f7ff ba32 	b.w	800569e <__retarget_lock_release_recursive>
 800623a:	bf00      	nop
 800623c:	20000614 	.word	0x20000614

08006240 <_free_r>:
 8006240:	b538      	push	{r3, r4, r5, lr}
 8006242:	4605      	mov	r5, r0
 8006244:	2900      	cmp	r1, #0
 8006246:	d043      	beq.n	80062d0 <_free_r+0x90>
 8006248:	f851 3c04 	ldr.w	r3, [r1, #-4]
 800624c:	1f0c      	subs	r4, r1, #4
 800624e:	2b00      	cmp	r3, #0
 8006250:	bfb8      	it	lt
 8006252:	18e4      	addlt	r4, r4, r3
 8006254:	f7ff ffe8 	bl	8006228 <__malloc_lock>
 8006258:	4a1e      	ldr	r2, [pc, #120]	; (80062d4 <_free_r+0x94>)
 800625a:	6813      	ldr	r3, [r2, #0]
 800625c:	4610      	mov	r0, r2
 800625e:	b933      	cbnz	r3, 800626e <_free_r+0x2e>
 8006260:	6063      	str	r3, [r4, #4]
 8006262:	6014      	str	r4, [r2, #0]
 8006264:	4628      	mov	r0, r5
 8006266:	e8bd 4038 	ldmia.w	sp!, {r3, r4, r5, lr}
 800626a:	f7ff bfe3 	b.w	8006234 <__malloc_unlock>
 800626e:	42a3      	cmp	r3, r4
 8006270:	d90a      	bls.n	8006288 <_free_r+0x48>
 8006272:	6821      	ldr	r1, [r4, #0]
 8006274:	1862      	adds	r2, r4, r1
 8006276:	4293      	cmp	r3, r2
 8006278:	bf01      	itttt	eq
 800627a:	681a      	ldreq	r2, [r3, #0]
 800627c:	685b      	ldreq	r3, [r3, #4]
 800627e:	1852      	addeq	r2, r2, r1
 8006280:	6022      	streq	r2, [r4, #0]
 8006282:	6063      	str	r3, [r4, #4]
 8006284:	6004      	str	r4, [r0, #0]
 8006286:	e7ed      	b.n	8006264 <_free_r+0x24>
 8006288:	461a      	mov	r2, r3
 800628a:	685b      	ldr	r3, [r3, #4]
 800628c:	b10b      	cbz	r3, 8006292 <_free_r+0x52>
 800628e:	42a3      	cmp	r3, r4
 8006290:	d9fa      	bls.n	8006288 <_free_r+0x48>
 8006292:	6811      	ldr	r1, [r2, #0]
 8006294:	1850      	adds	r0, r2, r1
 8006296:	42a0      	cmp	r0, r4
 8006298:	d10b      	bne.n	80062b2 <_free_r+0x72>
 800629a:	6820      	ldr	r0, [r4, #0]
 800629c:	4401      	add	r1, r0
 800629e:	1850      	adds	r0, r2, r1
 80062a0:	4283      	cmp	r3, r0
 80062a2:	6011      	str	r1, [r2, #0]
 80062a4:	d1de      	bne.n	8006264 <_free_r+0x24>
 80062a6:	6818      	ldr	r0, [r3, #0]
 80062a8:	685b      	ldr	r3, [r3, #4]
 80062aa:	4401      	add	r1, r0
 80062ac:	6011      	str	r1, [r2, #0]
 80062ae:	6053      	str	r3, [r2, #4]
 80062b0:	e7d8      	b.n	8006264 <_free_r+0x24>
 80062b2:	d902      	bls.n	80062ba <_free_r+0x7a>
 80062b4:	230c      	movs	r3, #12
 80062b6:	602b      	str	r3, [r5, #0]
 80062b8:	e7d4      	b.n	8006264 <_free_r+0x24>
 80062ba:	6820      	ldr	r0, [r4, #0]
 80062bc:	1821      	adds	r1, r4, r0
 80062be:	428b      	cmp	r3, r1
 80062c0:	bf01      	itttt	eq
 80062c2:	6819      	ldreq	r1, [r3, #0]
 80062c4:	685b      	ldreq	r3, [r3, #4]
 80062c6:	1809      	addeq	r1, r1, r0
 80062c8:	6021      	streq	r1, [r4, #0]
 80062ca:	6063      	str	r3, [r4, #4]
 80062cc:	6054      	str	r4, [r2, #4]
 80062ce:	e7c9      	b.n	8006264 <_free_r+0x24>
 80062d0:	bd38      	pop	{r3, r4, r5, pc}
 80062d2:	bf00      	nop
 80062d4:	20000510 	.word	0x20000510

080062d8 <_read_r>:
 80062d8:	b538      	push	{r3, r4, r5, lr}
 80062da:	4604      	mov	r4, r0
 80062dc:	4608      	mov	r0, r1
 80062de:	4611      	mov	r1, r2
 80062e0:	2200      	movs	r2, #0
 80062e2:	4d05      	ldr	r5, [pc, #20]	; (80062f8 <_read_r+0x20>)
 80062e4:	602a      	str	r2, [r5, #0]
 80062e6:	461a      	mov	r2, r3
 80062e8:	f7fb fd32 	bl	8001d50 <_read>
 80062ec:	1c43      	adds	r3, r0, #1
 80062ee:	d102      	bne.n	80062f6 <_read_r+0x1e>
 80062f0:	682b      	ldr	r3, [r5, #0]
 80062f2:	b103      	cbz	r3, 80062f6 <_read_r+0x1e>
 80062f4:	6023      	str	r3, [r4, #0]
 80062f6:	bd38      	pop	{r3, r4, r5, pc}
 80062f8:	2000061c 	.word	0x2000061c

080062fc <_fstat_r>:
 80062fc:	b538      	push	{r3, r4, r5, lr}
 80062fe:	2300      	movs	r3, #0
 8006300:	4d06      	ldr	r5, [pc, #24]	; (800631c <_fstat_r+0x20>)
 8006302:	4604      	mov	r4, r0
 8006304:	4608      	mov	r0, r1
 8006306:	4611      	mov	r1, r2
 8006308:	602b      	str	r3, [r5, #0]
 800630a:	f7fb fd49 	bl	8001da0 <_fstat>
 800630e:	1c43      	adds	r3, r0, #1
 8006310:	d102      	bne.n	8006318 <_fstat_r+0x1c>
 8006312:	682b      	ldr	r3, [r5, #0]
 8006314:	b103      	cbz	r3, 8006318 <_fstat_r+0x1c>
 8006316:	6023      	str	r3, [r4, #0]
 8006318:	bd38      	pop	{r3, r4, r5, pc}
 800631a:	bf00      	nop
 800631c:	2000061c 	.word	0x2000061c

08006320 <_isatty_r>:
 8006320:	b538      	push	{r3, r4, r5, lr}
 8006322:	2300      	movs	r3, #0
 8006324:	4d05      	ldr	r5, [pc, #20]	; (800633c <_isatty_r+0x1c>)
 8006326:	4604      	mov	r4, r0
 8006328:	4608      	mov	r0, r1
 800632a:	602b      	str	r3, [r5, #0]
 800632c:	f7fb fd47 	bl	8001dbe <_isatty>
 8006330:	1c43      	adds	r3, r0, #1
 8006332:	d102      	bne.n	800633a <_isatty_r+0x1a>
 8006334:	682b      	ldr	r3, [r5, #0]
 8006336:	b103      	cbz	r3, 800633a <_isatty_r+0x1a>
 8006338:	6023      	str	r3, [r4, #0]
 800633a:	bd38      	pop	{r3, r4, r5, pc}
 800633c:	2000061c 	.word	0x2000061c

08006340 <_init>:
 8006340:	b5f8      	push	{r3, r4, r5, r6, r7, lr}
 8006342:	bf00      	nop
 8006344:	bcf8      	pop	{r3, r4, r5, r6, r7}
 8006346:	bc08      	pop	{r3}
 8006348:	469e      	mov	lr, r3
 800634a:	4770      	bx	lr

0800634c <_fini>:
 800634c:	b5f8      	push	{r3, r4, r5, r6, r7, lr}
 800634e:	bf00      	nop
 8006350:	bcf8      	pop	{r3, r4, r5, r6, r7}
 8006352:	bc08      	pop	{r3}
 8006354:	469e      	mov	lr, r3
 8006356:	4770      	bx	lr
